(lp0
(dp1
S'bad'
p2
I0
sS'good'
p3
I3
sS'registrar_name'
p4
V10DENCEHISPAHARD, S.L
p5
sa(dp6
g2
I0
sg3
I1
sg4
VDROPCATCH.COM 349 LLC
p7
sa(dp8
g2
I0
sg3
I3
sg4
VTotallyDomain LLC
p9
sa(dp10
g2
I0
sg3
I6
sg4
VNET-CHINESE CO., LTD.
p11
sa(dp12
g2
I0
sg3
I3
sg4
VGO CHINA DOMAINS INC
p13
sa(dp14
g2
I0
sg3
I38
sg4
VWIXI INCORPORATED
p15
sa(dp16
g2
I0
sg3
I3
sg4
VNameBrew LLC
p17
sa(dp18
g2
I0
sg3
I1
sg4
VEchoDomain LLC
p19
sa(dp20
g2
I0
sg3
I13
sg4
VIHS Telekom, Inc
p21
sa(dp22
g2
I0
sg3
I1
sg4
VDropCatch.com 738 LLC
p23
sa(dp24
g2
I0
sg3
I2
sg4
VNameSay LLC
p25
sa(dp26
g2
I0
sg3
I1
sg4
VDropCatch.com 445 LLC
p27
sa(dp28
g2
I0
sg3
I16
sg4
VNAMESPRO SOLUTIONS INC.
p29
sa(dp30
g2
I0
sg3
I4
sg4
VTIERRANET INC. DBA DOMAINDISCOVER
p31
sa(dp32
g2
I0
sg3
I1
sg4
VGO FRANCE DOMAINS, LLC
p33
sa(dp34
g2
I0
sg3
I214
sg4
VREGIONAL NETWORK INFORMATION CENTER, JSC DBA RU-CENTER
p35
sa(dp36
g2
I0
sg3
I1
sg4
VNAMESTOP LLC
p37
sa(dp38
g2
I0
sg3
I4
sg4
VORANGE SA
p39
sa(dp40
g2
I0
sg3
I1
sg4
VDOMAINRAKER.NET LLC
p41
sa(dp42
g2
I0
sg3
I1
sg4
VDOMAINTIMEMACHINE.COM LLC
p43
sa(dp44
g2
I0
sg3
I1
sg4
VLiteDomains LLC
p45
sa(dp46
g2
I0
sg3
I2
sg4
VGlamDomains LLC
p47
sa(dp48
g2
I0
sg3
I1
sg4
VInternet Domain Service BS Corp.
p49
sa(dp50
g2
I0
sg3
I1
sg4
VDropCatch.com 600 LLC
p51
sa(dp52
g2
I0
sg3
I17
sg4
VTurnCommerce, Inc. DBA NameBright.com
p53
sa(dp54
g2
I0
sg3
I3
sg4
VRegional Network Information Center, JSC dba RU-CENTER
p55
sa(dp56
g2
I0
sg3
I51
sg4
VCSL COMPUTER SERVICE (D.B.A. JOKER.COM)
p57
sa(dp58
g2
I0
sg3
I38
sg4
V1&1 Internet SE
p59
sa(dp60
g2
I1
sg3
I92
sg4
VJAPAN REGISTRY SERVICES CO., LTD.
p61
sa(dp62
g2
I1
sg3
I83
sg4
VMONIKER ONLINE SERVICES, LLC
p63
sa(dp64
g2
I0
sg3
I266
sg4
VFAST DOMAIN INC.
p65
sa(dp66
g2
I0
sg3
I1
sg4
VNAME CONNECTION SPOT LLC
p67
sa(dp68
g2
I0
sg3
I1
sg4
VINTERLINK CO., LTD.
p69
sa(dp70
g2
I0
sg3
I1
sg4
VDOMAIN-IT!, INC.
p71
sa(dp72
g2
I0
sg3
I2
sg4
VWEST263 INTERNATIONAL LIMITED
p73
sa(dp74
g2
I0
sg3
I27
sg4
VCV. RUMAHWEB INDONESIA
p75
sa(dp76
g2
I0
sg3
I1
sg4
VBRIARWOOD TECHNOLOGIES INC.
p77
sa(dp78
g2
I0
sg3
I1
sg4
VDropCatch.com 802 LLC
p79
sa(dp80
g2
I0
sg3
I5
sg4
VELB GROUP, INC.
p81
sa(dp82
g2
I0
sg3
I1
sg4
VECHODOMAIN LLC
p83
sa(dp84
g2
I0
sg3
I3
sg4
VBeijing Innovative Linkage Technology Ltd.
p85
sa(dp86
g2
I0
sg3
I1
sg4
VINTERWEB ADVERTISING D.B.A. PROFILE BUILDER
p87
sa(dp88
g2
I0
sg3
I98
sg4
VCRONON AG
p89
sa(dp90
g2
I0
sg3
I1
sg4
VJapan Registry Services Co.,Ltd.(JPRS)
p91
sa(dp92
g2
I0
sg3
I1
sg4
VDROPCATCH.COM 379 LLC
p93
sa(dp94
g2
I0
sg3
I1
sg4
VDropCatch.com 732 LLC
p95
sa(dp96
g2
I0
sg3
I1
sg4
VNETISTRAR LIMITED
p97
sa(dp98
g2
I0
sg3
I4
sg4
V1API GmbH
p99
sa(dp100
g2
I0
sg3
I1
sg4
VSQUIDSAILERDOMAINS.COM, LLC
p101
sa(dp102
g2
I0
sg3
I1
sg4
V! #1 HOST CANADA, INC.
p103
sa(dp104
g2
I0
sg3
I3
sg4
VPSI-USA, Inc. dba Domain Robot
p105
sa(dp106
g2
I0
sg3
I2
sg4
VNETWORKING4ALL B.V.
p107
sa(dp108
g2
I0
sg3
I1
sg4
VHAWTHORNEDOMAINS.COM LLC
p109
sa(dp110
g2
I0
sg3
I1
sg4
V35 Technology Co., Ltd.
p111
sa(dp112
g2
I0
sg3
I1
sg4
VKheweul.com SA
p113
sa(dp114
g2
I0
sg3
I1
sg4
VDropCatch.com 382 LLC
p115
sa(dp116
g2
I0
sg3
I18
sg4
VDEUTSCHE TELEKOM AG
p117
sa(dp118
g2
I0
sg3
I179
sg4
VREGISTRYGATE GMBH
p119
sa(dp120
g2
I3
sg3
I1892
sg4
VNAMECHEAP, INC.
p121
sa(dp122
g2
I0
sg3
I20
sg4
VEASYDNS TECHNOLOGIES, INC.
p123
sa(dp124
g2
I0
sg3
I9
sg4
VREGISTER.IT S.P.A.
p125
sa(dp126
g2
I0
sg3
I43
sg4
VTIERRANET INC. D/B/A DOMAINDISCOVER
p127
sa(dp128
g2
I0
sg3
I202
sg4
VNAMESILO
p129
sa(dp130
g2
I0
sg3
I1
sg4
VNAMESHERE LLC
p131
sa(dp132
g2
I0
sg3
I20
sg4
VHICHINA ZHICHENG TECHNOLOGY LTD.
p133
sa(dp134
g2
I0
sg3
I1
sg4
VDomain Cost Club
p135
sa(dp136
g2
I0
sg3
I5
sg4
VDOMAINPEOPLE, INC.
p137
sa(dp138
g2
I0
sg3
I1
sg4
VDropCatch.com 358 LLC
p139
sa(dp140
g2
I0
sg3
I3
sg4
VTPP Wholesale Pty Ltd
p141
sa(dp142
g2
I0
sg3
I1
sg4
VNetpia.com, Inc.
p143
sa(dp144
g2
I0
sg3
I15
sg4
VMARCARIA.COM INTERNATIONAL, INC.
p145
sa(dp146
g2
I0
sg3
I1
sg4
VSHANGHAI BEST ORAY INFORMATION S&T CO., LTD.
p147
sa(dp148
g2
I0
sg3
I12
sg4
VNAMESCOUT.COM
p149
sa(dp150
g2
I0
sg3
I2
sg4
VHANGANG SYSTEMS, INC. D/B/A DOREGI.COM
p151
sa(dp152
g2
I0
sg3
I1
sg4
VDropCatch.com 831 LLC
p153
sa(dp154
g2
I0
sg3
I1
sg4
VGLIDE SLOPE DOMAINS, LLC
p155
sa(dp156
g2
I0
sg3
I1
sg4
VNERD NAMES CORPORATION
p157
sa(dp158
g2
I4
sg3
I1010
sg4
VNETWORK SOLUTIONS, LLC
p159
sa(dp160
g2
I0
sg3
I6
sg4
VTIGER TECHNOLOGIES LLC
p161
sa(dp162
g2
I0
sg3
I3
sg4
VNAMEPAL.COM #8026.
p163
sa(dp164
g2
I0
sg3
I6
sg4
VACTIVE REGISTRAR, INC.
p165
sa(dp166
g2
I0
sg3
I1
sg4
VDropCatch.com 414 LLC
p167
sa(dp168
g2
I0
sg3
I1
sg4
VDREAMHOST
p169
sa(dp170
g2
I0
sg3
I1
sg4
VDHARANA DOMAINS INC.
p171
sa(dp172
g2
I0
sg3
I1
sg4
VDropCatch.com 923 LLC
p173
sa(dp174
g2
I0
sg3
I4
sg4
V10DENCEHISPAHARD, S.L.
p175
sa(dp176
g2
I0
sg3
I29
sg4
VCENTER OF UKRAINIAN INTERNET NAMES DBA UKRNAMES
p177
sa(dp178
g2
I0
sg3
I1
sg4
VDropCatch.com 430 LLC
p179
sa(dp180
g2
I0
sg3
I1
sg4
VDropCatch.com 829 LLC
p181
sa(dp182
g2
I0
sg3
I1
sg4
VGO CHINA DOMAINS, LLC
p183
sa(dp184
g2
I0
sg3
I2
sg4
VMoniker Online Services LLC
p185
sa(dp186
g2
I0
sg3
I7
sg4
VWEB TECH NAMES INC.
p187
sa(dp188
g2
I0
sg3
I1
sg4
VGO CANADA DOMAINS, LLC
p189
sa(dp190
g2
I0
sg3
I1
sg4
VGLAMDOMAINS LLC
p191
sa(dp192
g2
I0
sg3
I3
sg4
VBOTTLE DOMAINS INC.
p193
sa(dp194
g2
I0
sg3
I32
sg4
VGMO INTERNET, INC.
p195
sa(dp196
g2
I0
sg3
I1
sg4
VSILVERBACKDOMAINS.COM LLC
p197
sa(dp198
g2
I0
sg3
I1
sg4
VBRANDNAMES.COM SARL
p199
sa(dp200
g2
I0
sg3
I3
sg4
VGENIOUS COMMUNICATIONS SARL/AU
p201
sa(dp202
g2
I0
sg3
I1
sg4
VDeep Sea Domains LLC
p203
sa(dp204
g2
I0
sg3
I4
sg4
VCronon AG
p205
sa(dp206
g2
I0
sg3
I11
sg4
VHTTP.NET INTERNET GMBH
p207
sa(dp208
g2
I4
sg3
I466
sg4
VNAME.COM
p209
sa(dp210
g2
I0
sg3
I22
sg4
VSERVER PLAN SRL
p211
sa(dp212
g2
I0
sg3
I7
sg4
VNAME.COM, INC.
p213
sa(dp214
g2
I0
sg3
I75
sg4
VNETEARTH ONE, INC.
p215
sa(dp216
g2
I5
sg3
I1487
sg4
VENOM, INC.
p217
sa(dp218
g2
I7
sg3
I7220
sg4
VPDR LTD. D/B/A PUBLICDOMAINREGISTRY.COM
p219
sa(dp220
g2
I0
sg3
I2
sg4
VDomainCraze LLC
p221
sa(dp222
g2
I0
sg3
I1
sg4
VNAMESECURE.COM
p223
sa(dp224
g2
I0
sg3
I6
sg4
VESTRATEGIAS WEBSITE S.L.
p225
sa(dp226
g2
I0
sg3
I1
sg4
VOWN IDENTITY, INC
p227
sa(dp228
g2
I0
sg3
I1
sg4
VFUJIAN DOMAINS, INC.
p229
sa(dp230
g2
I0
sg3
I8
sg4
VALPNAMES LIMITED
p231
sa(dp232
g2
I0
sg3
I30
sg4
VEVERYONE'S INTERNET LTD.
p233
sa(dp234
g2
I0
sg3
I1
sg4
VCHRISTIAN INVESTMENTS LLC
p235
sa(dp236
g2
I0
sg3
I121
sg4
VPDR Ltd. d/b/a PublicDomainRegistry.com
p237
sa(dp238
g2
I0
sg3
I2
sg4
VAscio Technologies, Inc
p239
sa(dp240
g2
I10
sg3
I152
sg4
VUNIREGISTRAR CORP
p241
sa(dp242
g2
I0
sg3
I370
sg4
VASCIO TECHNOLOGIES, INC. DANMARK - FILIAL AF ASCIO TECHNOLOGIES, INC. USA
p243
sa(dp244
g2
I0
sg3
I5
sg4
VDNC Holdings, Inc.
p245
sa(dp246
g2
I0
sg3
I42
sg4
VPLANETDOMAIN PTY LTD
p247
sa(dp248
g2
I0
sg3
I1
sg4
VUDAMAIN.COM LLC
p249
sa(dp250
g2
I0
sg3
I2
sg4
VSIBERNAME.COM INC.
p251
sa(dp252
g2
I0
sg3
I5
sg4
VDomainwards.com LLC
p253
sa(dp254
g2
I2
sg3
I643
sg4
VHICHINA ZHICHENG TECHNOLOGY LIMITED
p255
sa(dp256
g2
I0
sg3
I1
sg4
VATOMICDOMAINNAMES.COM LLC
p257
sa(dp258
g2
I0
sg3
I10
sg4
VVOLUSION, INC.
p259
sa(dp260
g2
I0
sg3
I1
sg4
VEPAG Domainservices GmbH
p261
sa(dp262
g2
I0
sg3
I106
sg4
VVAUTRON RECHENZENTRUM AG
p263
sa(dp264
g2
I0
sg3
I40
sg4
VNETWORK SOLUTIONS, LLC.
p265
sa(dp266
g2
I0
sg3
I3
sg4
VTURNCOMMERCE, INC. DBA NAMEBRIGHT.COM
p267
sa(dp268
g2
I0
sg3
I56
sg4
V101DOMAIN GRS LIMITED
p269
sa(dp270
g2
I0
sg3
I8
sg4
VDREAMHOST, LLC
p271
sa(dp272
g2
I0
sg3
I1
sg4
VIn2net Network Inc.
p273
sa(dp274
g2
I2
sg3
I231
sg4
VFBS INC.
p275
sa(dp276
g2
I0
sg3
I3
sg4
VNetowl, Inc.
p277
sa(dp278
g2
I0
sg3
I1
sg4
VTECNOCRATICA CENTRO DE DATOS, S.L.
p279
sa(dp280
g2
I0
sg3
I9
sg4
VZNET TECHNOLOGIES PVT LTD. D/B/A LEMONREGISTRY.COM
p281
sa(dp282
g2
I0
sg3
I1
sg4
VDropCatch.com 540 LLC
p283
sa(dp284
g2
I0
sg3
I2
sg4
VNameForward LLC
p285
sa(dp286
g2
I0
sg3
I44
sg4
VONLINE SAS
p287
sa(dp288
g2
I0
sg3
I1
sg4
V1 API GMBH
p289
sa(dp290
g2
I0
sg3
I2
sg4
VNOMINALIA INTERNET S.L.
p291
sa(dp292
g2
I0
sg3
I1
sg4
VNAMEKING, INC.
p293
sa(dp294
g2
I1
sg3
I2
sg4
VGO FRANCE DOMAINS INC
p295
sa(dp296
g2
I0
sg3
I4
sg4
VPLANETHOSTER INC.
p297
sa(dp298
g2
I0
sg3
I1
sg4
VDropCatch.com 881 LLC
p299
sa(dp300
g2
I0
sg3
I5
sg4
V35 TECHNOLOGY CO., LTD.
p301
sa(dp302
g2
I0
sg3
I1
sg4
VAnnam, LLC
p303
sa(dp304
g2
I0
sg3
I1
sg4
VPRESIDENTIALDOMAINS LLC
p305
sa(dp306
g2
I0
sg3
I83
sg4
VTLDS INC.
p307
sa(dp308
g2
I0
sg3
I34
sg4
VARSYS INTERNET SL DBA NICLINE.COM
p309
sa(dp310
g2
I0
sg3
I3
sg4
VCSC CORPORATE DOMAINS, INC.
p311
sa(dp312
g2
I1
sg3
I599
sg4
VKEY-SYSTEMS GMBH
p313
sa(dp314
g2
I0
sg3
I2
sg4
VHosting Concepts B.V. d/b/a Openprovider
p315
sa(dp316
g2
I0
sg3
I2
sg4
VZoomRegistrar LLC
p317
sa(dp318
g2
I1
sg3
I44
sg4
VEPIK, INC.
p319
sa(dp320
g2
I0
sg3
I1
sg4
VDropCatch.com 808 LLC
p321
sa(dp322
g2
I0
sg3
I11
sg4
VEASYSPACE LTD.
p323
sa(dp324
g2
I0
sg3
I16
sg4
VSHANGHAI MEICHENG TECHNOLOGY INFORMATION DEVELOPMENT CO., LTD.
p325
sa(dp326
g2
I0
sg3
I5
sg4
VDINAHOSTING SL
p327
sa(dp328
g2
I0
sg3
I7
sg4
VRegistrar of domain names REG.RU LLC
p329
sa(dp330
g2
I2
sg3
I1231
sg4
VOVH SARL
p331
sa(dp332
g2
I0
sg3
I2
sg4
VNameStrategies LLC
p333
sa(dp334
g2
I0
sg3
I1
sg4
VEUROPEANCONNECTIONONLINE.COM LLC
p335
sa(dp336
g2
I0
sg3
I7
sg4
VBB ONLINE LTD
p337
sa(dp338
g2
I0
sg3
I3
sg4
VAmazon Registrar, Inc.
p339
sa(dp340
g2
I0
sg3
I2
sg4
VCJSC REGISTRAR R01
p341
sa(dp342
g2
I0
sg3
I6
sg4
VNet 4 India Limited
p343
sa(dp344
g2
I0
sg3
I3
sg4
VGUANGZHOU EHOST TECH. CO. LTD.
p345
sa(dp346
g2
I0
sg3
I5
sg4
VGO MONTENEGRO DOMAINS, LLC
p347
sa(dp348
g2
I0
sg3
I1
sg4
VMAFF AVENUE, INC.
p349
sa(dp350
g2
I0
sg3
I6
sg4
VProfileBuilder.com LLC
p351
sa(dp352
g2
I0
sg3
I3
sg4
VALANTRON BLTD
p353
sa(dp354
g2
I0
sg3
I3
sg4
VGO AUSTRALIA DOMAINS, LLC
p355
sa(dp356
g2
I0
sg3
I25
sg4
VDELUXE SMALL BUSINESS SALES, INC. D/B/A APLUS.NET
p357
sa(dp358
g2
I0
sg3
I1
sg4
VNAMESTRATEGIES LLC
p359
sa(dp360
g2
I0
sg3
I1
sg4
VDropCatch.com 528 LLC
p361
sa(dp362
g2
I0
sg3
I132
sg4
VWEB COMMERCE COMMUNICATIONS, LTD.
p363
sa(dp364
g2
I0
sg3
I2
sg4
VCANYON GATE HOLDINGS LLC
p365
sa(dp366
g2
I0
sg3
I1
sg4
VNameJolt.com LLC
p367
sa(dp368
g2
I0
sg3
I1
sg4
VNAMELING.COM LLC
p369
sa(dp370
g2
I0
sg3
I1
sg4
VNAMEKING.COM, INC.
p371
sa(dp372
g2
I0
sg3
I22
sg4
VYESNIC CO., LTD.
p373
sa(dp374
g2
I0
sg3
I1
sg4
VNetregistry Pty Ltd
p375
sa(dp376
g2
I0
sg3
I142
sg4
VCRAZY DOMAINS FZ-LLC
p377
sa(dp378
g2
I0
sg3
I1
sg4
VJIANGSU BANGNING SCIENCE & TECHNOLOGY CO. LTD
p379
sa(dp380
g2
I0
sg3
I267
sg4
VGANDI SAS
p381
sa(dp382
g2
I0
sg3
I1
sg4
VWEB INFINITY INC.
p383
sa(dp384
g2
I0
sg3
I2
sg4
V2030138 ONTARIO INC. DBA NAMESBEYOND.COM AND DBA GOODLUCKDOMAIN.COM
p385
sa(dp386
g2
I0
sg3
I2
sg4
V1 ENAME CO
p387
sa(dp388
g2
I0
sg3
I1
sg4
VDropCatch.com 793 LLC
p389
sa(dp390
g2
I0
sg3
I34
sg4
VEURODNS SA
p391
sa(dp392
g2
I0
sg3
I75
sg4
VHOSTING CONCEPTS B.V. D/B/A OPENPROVIDER
p393
sa(dp394
g2
I0
sg3
I2
sg4
VPSI-JAPAN, INC.
p395
sa(dp396
g2
I0
sg3
I1
sg4
VDropCatch.com 473 LLC
p397
sa(dp398
g2
I0
sg3
I1
sg4
VNEUDOMAIN LLC
p399
sa(dp400
g2
I0
sg3
I13
sg4
VDANDOMAIN A/S
p401
sa(dp402
g2
I0
sg3
I15
sg4
VNAMEBAY SAM
p403
sa(dp404
g2
I0
sg3
I60
sg4
VDOMENESHOP AS DBA DOMAINNAMESHOP.COM
p405
sa(dp406
g2
I0
sg3
I1
sg4
VTPP DOMAINS DBA TPP INTERNET
p407
sa(dp408
g2
I1
sg3
I42
sg4
VINAMES CO. LTD.
p409
sa(dp410
g2
I0
sg3
I1
sg4
VAccentDomains LLC
p411
sa(dp412
g2
I0
sg3
I1
sg4
VDropCatch.com 928 LLC
p413
sa(dp414
g2
I0
sg3
I20
sg4
VPT ARDH GLOBAL INDONESIA
p415
sa(dp416
g2
I0
sg3
I7
sg4
VGO AUSTRALIA DOMAINS INC
p417
sa(dp418
g2
I0
sg3
I1
sg4
VDROPCATCH.COM 905 LLC
p419
sa(dp420
g2
I0
sg3
I40
sg4
VWILD WEST DOMAINS, LLC
p421
sa(dp422
g2
I0
sg3
I7
sg4
VTHE REGISTRY AT INFO AVENUE
p423
sa(dp424
g2
I2
sg3
I367
sg4
VUDOMAINNAME.COM LLC
p425
sa(dp426
g2
I0
sg3
I1
sg4
VDropCatch.com 710 LLC
p427
sa(dp428
g2
I0
sg3
I3
sg4
VWEB DRIVE LTD.
p429
sa(dp430
g2
I0
sg3
I1
sg4
VKOREACENTER.COM CO., LTD
p431
sa(dp432
g2
I5
sg3
I17184
sg4
VGMO INTERNET, INC. D/B/A ONAMAE.COM
p433
sa(dp434
g2
I0
sg3
I2
sg4
Vunited domains AG
p435
sa(dp436
g2
I0
sg3
I1
sg4
VVISUALNAMES LLC
p437
sa(dp438
g2
I0
sg3
I1
sg4
VDOMAINSOFCOURSE.COM LLC
p439
sa(dp440
g2
I0
sg3
I11
sg4
VName.com, Inc.
p441
sa(dp442
g2
I0
sg3
I1
sg4
VWeb4Africa Inc.
p443
sa(dp444
g2
I0
sg3
I1
sg4
VDomainGetter LLC
p445
sa(dp446
g2
I0
sg3
I26
sg4
VDOMAINCONTEXT, INC.
p447
sa(dp448
g2
I0
sg3
I6
sg4
VFIRSTSERVER, INC.
p449
sa(dp450
g2
I0
sg3
I1
sg4
VBULLRUNDOMAINS.COM LLC
p451
sa(dp452
g2
I0
sg3
I297
sg4
VPSI USA
p453
sa(dp454
g2
I0
sg3
I1
sg4
VWEBNAMES.CA INC
p455
sa(dp456
g2
I0
sg3
I1
sg4
VBETTERTHANAVERAGEDOMAINS.COM LLC
p457
sa(dp458
g2
I0
sg3
I3
sg4
VVISESH INFOTECNICS LTD. D/B/A SIGNDOMAINS.COM
p459
sa(dp460
g2
I0
sg3
I1
sg4
VNET TUNER CORP. DBA WEBMASTERS.COM
p461
sa(dp462
g2
I0
sg3
I12
sg4
VDYNADOT, LLC
p463
sa(dp464
g2
I0
sg3
I1
sg4
VDropCatch.com 862 LLC
p465
sa(dp466
g2
I0
sg3
I6
sg4
VFABULOUS.COM PTY LTD.
p467
sa(dp468
g2
I0
sg3
I3
sg4
VVARIOMEDIA AG DBA PUREDOMAIN.COM
p469
sa(dp470
g2
I0
sg3
I1
sg4
VFUNPEAS MEDIA VENTURES, LLC
p471
sa(dp472
g2
I0
sg3
I50
sg4
VINTERNETWORX LTD. & CO. KG
p473
sa(dp474
g2
I0
sg3
I1
sg4
VMISTERNIC LLC
p475
sa(dp476
g2
I0
sg3
I14
sg4
VVODIEN INTERNET SOLUTIONS PTE LTD
p477
sa(dp478
g2
I0
sg3
I1
sg4
VDropCatch.com 381 LLC
p479
sa(dp480
g2
I0
sg3
I7
sg4
VNAMESILO, LLC
p481
sa(dp482
g2
I0
sg3
I2
sg4
VActive Registrar, Inc
p483
sa(dp484
g2
I0
sg3
I7
sg4
V! ALOHANIC LLC
p485
sa(dp486
g2
I0
sg3
I2
sg4
VNET LOGISTICS PTY LTD
p487
sa(dp488
g2
I0
sg3
I34
sg4
VINTERNET INVEST, LTD.
p489
sa(dp490
g2
I0
sg3
I2
sg4
VDomainLadder LLC
p491
sa(dp492
g2
I0
sg3
I8
sg4
VMegazone Corp., dba HOSTING.KR
p493
sa(dp494
g2
I0
sg3
I57
sg4
VHOSTING UKRAINE LLC.
p495
sa(dp496
g2
I0
sg3
I13
sg4
VAB NAME ISP
p497
sa(dp498
g2
I0
sg3
I1
sg4
VDropCatch.com 966 LLC
p499
sa(dp500
g2
I0
sg3
I1
sg4
VDropCatch.com 850 LLC
p501
sa(dp502
g2
I0
sg3
I7
sg4
VOPENTLD B.V.
p503
sa(dp504
g2
I0
sg3
I1
sg4
VDropCatch.com 734 LLC
p505
sa(dp506
g2
I0
sg3
I4
sg4
VDotname Korea Corp
p507
sa(dp508
g2
I0
sg3
I1
sg4
VPaknic Private Limited
p509
sa(dp510
g2
I0
sg3
I1
sg4
VDOMAIN SUCCESS LLC
p511
sa(dp512
g2
I0
sg3
I1
sg4
VDOTARAI CO., LTD.
p513
sa(dp514
g2
I0
sg3
I2
sg4
VCV. Rumahweb Indonesia
p515
sa(dp516
g2
I0
sg3
I13
sg4
VSOLUCIONES CORPORATIVAS IP, SL
p517
sa(dp518
g2
I0
sg3
I6
sg4
VBizcn.com,Inc.
p519
sa(dp520
g2
I0
sg3
I2
sg4
VTRUNKOZ TECHNOLOGIES PVT LTD. D/B/A OWNREGISTRAR.COM
p521
sa(dp522
g2
I0
sg3
I8
sg4
VTOTAL WEB SOLUTIONS LIMITED TRADING AS TOTALREGISTRATIONS
p523
sa(dp524
g2
I0
sg3
I1
sg4
VTLDS, LLC DBA SRSPLUS
p525
sa(dp526
g2
I0
sg3
I1
sg4
VBlacknight Internet Solutions Ltd.
p527
sa(dp528
g2
I0
sg3
I1
sg4
VEurodns S.A.
p529
sa(dp530
g2
I0
sg3
I8
sg4
VDomainFalcon LLC
p531
sa(dp532
g2
I0
sg3
I2
sg4
VENCIRCA, INC.
p533
sa(dp534
g2
I0
sg3
I352
sg4
V1&1 INTERNET SE
p535
sa(dp536
g2
I0
sg3
I42
sg4
VTPP WHOLESALE PTY LTD.
p537
sa(dp538
g2
I0
sg3
I1
sg4
VTop Pick Names LLC
p539
sa(dp540
g2
I0
sg3
I7
sg4
VGabia, Inc.
p541
sa(dp542
g2
I0
sg3
I1
sg4
VDomainCreek LLC
p543
sa(dp544
g2
I0
sg3
I1
sg4
VDYNADOT12 LLC
p545
sa(dp546
g2
I0
sg3
I1
sg4
VVICTORYNAMES LLC
p547
sa(dp548
g2
I0
sg3
I2
sg4
VINSTRA CORPORATION PTY, LTD.
p549
sa(dp550
g2
I0
sg3
I2
sg4
VDropCatch.com 814 LLC
p551
sa(dp552
g2
I0
sg3
I21
sg4
VERANET INTERNATIONAL LIMITED
p553
sa(dp554
g2
I0
sg3
I1
sg4
VUPPERLINK LIMITED
p555
sa(dp556
g2
I0
sg3
I3
sg4
V123-REG LIMITED
p557
sa(dp558
g2
I0
sg3
I9
sg4
VJIANGSU BANGNING SCIENCE & TECHNOLOGY CO. LTD.
p559
sa(dp560
g2
I0
sg3
I1
sg4
VANESSIA INC.
p561
sa(dp562
g2
I0
sg3
I5
sg4
VBLACKNIGHT INTERNET SOLUTIONS LTD.
p563
sa(dp564
g2
I0
sg3
I1
sg4
VREBEL.COM CORP.
p565
sa(dp566
g2
I0
sg3
I1
sg4
VDOMAIN LOCALE, LLC
p567
sa(dp568
g2
I0
sg3
I38
sg4
VLIQUIDNET LTD.
p569
sa(dp570
g2
I0
sg3
I3
sg4
VDomainHood LLC
p571
sa(dp572
g2
I0
sg3
I1
sg4
VREGISTRATION TECHNOLOGIES, INC.
p573
sa(dp574
g2
I0
sg3
I3
sg4
VNUXIT
p575
sa(dp576
g2
I0
sg3
I2
sg4
VLEATHERNECKDOMAINS.COM, LLC
p577
sa(dp578
g2
I0
sg3
I2
sg4
VDOMAIN LANDING ZONE LLC
p579
sa(dp580
g2
I0
sg3
I1
sg4
VSynergy Wholesale
p581
sa(dp582
g2
I0
sg3
I22
sg4
VDYNAMIC NETWORK SERVICES, INC.
p583
sa(dp584
g2
I0
sg3
I1
sg4
VDropCatch.com 375 LLC
p585
sa(dp586
g2
I1
sg3
I932
sg4
V22NET, INC.
p587
sa(dp588
g2
I0
sg3
I25
sg4
VNAMESECURE.COM, INC.
p589
sa(dp590
g2
I0
sg3
I85
sg4
VNICS TELEKOMUNIKASYON TICARET LTD. STI.
p591
sa(dp592
g2
I0
sg3
I193
sg4
VCORPORATE DOMAINS, INC.
p593
sa(dp594
g2
I0
sg3
I65
sg4
VTLD REGISTRAR SOLUTIONS LTD.
p595
sa(dp596
g2
I0
sg3
I1
sg4
VDROPCATCH.COM 575 LLC
p597
sa(dp598
g2
I0
sg3
I7
sg4
VTHE REGISTRAR COMPANY B.V.
p599
sa(dp600
g2
I0
sg3
I7
sg4
Vacens Technologies, S.L.U.
p601
sa(dp602
g2
I0
sg3
I1
sg4
VTREASURE TROVE DOMAINS LLC
p603
sa(dp604
g2
I0
sg3
I100
sg4
VDOMAIN PEOPLE
p605
sa(dp606
g2
I0
sg3
I11
sg4
VARGO TECHNOLOGIES LLC
p607
sa(dp608
g2
I1
sg3
I55
sg4
VEPAG DOMAINSERVICES GMBH
p609
sa(dp610
g2
I0
sg3
I6
sg4
VWEBNAMES.CA INC.
p611
sa(dp612
g2
I0
sg3
I21
sg4
VNET 4 INDIA LIMITED
p613
sa(dp614
g2
I0
sg3
I1
sg4
VENTORNO DIGITAL, S.A.
p615
sa(dp616
g2
I0
sg3
I24
sg4
VGKG NET, INC.
p617
sa(dp618
g2
I0
sg3
I11
sg4
VBigRock Solutions Ltd
p619
sa(dp620
g2
I1
sg3
I24
sg4
VURL SOLUTIONS INC.
p621
sa(dp622
g2
I0
sg3
I1
sg4
VPlanetHoster
p623
sa(dp624
g2
I0
sg3
I2
sg4
VFREESTYLE NAME HOLDINGS INC.
p625
sa(dp626
g2
I0
sg3
I1
sg4
VDropCatch.com 895 LLC
p627
sa(dp628
g2
I1
sg3
I1000
sg4
VMESH DIGITAL LIMITED
p629
sa(dp630
g2
I0
sg3
I15
sg4
VREBEL.CA CORP.
p631
sa(dp632
g2
I0
sg3
I743
sg4
VGODADDY.COM, LLC
p633
sa(dp634
g2
I18
sg3
I4098
sg4
VOURDOMAINS LIMITED
p635
sa(dp636
g2
I1
sg3
I8
sg4
VNEUSTAR SPECIAL PROJECTS
p637
sa(dp638
g2
I0
sg3
I1
sg4
VWhatIsYourDomain LLC
p639
sa(dp640
g2
I0
sg3
I1
sg4
VNamePal.com #8022
p641
sa(dp642
g2
I0
sg3
I1
sg4
VSiliconHouse.Net Pvt. Ltd.
p643
sa(dp644
g2
I0
sg3
I68
sg4
VCOREHUB, S.R.L.
p645
sa(dp646
g2
I6
sg3
I71
sg4
VMAFF INC.
p647
sa(dp648
g2
I0
sg3
I5
sg4
VDOMAINNAME, INC.
p649
sa(dp650
g2
I0
sg3
I11
sg4
VPAPAKI LTD.
p651
sa(dp652
g2
I0
sg3
I1
sg4
VNameling.com LLC
p653
sa(dp654
g2
I0
sg3
I5
sg4
VREALTIME REGISTER BV
p655
sa(dp656
g2
I0
sg3
I1
sg4
VNOTSOFAMOUSNAMES.COM LLC
p657
sa(dp658
g2
I0
sg3
I4
sg4
VDomainTact LLC
p659
sa(dp660
g2
I0
sg3
I1
sg4
VIP Mirror Pte Ltd
p661
sa(dp662
g2
I0
sg3
I2
sg4
VInstra Corporation Pty Ltd.
p663
sa(dp664
g2
I0
sg3
I11
sg4
VGLOBAL DOMAINS INTERNATIONAL, INC. DBA DOMAINCOSTCLUB.COM
p665
sa(dp666
g2
I0
sg3
I1
sg4
VDropCatch.com 595 LLC
p667
sa(dp668
g2
I0
sg3
I2
sg4
VUNIVERSO ONLINE S/A (UOL)
p669
sa(dp670
g2
I1
sg3
I232
sg4
VINTERNET DOMAIN SERVICE BS CORP
p671
sa(dp672
g2
I0
sg3
I1
sg4
VReg2C.com Inc.
p673
sa(dp674
g2
I0
sg3
I1
sg4
VDomaininfo AB
p675
sa(dp676
g2
I0
sg3
I545
sg4
VDOMAIN.COM, LLC
p677
sa(dp678
g2
I6
sg3
I15673
sg4
VCHENGDU WEST DIMENSION DIGITAL TECHNOLOGY CO., LTD.
p679
sa(dp680
g2
I0
sg3
I1
sg4
VDropCatch.com 435 LLC
p681
sa(dp682
g2
I0
sg3
I3
sg4
VDOMAINWARDS.COM LLC
p683
sa(dp684
g2
I0
sg3
I21
sg4
VFastDomain Inc.
p685
sa(dp686
g2
I0
sg3
I101
sg4
VGUANGDONG NAISINIKE INFORMATION TECHNOLOGY CO LTD.
p687
sa(dp688
g2
I0
sg3
I1
sg4
VDropCatch.com 890 LLC
p689
sa(dp690
g2
I0
sg3
I19
sg4
VOMNIS NETWORKS, LLC.
p691
sa(dp692
g2
I0
sg3
I1
sg4
VGO CANADA DOMAINS INC
p693
sa(dp694
g2
I0
sg3
I1
sg4
VDROPCATCH.COM 704 LLC
p695
sa(dp696
g2
I1
sg3
I39
sg4
VTODAYNIC.COM, INC.
p697
sa(dp698
g2
I5
sg3
I847
sg4
VBIGROCK SOLUTIONS LTD.
p699
sa(dp700
g2
I0
sg3
I2
sg4
VINAMES CO., LTD.
p701
sa(dp702
g2
I0
sg3
I4
sg4
VLEXSYNERGY LIMITED
p703
sa(dp704
g2
I0
sg3
I21
sg4
VBINERO AB
p705
sa(dp706
g2
I0
sg3
I10
sg4
VLCN.COM LTD.
p707
sa(dp708
g2
I0
sg3
I1
sg4
VDropCatch.com 840 LLC
p709
sa(dp710
g2
I0
sg3
I1
sg4
VVodien Internet Solutions Pte Ltd
p711
sa(dp712
g2
I0
sg3
I3
sg4
VNOMINALIA INTERNET SL
p713
sa(dp714
g2
I0
sg3
I3
sg4
VBlastDomains LLC
p715
sa(dp716
g2
I0
sg3
I1
sg4
VDropCatch.com 359 LLC
p717
sa(dp718
g2
I0
sg3
I38
sg4
VBLUE RAZOR DOMAINS, INC.
p719
sa(dp720
g2
I0
sg3
I1
sg4
VDropCatch.com 610 LLC
p721
sa(dp722
g2
I0
sg3
I2
sg4
VDISCOUNT DOMAINS LTD
p723
sa(dp724
g2
I0
sg3
I1
sg4
VDOMAINSAREFOREVER.NET LLC
p725
sa(dp726
g2
I0
sg3
I1
sg4
VDOMREG LTD.
p727
sa(dp728
g2
I0
sg3
I6
sg4
VMelbourne IT Ltd
p729
sa(dp730
g2
I0
sg3
I93
sg4
VMARKMONITOR, INC.
p731
sa(dp732
g2
I0
sg3
I13
sg4
VCOMMUNI GAL COMMUNICATIONS LTD.
p733
sa(dp734
g2
I0
sg3
I1
sg4
VImperial Registrations, Inc
p735
sa(dp736
g2
I0
sg3
I6
sg4
VMIJN INTERNETOPLOSSING B.V.
p737
sa(dp738
g2
I0
sg3
I8
sg4
VDOMAIN THE NET TECHNOLOGIES, LTD.
p739
sa(dp740
g2
I0
sg3
I5
sg4
VSPOT DOMAIN LLC
p741
sa(dp742
g2
I0
sg3
I1
sg4
VDOMAINGETTER LLC
p743
sa(dp744
g2
I2
sg3
I231
sg4
VDYNADOT LLC
p745
sa(dp746
g2
I0
sg3
I1
sg4
VDropCatch.com 565 LLC
p747
sa(dp748
g2
I0
sg3
I1
sg4
VDROPCATCH.COM 909 LLC
p749
sa(dp750
g2
I0
sg3
I1
sg4
VPAKNIC LIMITED
p751
sa(dp752
g2
I0
sg3
I2
sg4
VNAMEJOLT.COM LLC
p753
sa(dp754
g2
I0
sg3
I9
sg4
VNOM-IQ LTD
p755
sa(dp756
g2
I0
sg3
I1
sg4
VFLAPPY DOMAIN, INC.
p757
sa(dp758
g2
I0
sg3
I1
sg4
VNEONIC OY
p759
sa(dp760
g2
I0
sg3
I5
sg4
VNETIM
p761
sa(dp762
g2
I0
sg3
I1
sg4
VNETDORM INC
p763
sa(dp764
g2
I0
sg3
I4
sg4
VWhois Networks Co., Ltd.
p765
sa(dp766
g2
I0
sg3
I4
sg4
VDomainLocal LLC
p767
sa(dp768
g2
I0
sg3
I37
sg4
VMISK.COM, INC.
p769
sa(dp770
g2
I0
sg3
I1
sg4
VDropCatch.com 663 LLC
p771
sa(dp772
g2
I0
sg3
I5
sg4
VNETPIA.COM, INC.
p773
sa(dp774
g2
I0
sg3
I9
sg4
VADVANCED INTERNET TECHNOLOGIES, INC.
p775
sa(dp776
g2
I0
sg3
I6
sg4
VABOVE.COM PTY LTD.
p777
sa(dp778
g2
I0
sg3
I1
sg4
VDropCatch.com 813 LLC
p779
sa(dp780
g2
I0
sg3
I119
sg4
VMELBOURNE IT LTD
p781
sa(dp782
g2
I0
sg3
I1
sg4
VNameTurn LLC
p783
sa(dp784
g2
I0
sg3
I1
sg4
VATLANTIC DOMAINS, LLC
p785
sa(dp786
g2
I0
sg3
I1
sg4
V0101 INTERNET INC.
p787
sa(dp788
g2
I0
sg3
I3
sg4
VDOMAINLOCAL LLC
p789
sa(dp790
g2
I0
sg3
I4
sg4
VDOTNAME KOREA CORP.
p791
sa(dp792
g2
I0
sg3
I7
sg4
VCPS-DATENSYSTEME GMBH
p793
sa(dp794
g2
I0
sg3
I1
sg4
VTURBONAMES LLC
p795
sa(dp796
g2
I1
sg3
I105
sg4
VREGTIME LTD.
p797
sa(dp798
g2
I0
sg3
I2
sg4
VDOTNAMED LLC
p799
sa(dp800
g2
I0
sg3
I2
sg4
VDomainCritics LLC
p801
sa(dp802
g2
I0
sg3
I2
sg4
VDomainAhead LLC
p803
sa(dp804
g2
I0
sg3
I2
sg4
VDinahosting s.l.
p805
sa(dp806
g2
I0
sg3
I4
sg4
VNORDNET
p807
sa(dp808
g2
I0
sg3
I417
sg4
VREGISTER.COM, INC.
p809
sa(dp810
g2
I0
sg3
I2
sg4
VLIQUIDNET Ltd.
p811
sa(dp812
g2
I0
sg3
I1
sg4
VDROPCATCH.COM 406 LLC
p813
sa(dp814
g2
I0
sg3
I1
sg4
VNAME FIND SOURCE LLC
p815
sa(dp816
g2
I0
sg3
I1
sg4
VZNet Technologies Pvt Ltd.
p817
sa(dp818
g2
I0
sg3
I1
sg4
VEVERYONES INTERNET, LTD. DBA SOFTLAYER
p819
sa(dp820
g2
I0
sg3
I50
sg4
VCV. JOGJACAMP
p821
sa(dp822
g2
I0
sg3
I1
sg4
VDOMAINSOFVALUE.COM LLC
p823
sa(dp824
g2
I0
sg3
I1
sg4
VLEDL.NET GMBH
p825
sa(dp826
g2
I0
sg3
I7
sg4
VDonDominio (SCIP)
p827
sa(dp828
g2
I0
sg3
I1
sg4
VCLOUDBREAKDOMAINS, LLC
p829
sa(dp830
g2
I0
sg3
I1
sg4
VDropCatch.com 553 LLC
p831
sa(dp832
g2
I0
sg3
I1
sg4
VKOREA SERVER HOSTING INC.
p833
sa(dp834
g2
I0
sg3
I20
sg4
VREBEL.COM CORP
p835
sa(dp836
g2
I0
sg3
I1
sg4
VGoDaddy.com, LLC
p837
sa(dp838
g2
I0
sg3
I2
sg4
VNameTell.com LLC
p839
sa(dp840
g2
I0
sg3
I1
sg4
VRegister4Less, Inc.
p841
sa(dp842
g2
I0
sg3
I5
sg4
VWEBFUSION LIMITED
p843
sa(dp844
g2
I0
sg3
I6
sg4
VREGISTER.CA
p845
sa(dp846
g2
I0
sg3
I8
sg4
VWEBCC
p847
sa(dp848
g2
I0
sg3
I3
sg4
V007 NAMES, INC.
p849
sa(dp850
g2
I0
sg3
I3
sg4
VHOSTEUR SARL
p851
sa(dp852
g2
I0
sg3
I4
sg4
VONLINE NAME SERVICES INC.
p853
sa(dp854
g2
I0
sg3
I2
sg4
VINTERDOMINIOS, INC.
p855
sa(dp856
g2
I1
sg3
I64
sg4
VXIN NET CORP
p857
sa(dp858
g2
I0
sg3
I12
sg4
VWEB4AFRICA INC.
p859
sa(dp860
g2
I0
sg3
I1
sg4
VDROPCATCH.COM 460 LLC
p861
sa(dp862
g2
I0
sg3
I24
sg4
VACENS TECHNOLOGIES, S.L.U.
p863
sa(dp864
g2
I0
sg3
I1
sg4
VMat Bao Trading & Service Company Limited dba Mat Bao
p865
sa(dp866
g2
I0
sg3
I1
sg4
VADDRESS CREATION
p867
sa(dp868
g2
I0
sg3
I1
sg4
VNAMESAY LLC
p869
sa(dp870
g2
I0
sg3
I1
sg4
VDotNamed LLC
p871
sa(dp872
g2
I1
sg3
I24
sg4
VDOMAININFO AB
p873
sa(dp874
g2
I0
sg3
I4
sg4
VPlanetDomain Pty Ltd
p875
sa(dp876
g2
I0
sg3
I190
sg4
VLAUNCHPAD.COM INC.
p877
sa(dp878
g2
I0
sg3
I1
sg4
VDropCatch.com 615 LLC
p879
sa(dp880
g2
I0
sg3
I115
sg4
VREGISTER .IT SPA
p881
sa(dp882
g2
I5
sg3
I1933
sg4
VTUCOWS DOMAINS INC.
p883
sa(dp884
g2
I0
sg3
I24
sg4
VOnlinenic Inc
p885
sa(dp886
g2
I0
sg3
I1
sg4
VSW HOSTING & COMMUNICATIONS TECHNOLOGIES, S.L.
p887
sa(dp888
g2
I1
sg3
I68
sg4
VDNC HOLDINGS, INC.
p889
sa(dp890
g2
I0
sg3
I75
sg4
VGABIA INC.
p891
sa(dp892
g2
I0
sg3
I9
sg4
VDIAMATRIX C.C.
p893
sa(dp894
g2
I0
sg3
I1
sg4
VDropCatch.com 1045 LLC
p895
sa(dp896
g2
I0
sg3
I2
sg4
VAerotek Bilisim Taahut Sanayi Ve Ticaret Ltd Sti.
p897
sa(dp898
g2
I0
sg3
I25
sg4
VPHEENIX, INC.
p899
sa(dp900
g2
I0
sg3
I14
sg4
VIN2NET NETWORK INC.
p901
sa(dp902
g2
I0
sg3
I1
sg4
VTLD REGISTRAR SOLUTIONS LTD
p903
sa(dp904
g2
I0
sg3
I8
sg4
VNHAN HOA SOFTWARE COMPANY LTD.
p905
sa(dp906
g2
I2
sg3
I233
sg4
VREALTIME REGISTER B.V.
p907
sa(dp908
g2
I0
sg3
I1
sg4
VENOM457 INCORPORATED
p909
sa(dp910
g2
I0
sg3
I1
sg4
VSITEFRENZY.COM LLC
p911
sa(dp912
g2
I0
sg3
I1
sg4
VAcquiredNames LLC
p913
sa(dp914
g2
I0
sg3
I1
sg4
VDropCatch.com 607 LLC
p915
sa(dp916
g2
I0
sg3
I1
sg4
VDropCatch.com 452 LLC
p917
sa(dp918
g2
I0
sg3
I1
sg4
VGoogle Inc.
p919
sa(dp920
g2
I40
sg3
I11918
sg4
VGODADDY.COM, INC.
p921
sa(dp922
g2
I0
sg3
I1
sg4
VDROPCATCH.COM 762 LLC
p923
sa(dp924
g2
I0
sg3
I1
sg4
VGLOBAL VILLAGE GMBH
p925
sa(dp926
g2
I0
sg3
I1
sg4
VDROPCATCH.COM 947 LLC
p927
sa(dp928
g2
I0
sg3
I1
sg4
VXIAMEN CHINASOURCE INTERNET
p929
sa(dp930
g2
I0
sg3
I259
sg4
VONLINENIC, INC. D/B/A CHINA-CHANNEL.COM
p931
sa(dp932
g2
I0
sg3
I33
sg4
VREG2C.COM INC.
p933
sa(dp934
g2
I0
sg3
I1
sg4
VCROSSCERT, INC. DBA COSMOTOWN, INC.
p935
sa(dp936
g2
I0
sg3
I1
sg4
VProNamed LLC
p937
sa(dp938
g2
I0
sg3
I17
sg4
VMEGAZONE CORP.
p939
sa(dp940
g2
I0
sg3
I1
sg4
VDOMAIN MANTRA, INC
p941
sa(dp942
g2
I0
sg3
I1
sg4
VINTERNETTERS LIMITED
p943
sa(dp944
g2
I0
sg3
I11
sg4
VREGISTER4LESS, INC.
p945
sa(dp946
g2
I0
sg3
I83
sg4
VNETOWL, INC.
p947
sa(dp948
g2
I0
sg3
I1
sg4
VNAMECHILD LLC
p949
sa(dp950
g2
I0
sg3
I26
sg4
VBIZCN.COM, INC.
p951
sa(dp952
g2
I0
sg3
I1
sg4
VXIAMEN CHINASOURCE INTERNET SERVICE CO., LTD.
p953
sa(dp954
g2
I0
sg3
I2
sg4
VeName Technology Co.,Ltd.
p955
sa(dp956
g2
I0
sg3
I3
sg4
VSAFEBRANDS SAS
p957
sa(dp958
g2
I0
sg3
I1
sg4
VHUMEIA CORPORATION
p959
sa(dp960
g2
I0
sg3
I23
sg4
VSHINJIRU MSC SDN BHD
p961
sa(dp962
g2
I0
sg3
I9
sg4
VNORDREG AB
p963
sa(dp964
g2
I0
sg3
I11
sg4
VNICS TELEKOMUNIKASYON TICARET LTD.STI.
p965
sa(dp966
g2
I0
sg3
I11
sg4
VOVH, SAS
p967
sa(dp968
g2
I0
sg3
I1
sg4
VWeb Werks India Pvt. Ltd. D/B/A ZenRegistry.com
p969
sa(dp970
g2
I0
sg3
I1
sg4
VDOMAINHYSTERIA.COM LLC
p971
sa(dp972
g2
I0
sg3
I1
sg4
VDropCatch.com 783 LLC
p973
sa(dp974
g2
I0
sg3
I1
sg4
VGREENZONEDOMAINS INC.
p975
sa(dp976
g2
I0
sg3
I1
sg4
VDropCatch.com 530 LLC
p977
sa(dp978
g2
I0
sg3
I1
sg4
VPDXPRIVATENAMES.COM LLC
p979
sa(dp980
g2
I0
sg3
I1
sg4
VFREE DIVE DOMAINS, LLC
p981
sa(dp982
g2
I0
sg3
I7
sg4
VVITALWERKS INTERNET SOLUTIONS, LLC
p983
sa(dp984
g2
I0
sg3
I2
sg4
VWEB WERKS INDIA PVT. LTD D/B/A ZENREGISTRY.COM
p985
sa(dp986
g2
I0
sg3
I13
sg4
VIP MIRROR PTE LTD
p987
sa(dp988
g2
I0
sg3
I1
sg4
VNameWeb BVBA
p989
sa(dp990
g2
I0
sg3
I1
sg4
VINIC GMBH
p991
sa(dp992
g2
I0
sg3
I1
sg4
VHANGANG SYSTEMS,INC. D/B/A DOREGI.COM
p993
sa(dp994
g2
I0
sg3
I4
sg4
VDEERWOOD INVESTMENTS LLC
p995
sa(dp996
g2
I0
sg3
I1
sg4
VDOMAIN NAME ORIGIN, LLC
p997
sa(dp998
g2
I0
sg3
I8
sg4
VXINNET TECHNOLOGY CORPORATION
p999
sa(dp1000
g2
I0
sg3
I3
sg4
VEstrategias WebSite S.L.
p1001
sa(dp1002
g2
I0
sg3
I2
sg4
VNetArt Sp. z o.o.
p1003
sa(dp1004
g2
I0
sg3
I1
sg4
VCURVEBALL DOMAINS LLC
p1005
sa(dp1006
g2
I0
sg3
I1
sg4
VNamesHere LLC
p1007
sa(dp1008
g2
I0
sg3
I2
sg4
VPEARLNAMINGSERVICE.COM LLC
p1009
sa(dp1010
g2
I0
sg3
I72
sg4
VUNITED-DOMAINS AG
p1011
sa(dp1012
g2
I0
sg3
I1
sg4
VTheNameCo LLC
p1013
sa(dp1014
g2
I0
sg3
I2
sg4
VNetEarth One, Inc.
p1015
sa(dp1016
g2
I0
sg3
I12
sg4
VNAMEWEB BVBA
p1017
sa(dp1018
g2
I0
sg3
I1
sg4
VLIGNE WEB SERVICES SARL DBA LWS
p1019
sa(dp1020
g2
I0
sg3
I6
sg4
VFREEPARKING DOMAIN REGISTRARS INC
p1021
sa(dp1022
g2
I0
sg3
I27
sg4
VSAFENAMES LTD
p1023
sa(dp1024
g2
I0
sg3
I1
sg4
VDropCatch.com 903 LLC
p1025
sa(dp1026
g2
I0
sg3
I56
sg4
VGRANSY S.R.O DBA SUBREG.CZ
p1027
sa(dp1028
g2
I0
sg3
I6
sg4
VINTERNATIONAL REGISTRATION SERVICES INC.
p1029
sa(dp1030
g2
I0
sg3
I13
sg4
VARSYS INTERNET, S.L. D/B/A NICLINE.COM
p1031
sa(dp1032
g2
I0
sg3
I186
sg4
V1API GMBH
p1033
sa(dp1034
g2
I0
sg3
I2
sg4
VAnnulet, Inc
p1035
sa(dp1036
g2
I0
sg3
I28
sg4
VSYNERGY WHOLESALE PTY LTD
p1037
sa(dp1038
g2
I0
sg3
I1
sg4
VDROPCATCH.COM 405 LLC
p1039
sa(dp1040
g2
I0
sg3
I1
sg4
VDROPCATCH.COM 485 LLC
p1041
sa(dp1042
g2
I0
sg3
I1
sg4
VP.A. Viet Nam Company Limited
p1043
sa(dp1044
g2
I1
sg3
I325
sg4
VGOOGLE INC.
p1045
sa(dp1046
g2
I0
sg3
I3
sg4
VTradeNamed LLC
p1047
sa(dp1048
g2
I0
sg3
I3
sg4
VCSL Computer Service Langenbach GmbH d/b/a joker.com
p1049
sa(dp1050
g2
I0
sg3
I1
sg4
VLCN.com Ltd
p1051
sa(dp1052
g2
I22
sg3
I1891
sg4
VENAME TECHNOLOGY CO., LTD.
p1053
sa(dp1054
g2
I0
sg3
I2
sg4
VDomainSite, Inc.
p1055
sa(dp1056
g2
I0
sg3
I1
sg4
VALLEARTHDOMAINS.COM LLC
p1057
sa(dp1058
g2
I0
sg3
I16
sg4
VLaunchpad, Inc. (HostGator)
p1059
sa(dp1060
g2
I0
sg3
I85
sg4
VEVOPLUS LTD.
p1061
sa(dp1062
g2
I0
sg3
I3
sg4
VFreeparking Domain Registrars Inc
p1063
sa(dp1064
g2
I0
sg3
I2
sg4
VRegister.com, Inc.
p1065
sa(dp1066
g2
I0
sg3
I1
sg4
V35 TECHNOLOGY CO., LTD
p1067
sa(dp1068
g2
I0
sg3
I1
sg4
VSNOQULAMIEDOMAINS.COM LLC
p1069
sa(dp1070
g2
I0
sg3
I1
sg4
VHANGING CURVE DOMAINS LLC
p1071
sa(dp1072
g2
I0
sg3
I1
sg4
VREGISTRARDIRECT LLC
p1073
sa(dp1074
g2
I0
sg3
I3
sg4
VMarkMonitor, Inc.
p1075
sa(dp1076
g2
I0
sg3
I1
sg4
VICONICNAMES LLC
p1077
sa(dp1078
g2
I0
sg3
I1
sg4
VSibername Internet and Software Technologies Inc
p1079
sa(dp1080
g2
I0
sg3
I1
sg4
VDomainExtreme LLC
p1081
sa(dp1082
g2
I8
sg3
I1175
sg4
VWILD WEST DOMAINS, INC.
p1083
sa(dp1084
g2
I0
sg3
I3
sg4
VMOUNTAIN DOMAINS INC.
p1085
sa(dp1086
g2
I0
sg3
I135
sg4
VNETART SP Z O.O
p1087
sa(dp1088
g2
I0
sg3
I1
sg4
VDropCatch.com 918 LLC
p1089
sa(dp1090
g2
I0
sg3
I10
sg4
VKey-Systems GmbH
p1091
sa(dp1092
g2
I0
sg3
I1
sg4
VProtocol Internet Technology Limited t/a Hosting Ireland
p1093
sa(dp1094
g2
I0
sg3
I10
sg4
VPAIR NETWORKS INC.
p1095
sa(dp1096
g2
I0
sg3
I1
sg4
VPheenix 5, LLC
p1097
sa(dp1098
g2
I0
sg3
I12
sg4
VPARAGON INTERNET GROUP LTD T/A PARAGON NAMES
p1099
sa(dp1100
g2
I0
sg3
I2
sg4
VOmnis Network, LLC
p1101
sa(dp1102
g2
I0
sg3
I1
sg4
VFRENCH CONNEXION / DOMAINE.FR
p1103
sa(dp1104
g2
I0
sg3
I1
sg4
VNAMEPAL.COM #8004
p1105
sa(dp1106
g2
I0
sg3
I8
sg4
VINSTRA CORPORATION PTY LTD
p1107
sa(dp1108
g2
I0
sg3
I29
sg4
VFBS Inc.
p1109
sa(dp1110
g2
I0
sg3
I1
sg4
VBOUNCE PASS DOMAINS LLC
p1111
sa(dp1112
g2
I0
sg3
I1
sg4
VPINK ELEPHANT DOMAINS, LLC
p1113
sa(dp1114
g2
I0
sg3
I3
sg4
VEVOPLUS LTD
p1115
sa(dp1116
g2
I0
sg3
I1
sg4
VBlockHost LLC
p1117
sa(dp1118
g2
I0
sg3
I2
sg4
VDomainshype.com, Inc
p1119
sa.