(lp0
(VA.NS36.DE
p1
F0.10245901639344263
I9
tp2
a(VB.NS36.DE
p3
F0.10245901639344263
I9
tp4
a(VNS4.CSOF.NET
p5
F23.529411764705884
I8
tp6
a(VNS1.CSOF.NET
p7
F23.529411764705884
I8
tp8
a(VDNS1.NAME-SERVICES.COM
p9
F0.572737686139748
I5
tp10
a(VDNS2.NAME-SERVICES.COM
p11
F0.572737686139748
I5
tp12
a(VDNS4.NAME-SERVICES.COM
p13
F0.573394495412844
I5
tp14
a(VDNS3.NAME-SERVICES.COM
p15
F0.573394495412844
I5
tp16
a(VDNS5.NAME-SERVICES.COM
p17
F0.574052812858783
I5
tp18
a(VDNS1.REGWAY.COM
p19
F100.0
I3
tp20
a(VDNS4.REGWAY.COM
p21
F100.0
I3
tp22
a(VDNS2.REGWAY.COM
p23
F100.0
I3
tp24
a(VDNS3.REGWAY.COM
p25
F100.0
I3
tp26
a(VNS1.SHOPCO.COM
p27
F66.66666666666667
I2
tp28
a(VNS7.KODDOS.COM
p29
F100.0
I2
tp30
a(VNS09.DOMAINCONTROL.COM
p31
F20.0
I2
tp32
a(VNS10.DOMAINCONTROL.COM
p33
F20.0
I2
tp34
a(VNS2.NAMESELF.COM
p35
F25.0
I2
tp36
a(VNS2.SHOPCO.COM
p37
F66.66666666666667
I2
tp38
a(VNS64.DOMAINCONTROL.COM
p39
F0.273972602739726
I2
tp40
a(VNS1.IPAGE.COM
p41
F18.181818181818183
I2
tp42
a(VNS1.NAMESELF.COM
p43
F25.0
I2
tp44
a(VNS3.SHOPCO.COM
p45
F66.66666666666667
I2
tp46
a(VNS8.KODDOS.COM
p47
F100.0
I2
tp48
a(VNS2.IPAGE.COM
p49
F18.181818181818183
I2
tp50
a(VNS63.DOMAINCONTROL.COM
p51
F0.273972602739726
I2
tp52
a(VDNS1.REGISTRAR-SERVERS.COM
p53
F3.7037037037037037
I2
tp54
a(VDNS2.REGISTRAR-SERVERS.COM
p55
F3.7037037037037037
I2
tp56
a(VNS2.DNSMAN.PW
p57
F100.0
I1
tp58
a(VNS14.MIDPHASE.COM
p59
F100.0
I1
tp60
a(VNS2.KODDOS.COM
p61
F100.0
I1
tp62
a(VNS2DKY.NAME.COM
p63
F100.0
I1
tp64
a(VNS68.DOMAINCONTROL.COM
p65
F0.3952569169960474
I1
tp66
a(VNS19.DOMAINCONTROL.COM
p67
F0.4098360655737705
I1
tp68
a(VNS6.MONOVM.COM
p69
F100.0
I1
tp70
a(VDNS5.REGISTRAR-SERVERS.COM
p71
F3.125
I1
tp72
a(VN2.SINKHOLE.CH
p73
F100.0
I1
tp74
a(VDNS4.FASTDNS24.LINK
p75
F50.0
I1
tp76
a(VNS1.SMARTWEBSBD.COM
p77
F100.0
I1
tp78
a(VNS1.YNEWMEDIA.COM
p79
F100.0
I1
tp80
a(VNS2.INMOTIONHOSTING.COM
p81
F33.333333333333336
I1
tp82
a(VNS1.LWEGATECHHOSTING.COM
p83
F100.0
I1
tp84
a(VAD636824.BITCOIN-DNS.HOSTING
p85
F100.0
I1
tp86
a(VFREE1.GOOGIEHOST.COM
p87
F100.0
I1
tp88
a(VNS2.ADAGRUPWEBTASARIM.COM
p89
F50.0
I1
tp90
a(VNS1.FASTDNS.HOSTING
p91
F50.0
I1
tp92
a(VC358EA2D.BITCOIN-DNS.HOSTING
p93
F100.0
I1
tp94
a(VNS3.KODDOS.COM
p95
F100.0
I1
tp96
a(VNS8.COPAHOST.COM
p97
F100.0
I1
tp98
a(VNS3JKL.NAME.COM
p99
F100.0
I1
tp100
a(VADA.NS.CLOUDFLARE.COM
p101
F33.333333333333336
I1
tp102
a(VNS2.CCNTECHNOLOGIES.COM
p103
F100.0
I1
tp104
a(VNS1.MYHOSTCENTER.COM
p105
F100.0
I1
tp106
a(VNS1.GENIUS-GUARDS.COM
p107
F100.0
I1
tp108
a(VNS08.DOMAINCONTROL.COM
p109
F0.37735849056603776
I1
tp110
a(VNS1.IFASTNET4.ORG
p111
F50.0
I1
tp112
a(VNS2.LINEVAST.COM
p113
F100.0
I1
tp114
a(VNS67.DOMAINCONTROL.COM
p115
F0.3952569169960474
I1
tp116
a(VNS4022.HOSTGATOR.COM
p117
F50.0
I1
tp118
a(VNS28.DOMAINCONTROL.COM
p119
F0.40160642570281124
I1
tp120
a(VJUNE.NS.CLOUDFLARE.COM
p121
F100.0
I1
tp122
a(VNS2.SMARTWEBSBD.COM
p123
F100.0
I1
tp124
a(VNS1.SEPIAWEBHOSTING.COM
p125
F100.0
I1
tp126
a(VNS3.SINKHOLE.CH
p127
F2.380952380952381
I1
tp128
a(VUS81.HOSTBLAST.NET
p129
F100.0
I1
tp130
a(VNS1.KODDOS.COM
p131
F100.0
I1
tp132
a(VNS1.EBIZWAY.NET
p133
F100.0
I1
tp134
a(VNS8397.HOSTGATOR.COM
p135
F100.0
I1
tp136
a(VNS1.LINEVAST.COM
p137
F100.0
I1
tp138
a(VNS53.DOMAINCONTROL.COM
p139
F0.19569471624266144
I1
tp140
a(VN4.SINKHOLE.CH
p141
F100.0
I1
tp142
a(VFREE3.HOSTGUY.COM
p143
F100.0
I1
tp144
a(VNS49.DOMAINCONTROL.COM
p145
F3.8461538461538463
I1
tp146
a(VNS2.DOMAINS4BITCOINS-PARKING.COM
p147
F50.0
I1
tp148
a(VNS54.DOMAINCONTROL.COM
p149
F0.19569471624266144
I1
tp150
a(VNS3.FASTDNS.HOSTING
p151
F50.0
I1
tp152
a(VNS27.DOMAINCONTROL.COM
p153
F0.40160642570281124
I1
tp154
a(VNS7.COPAHOST.COM
p155
F100.0
I1
tp156
a(VNS2.GENIUS-GUARDS.COM
p157
F100.0
I1
tp158
a(VA8332F3A.BITCOIN-DNS.HOSTING
p159
F100.0
I1
tp160
a(VNS2.DOMAINCONTROL.PW
p161
F50.0
I1
tp162
a(VNS50.DOMAINCONTROL.COM
p163
F3.8461538461538463
I1
tp164
a(VNS4021.HOSTGATOR.COM
p165
F50.0
I1
tp166
a(VNS8082.HOSTGATOR.COM
p167
F100.0
I1
tp168
a(VNS1.CCNTECHNOLOGIES.COM
p169
F100.0
I1
tp170
a(VNS1.ADAGRUPWEBTASARIM.COM
p171
F50.0
I1
tp172
a(VNS8398.HOSTGATOR.COM
p173
F100.0
I1
tp174
a(VDNS3.REGISTRAR-SERVERS.COM
p175
F3.125
I1
tp176
a(VNS1.BHSERVERS.NET.IN
p177
F50.0
I1
tp178
a(VNS3.NAZWA.PL
p179
F1.1904761904761905
I1
tp180
a(VNS15.KEBIRHOST.COM
p181
F100.0
I1
tp182
a(VNS8081.HOSTGATOR.COM
p183
F100.0
I1
tp184
a(V1A7EA920.BITCOIN-DNS.HOSTING
p185
F100.0
I1
tp186
a(VNS8078.HOSTGATOR.COM
p187
F100.0
I1
tp188
a(VJEREMY.NS.CLOUDFLARE.COM
p189
F50.0
I1
tp190
a(VNS1.DOMAINS4BITCOINS-PARKING.COM
p191
F50.0
I1
tp192
a(VUS82.HOSTBLAST.NET
p193
F100.0
I1
tp194
a(VNS5.MONOVM.COM
p195
F100.0
I1
tp196
a(VSTVL113289.VENUS.OBOX-DNS.COM
p197
F50.0
I1
tp198
a(VNS1.DNSMAN.PW
p199
F100.0
I1
tp200
a(VNS2.LWEGATECHHOSTING.COM
p201
F100.0
I1
tp202
a(VNS2.BHSERVERS.NET.IN
p203
F50.0
I1
tp204
a(VNS20.DOMAINCONTROL.COM
p205
F0.4098360655737705
I1
tp206
a(VSTVL113289.MARS.OBOX-DNS.COM
p207
F50.0
I1
tp208
a(VNS15.MIDPHASE.COM
p209
F100.0
I1
tp210
a(VNS2.MYHOSTCENTER.COM
p211
F100.0
I1
tp212
a(VNS2.EBIZTERMINAL.COM
p213
F100.0
I1
tp214
a(VNS1.INMOTIONHOSTING.COM
p215
F100.0
I1
tp216
a(VN1.SINKHOLE.CH
p217
F100.0
I1
tp218
a(VNS3.LINEVAST.COM
p219
F100.0
I1
tp220
a(VDNS.FASTDNS24.COM
p221
F50.0
I1
tp222
a(VNS1.DOMAINCONTROL.PW
p223
F50.0
I1
tp224
a(VNS1KWY.NAME.COM
p225
F100.0
I1
tp226
a(VNS8.NLKODDOS.COM
p227
F100.0
I1
tp228
a(VNS1.LWEGATECH.BIZ
p229
F100.0
I1
tp230
a(VNS16.MIDPHASE.COM
p231
F100.0
I1
tp232
a(VDNS2.FASTDNS24.ORG
p233
F50.0
I1
tp234
a(VNS2.EBIZWAY.NET
p235
F100.0
I1
tp236
a(VNS4.SINKHOLE.CH
p237
F2.380952380952381
I1
tp238
a(VNS4.CNMSN.COM
p239
F100.0
I1
tp240
a(VNS2.MYTRAFFICMANAGEMENT.COM
p241
F50.0
I1
tp242
a(VSTVL113289.MERCURY.OBOX-DNS.COM
p243
F50.0
I1
tp244
a(VNS4HMP.NAME.COM
p245
F100.0
I1
tp246
a(VNS07.DOMAINCONTROL.COM
p247
F0.37735849056603776
I1
tp248
a(VSTVL113289.EARTH.OBOX-DNS.COM
p249
F50.0
I1
tp250
a(VNS1.NAZWA.PL
p251
F1.1627906976744187
I1
tp252
a(VNS4.KODDOS.COM
p253
F100.0
I1
tp254
a(VNS2.FASTDNS.HOSTING
p255
F50.0
I1
tp256
a(VNS2.SEPIAWEBHOSTING.COM
p257
F100.0
I1
tp258
a(VNS2.IFASTNET4.ORG
p259
F50.0
I1
tp260
a(VCNS47348.HOSTWINDSDNS.COM
p261
F100.0
I1
tp262
a(VNS8077.HOSTGATOR.COM
p263
F100.0
I1
tp264
a(VNS2.YNEWMEDIA.COM
p265
F100.0
I1
tp266
a(VFREE4.HOSTGUY.COM
p267
F100.0
I1
tp268
a(VCNS47349.HOSTWINDSDNS.COM
p269
F100.0
I1
tp270
a(VNS16.KEBIRHOST.COM
p271
F100.0
I1
tp272
a(VDNS3.FASTDNS24.EU
p273
F50.0
I1
tp274
a(VFREE2.GOOGIEHOST.COM
p275
F100.0
I1
tp276
a(VNS1.MYTRAFFICMANAGEMENT.COM
p277
F50.0
I1
tp278
a(VNS3.CNMSN.COM
p279
F100.0
I1
tp280
a(VBOYD.NS.CLOUDFLARE.COM
p281
F100.0
I1
tp282
a(VNS2.NAZWA.PL
p283
F1.1627906976744187
I1
tp284
a(VDNS4.REGISTRAR-SERVERS.COM
p285
F3.125
I1
tp286
a(VNS7.NLKODDOS.COM
p287
F100.0
I1
tp288
a(VN3.SINKHOLE.CH
p289
F100.0
I1
tp290
a(VNS1.EBIZTERMINAL.COM
p291
F100.0
I1
tp292
a(VNS2.LWEGATECH.BIZ
p293
F100.0
I1
tp294
a.