(lp0
(dp1
S'bad'
p2
I0
sS'good'
p3
I9
sS'registrar_name'
p4
VDIAMATRIX C.C.
p5
sa(dp6
g2
I0
sg3
I7
sg4
V! ALOHANIC LLC
p7
sa(dp8
g2
I0
sg3
I5
sg4
VDINAHOSTING SL
p9
sa(dp10
g2
I0
sg3
I2
sg4
VDISCOUNT DOMAINS LTD
p11
sa(dp12
g2
I0
sg3
I3
sg4
V007 NAMES, INC.
p13
sa(dp14
g2
I0
sg3
I1
sg4
V0101 INTERNET INC.
p15
sa(dp16
g2
I0
sg3
I2
sg4
V1 ENAME CO
p17
sa(dp18
g2
I0
sg3
I16
sg4
VNAMESPRO SOLUTIONS INC.
p19
sa(dp20
g2
I0
sg3
I21
sg4
VERANET INTERNATIONAL LIMITED
p21
sa(dp22
g2
I0
sg3
I6
sg4
VESTRATEGIAS WEBSITE S.L.
p23
sa(dp24
g2
I0
sg3
I12
sg4
VNAMEWEB BVBA
p25
sa(dp26
g2
I7
sg3
I26
sg4
VBIZCN.COM, INC.
p27
sa(dp28
g2
I0
sg3
I5
sg4
VBLACKNIGHT INTERNET SOLUTIONS LTD.
p29
sa(dp30
g2
I0
sg3
I44
sg4
VONLINE SAS
p31
sa(dp32
g2
I0
sg3
I21
sg4
VNET 4 INDIA LIMITED
p33
sa(dp34
g2
I0
sg3
I2
sg4
VNET LOGISTICS PTY LTD
p35
sa(dp36
g2
I0
sg3
I1
sg4
VNET TUNER CORP. DBA WEBMASTERS.COM
p37
sa(dp38
g2
I0
sg3
I34
sg4
VEURODNS SA
p39
sa(dp40
g2
I0
sg3
I6
sg4
VNET-CHINESE CO., LTD.
p41
sa(dp42
g2
I1
sg3
I68
sg4
VDNC HOLDINGS, INC.
p43
sa(dp44
g2
I0
sg3
I38
sg4
VBLUE RAZOR DOMAINS, INC.
p45
sa(dp46
g2
I0
sg3
I3
sg4
VBOTTLE DOMAINS INC.
p47
sa(dp48
g2
I0
sg3
I1
sg4
VBRANDNAMES.COM SARL
p49
sa(dp50
g2
I0
sg3
I1
sg4
VBRIARWOOD TECHNOLOGIES INC.
p51
sa(dp52
g2
I0
sg3
I2
sg4
VCANYON GATE HOLDINGS LLC
p53
sa(dp54
g2
I0
sg3
I30
sg4
VEVERYONE'S INTERNET LTD.
p55
sa(dp56
g2
I0
sg3
I29
sg4
VCENTER OF UKRAINIAN INTERNET NAMES DBA UKRNAMES
p57
sa(dp58
g2
I0
sg3
I100
sg4
VDOMAIN PEOPLE
p59
sa(dp60
g2
I1
sg3
I84
sg4
VEVOPLUS LTD.
p61
sa(dp62
g2
I0
sg3
I8
sg4
VDOMAIN THE NET TECHNOLOGIES, LTD.
p63
sa(dp64
g2
I0
sg3
I1
sg4
VDOMAIN-IT!, INC.
p65
sa(dp66
g2
I1
sg3
I135
sg4
VNETART SP Z O.O
p67
sa(dp68
g2
I0
sg3
I1
sg4
VNETDORM INC
p69
sa(dp70
g2
I1
sg3
I75
sg4
VNETEARTH ONE, INC.
p71
sa(dp72
g2
I0
sg3
I5
sg4
VNETIM
p73
sa(dp74
g2
I0
sg3
I1
sg4
VNETISTRAR LIMITED
p75
sa(dp76
g2
I1
sg3
I305
sg4
VGOOGLE INC.
p77
sa(dp78
g2
I1
sg3
I259
sg4
VONLINENIC, INC. D/B/A CHINA-CHANNEL.COM
p79
sa(dp80
g2
I0
sg3
I7
sg4
VOPENTLD B.V.
p81
sa(dp82
g2
I0
sg3
I4
sg4
VORANGE SA
p83
sa(dp84
g2
I0
sg3
I83
sg4
VNETOWL, INC.
p85
sa(dp86
g2
I0
sg3
I5
sg4
VNETPIA.COM, INC.
p87
sa(dp88
g2
I2
sg3
I348
sg4
V1&1 INTERNET SE
p89
sa(dp90
g2
I0
sg3
I56
sg4
VGRANSY S.R.O DBA SUBREG.CZ
p91
sa(dp92
g2
I0
sg3
I394
sg4
VREGISTER.COM, INC.
p93
sa(dp94
g2
I0
sg3
I11
sg4
VREGISTER4LESS, INC.
p95
sa(dp96
g2
I0
sg3
I1
sg4
VREGISTRATION TECHNOLOGIES, INC.
p97
sa(dp98
g2
I8
sg3
I56
sg4
V101DOMAIN GRS LIMITED
p99
sa(dp100
g2
I1
sg3
I4
sg4
V10DENCEHISPAHARD, S.L.
p101
sa(dp102
g2
I2
sg3
I266
sg4
VFAST DOMAIN INC.
p103
sa(dp104
g2
I1
sg3
I101
sg4
VGUANGDONG NAISINIKE INFORMATION TECHNOLOGY CO LTD.
p105
sa(dp106
g2
I0
sg3
I3
sg4
VGUANGZHOU EHOST TECH. CO. LTD.
p107
sa(dp108
g2
I0
sg3
I2
sg4
VHANGANG SYSTEMS, INC. D/B/A DOREGI.COM
p109
sa(dp110
g2
I0
sg3
I179
sg4
VREGISTRYGATE GMBH
p111
sa(dp112
g2
I6
sg3
I598
sg4
VKEY-SYSTEMS GMBH
p113
sa(dp114
g2
I0
sg3
I1
sg4
VKOREACENTER.COM CO., LTD
p115
sa(dp116
g2
I2
sg3
I186
sg4
V1API GMBH
p117
sa(dp118
g2
I0
sg3
I2
sg4
V2030138 ONTARIO INC. DBA NAMESBEYOND.COM AND DBA GOODLUCKDOMAIN.COM
p119
sa(dp120
g2
I2
sg3
I231
sg4
VFBS INC.
p121
sa(dp122
g2
I0
sg3
I6
sg4
VFIRSTSERVER, INC.
p123
sa(dp124
g2
I3
sg3
I103
sg4
VREGTIME LTD.
p125
sa(dp126
g2
I0
sg3
I6
sg4
VFREEPARKING DOMAIN REGISTRARS INC
p127
sa(dp128
g2
I0
sg3
I2
sg4
VFREESTYLE NAME HOLDINGS INC.
p129
sa(dp130
g2
I0
sg3
I1
sg4
VFRENCH CONNEXION / DOMAINE.FR
p131
sa(dp132
g2
I0
sg3
I3
sg4
VSAFEBRANDS SAS
p133
sa(dp134
g2
I0
sg3
I1
sg4
VFUNPEAS MEDIA VENTURES, LLC
p135
sa(dp136
g2
I3
sg3
I494
sg4
VDOMAIN.COM, LLC
p137
sa(dp138
g2
I0
sg3
I27
sg4
VSAFENAMES LTD
p139
sa(dp140
g2
I0
sg3
I26
sg4
VDOMAINCONTEXT, INC.
p141
sa(dp142
g2
I0
sg3
I20
sg4
VSERVER PLAN SRL
p143
sa(dp144
g2
I0
sg3
I12
sg4
VSHANGHAI MEICHENG TECHNOLOGY INFORMATION DEVELOPMENT CO., LTD.
p145
sa(dp146
g2
I1
sg3
I24
sg4
VDOMAININFO AB
p147
sa(dp148
g2
I0
sg3
I75
sg4
VGABIA INC.
p149
sa(dp150
g2
I0
sg3
I5
sg4
VDOMAINNAME, INC.
p151
sa(dp152
g2
I1
sg3
I23
sg4
VSHINJIRU MSC SDN BHD
p153
sa(dp154
g2
I0
sg3
I2
sg4
VSIBERNAME.COM INC.
p155
sa(dp156
g2
I0
sg3
I13
sg4
VSOLUCIONES CORPORATIVAS IP, SL
p157
sa(dp158
g2
I0
sg3
I5
sg4
VSPOT DOMAIN LLC
p159
sa(dp160
g2
I5
sg3
I190
sg4
VLAUNCHPAD.COM INC.
p161
sa(dp162
g2
I0
sg3
I10
sg4
VLCN.COM LTD.
p163
sa(dp164
g2
I0
sg3
I1
sg4
VLEDL.NET GMBH
p165
sa(dp166
g2
I0
sg3
I28
sg4
VSYNERGY WHOLESALE PTY LTD
p167
sa(dp168
g2
I0
sg3
I4
sg4
VLEXSYNERGY LIMITED
p169
sa(dp170
g2
I0
sg3
I1
sg4
VLIGNE WEB SERVICES SARL DBA LWS
p171
sa(dp172
g2
I1
sg3
I7
sg4
VTHE REGISTRAR COMPANY B.V.
p173
sa(dp174
g2
I0
sg3
I6
sg4
VTHE REGISTRY AT INFO AVENUE
p175
sa(dp176
g2
I0
sg3
I60
sg4
VDOMENESHOP AS DBA DOMAINNAMESHOP.COM
p177
sa(dp178
g2
I0
sg3
I1
sg4
VDOTARAI CO., LTD.
p179
sa(dp180
g2
I0
sg3
I4
sg4
VDOTNAME KOREA CORP.
p181
sa(dp182
g2
I0
sg3
I38
sg4
VLIQUIDNET LTD.
p183
sa(dp184
g2
I0
sg3
I43
sg4
VTIERRANET INC. D/B/A DOMAINDISCOVER
p185
sa(dp186
g2
I0
sg3
I6
sg4
VTIGER TECHNOLOGIES LLC
p187
sa(dp188
g2
I4
sg3
I71
sg4
VMAFF INC.
p189
sa(dp190
g2
I0
sg3
I15
sg4
VMARCARIA.COM INTERNATIONAL, INC.
p191
sa(dp192
g2
I0
sg3
I65
sg4
VTLD REGISTRAR SOLUTIONS LTD.
p193
sa(dp194
g2
I0
sg3
I255
sg4
VGANDI SAS
p195
sa(dp196
g2
I0
sg3
I3
sg4
VGENIOUS COMMUNICATIONS SARL/AU
p197
sa(dp198
g2
I2
sg3
I83
sg4
VTLDS INC.
p199
sa(dp200
g2
I0
sg3
I93
sg4
VMARKMONITOR, INC.
p201
sa(dp202
g2
I0
sg3
I24
sg4
VGKG NET, INC.
p203
sa(dp204
g2
I0
sg3
I17
sg4
VMEGAZONE CORP.
p205
sa(dp206
g2
I0
sg3
I10
sg4
VGLOBAL DOMAINS INTERNATIONAL, INC. DBA DOMAINCOSTCLUB.COM
p207
sa(dp208
g2
I0
sg3
I1
sg4
VGLOBAL VILLAGE GMBH
p209
sa(dp210
g2
I1
sg3
I39
sg4
VTODAYNIC.COM, INC.
p211
sa(dp212
g2
I0
sg3
I8
sg4
VTOTAL WEB SOLUTIONS LIMITED TRADING AS TOTALREGISTRATIONS
p213
sa(dp214
g2
I0
sg3
I1
sg4
VTPP DOMAINS DBA TPP INTERNET
p215
sa(dp216
g2
I7
sg3
I228
sg4
VDYNADOT LLC
p217
sa(dp218
g2
I1
sg3
I22
sg4
VDYNAMIC NETWORK SERVICES, INC.
p219
sa(dp220
g2
I0
sg3
I42
sg4
VTPP WHOLESALE PTY LTD.
p221
sa(dp222
g2
I0
sg3
I2
sg4
VTRUNKOZ TECHNOLOGIES PVT LTD. D/B/A OWNREGISTRAR.COM
p223
sa(dp224
g2
I0
sg3
I17
sg4
VEASYDNS TECHNOLOGIES, INC.
p225
sa(dp226
g2
I2
sg3
I643
sg4
VHICHINA ZHICHENG TECHNOLOGY LIMITED
p227
sa(dp228
g2
I0
sg3
I11
sg4
VEASYSPACE LTD.
p229
sa(dp230
g2
I0
sg3
I3
sg4
VHOSTEUR SARL
p231
sa(dp232
g2
I0
sg3
I5
sg4
VELB GROUP, INC.
p233
sa(dp234
g2
I0
sg3
I119
sg4
VMELBOURNE IT LTD
p235
sa(dp236
g2
I0
sg3
I75
sg4
VHOSTING CONCEPTS B.V. D/B/A OPENPROVIDER
p237
sa(dp238
g2
I1
sg3
I54
sg4
VHOSTING UKRAINE LLC.
p239
sa(dp240
g2
I0
sg3
I10
sg4
VHTTP.NET INTERNET GMBH
p241
sa(dp242
g2
I0
sg3
I1
sg4
VHUMEIA CORPORATION
p243
sa(dp244
g2
I0
sg3
I14
sg4
VIN2NET NETWORK INC.
p245
sa(dp246
g2
I3
sg3
I40
sg4
VINAMES CO. LTD.
p247
sa(dp248
g2
I0
sg3
I1
sg4
VINIC GMBH
p249
sa(dp250
g2
I0
sg3
I8
sg4
VINSTRA CORPORATION PTY LTD
p251
sa(dp252
g2
I0
sg3
I2
sg4
VINTERDOMINIOS, INC.
p253
sa(dp254
g2
I0
sg3
I1
sg4
VINTERLINK CO., LTD.
p255
sa(dp256
g2
I0
sg3
I6
sg4
VINTERNATIONAL REGISTRATION SERVICES INC.
p257
sa(dp258
g2
I9
sg3
I1009
sg4
VNETWORK SOLUTIONS, LLC
p259
sa(dp260
g2
I0
sg3
I2
sg4
VNETWORKING4ALL B.V.
p261
sa(dp262
g2
I6
sg3
I10
sg4
VNEUSTAR SPECIAL PROJECTS
p263
sa(dp264
g2
I0
sg3
I8
sg4
VNHAN HOA SOFTWARE COMPANY LTD.
p265
sa(dp266
g2
I0
sg3
I85
sg4
VNICS TELEKOMUNIKASYON TICARET LTD. STI.
p267
sa(dp268
g2
I0
sg3
I9
sg4
VNOM-IQ LTD
p269
sa(dp270
g2
I0
sg3
I3
sg4
VNOMINALIA INTERNET SL
p271
sa(dp272
g2
I0
sg3
I4
sg4
VNORDNET
p273
sa(dp274
g2
I0
sg3
I9
sg4
VNORDREG AB
p275
sa(dp276
g2
I0
sg3
I3
sg4
VNUXIT
p277
sa(dp278
g2
I0
sg3
I19
sg4
VOMNIS NETWORKS, LLC.
p279
sa(dp280
g2
I0
sg3
I4
sg4
VONLINE NAME SERVICES INC.
p281
sa(dp282
g2
I3
sg3
I926
sg4
V22NET, INC.
p283
sa(dp284
g2
I0
sg3
I5
sg4
V35 TECHNOLOGY CO., LTD.
p285
sa(dp286
g2
I4
sg3
I224
sg4
VINTERNET DOMAIN SERVICE BS CORP
p287
sa(dp288
g2
I0
sg3
I13
sg4
VAB NAME ISP
p289
sa(dp290
g2
I0
sg3
I6
sg4
VABOVE.COM PTY LTD.
p291
sa(dp292
g2
I0
sg3
I34
sg4
VINTERNET INVEST, LTD.
p293
sa(dp294
g2
I0
sg3
I1
sg4
VINTERNETTERS LIMITED
p295
sa(dp296
g2
I0
sg3
I24
sg4
VACENS TECHNOLOGIES, S.L.U.
p297
sa(dp298
g2
I0
sg3
I6
sg4
VACTIVE REGISTRAR, INC.
p299
sa(dp300
g2
I0
sg3
I1
sg4
VADDRESS CREATION
p301
sa(dp302
g2
I1
sg3
I9
sg4
VADVANCED INTERNET TECHNOLOGIES, INC.
p303
sa(dp304
g2
I0
sg3
I3
sg4
VALANTRON BLTD
p305
sa(dp306
g2
I0
sg3
I8
sg4
VALPNAMES LIMITED
p307
sa(dp308
g2
I0
sg3
I11
sg4
VARGO TECHNOLOGIES LLC
p309
sa(dp310
g2
I0
sg3
I50
sg4
VINTERNETWORX LTD. & CO. KG
p311
sa(dp312
g2
I0
sg3
I13
sg4
VIP MIRROR PTE LTD
p313
sa(dp314
g2
I0
sg3
I34
sg4
VARSYS INTERNET SL DBA NICLINE.COM
p315
sa(dp316
g2
I1
sg3
I92
sg4
VJAPAN REGISTRY SERVICES CO., LTD.
p317
sa(dp318
g2
I0
sg3
I9
sg4
VJIANGSU BANGNING SCIENCE & TECHNOLOGY CO. LTD.
p319
sa(dp320
g2
I16
sg3
I1852
sg4
VTUCOWS DOMAINS INC.
p321
sa(dp322
g2
I0
sg3
I361
sg4
VASCIO TECHNOLOGIES, INC. DANMARK - FILIAL AF ASCIO TECHNOLOGIES, INC. USA
p323
sa(dp324
g2
I0
sg3
I7
sg4
VBB ONLINE LTD
p325
sa(dp326
g2
I1
sg3
I990
sg4
VMESH DIGITAL LIMITED
p327
sa(dp328
g2
I0
sg3
I6
sg4
VMIJN INTERNETOPLOSSING B.V.
p329
sa(dp330
g2
I0
sg3
I37
sg4
VMISK.COM, INC.
p331
sa(dp332
g2
I3
sg3
I367
sg4
VUDOMAINNAME.COM LLC
p333
sa(dp334
g2
I2
sg3
I82
sg4
VMONIKER ONLINE SERVICES, LLC
p335
sa(dp336
g2
I0
sg3
I3
sg4
VMOUNTAIN DOMAINS INC.
p337
sa(dp338
g2
I11
sg3
I74
sg4
VUNIREGISTRAR CORP
p339
sa(dp340
g2
I0
sg3
I72
sg4
VUNITED-DOMAINS AG
p341
sa(dp342
g2
I0
sg3
I1
sg4
VUPPERLINK LIMITED
p343
sa(dp344
g2
I1
sg3
I23
sg4
VURL SOLUTIONS INC.
p345
sa(dp346
g2
I0
sg3
I3
sg4
VVARIOMEDIA AG DBA PUREDOMAIN.COM
p347
sa(dp348
g2
I0
sg3
I106
sg4
VVAUTRON RECHENZENTRUM AG
p349
sa(dp350
g2
I0
sg3
I3
sg4
VVISESH INFOTECNICS LTD. D/B/A SIGNDOMAINS.COM
p351
sa(dp352
g2
I0
sg3
I7
sg4
VVITALWERKS INTERNET SOLUTIONS, LLC
p353
sa(dp354
g2
I0
sg3
I14
sg4
VVODIEN INTERNET SOLUTIONS PTE LTD
p355
sa(dp356
g2
I0
sg3
I10
sg4
VVOLUSION, INC.
p357
sa(dp358
g2
I0
sg3
I132
sg4
VWEB COMMERCE COMMUNICATIONS, LTD.
p359
sa(dp360
g2
I0
sg3
I3
sg4
VWEB DRIVE LTD.
p361
sa(dp362
g2
I0
sg3
I1
sg4
VWEB INFINITY INC.
p363
sa(dp364
g2
I0
sg3
I7
sg4
VWEB TECH NAMES INC.
p365
sa(dp366
g2
I0
sg3
I2
sg4
VWEB WERKS INDIA PVT. LTD D/B/A ZENREGISTRY.COM
p367
sa(dp368
g2
I0
sg3
I12
sg4
VWEB4AFRICA INC.
p369
sa(dp370
g2
I0
sg3
I6
sg4
VWEBNAMES.CA INC.
p371
sa(dp372
g2
I7
sg3
I465
sg4
VNAME.COM
p373
sa(dp374
g2
I0
sg3
I15
sg4
VNAMEBAY SAM
p375
sa(dp376
g2
I5
sg3
I848
sg4
VBIGROCK SOLUTIONS LTD.
p377
sa(dp378
g2
I0
sg3
I21
sg4
VBINERO AB
p379
sa(dp380
g2
I29
sg3
I1884
sg4
VENAME TECHNOLOGY CO., LTD.
p381
sa(dp382
g2
I0
sg3
I2
sg4
VENCIRCA, INC.
p383
sa(dp384
g2
I11
sg3
I1175
sg4
VWILD WEST DOMAINS, INC.
p385
sa(dp386
g2
I0
sg3
I38
sg4
VWIXI INCORPORATED
p387
sa(dp388
g2
I0
sg3
I1
sg4
VXIAMEN CHINASOURCE INTERNET
p389
sa(dp390
g2
I1
sg3
I64
sg4
VXIN NET CORP
p391
sa(dp392
g2
I0
sg3
I22
sg4
VYESNIC CO., LTD.
p393
sa(dp394
g2
I0
sg3
I9
sg4
VZNET TECHNOLOGIES PVT LTD. D/B/A LEMONREGISTRY.COM
p395
sa(dp396
g2
I16
sg3
I1269
sg4
VENOM, INC.
p397
sa(dp398
g2
I0
sg3
I1
sg4
VENTORNO DIGITAL, S.A.
p399
sa(dp400
g2
I1
sg3
I55
sg4
VEPAG DOMAINSERVICES GMBH
p401
sa(dp402
g2
I1
sg3
I41
sg4
VEPIK, INC.
p403
sa(dp404
g2
I23
sg3
I4093
sg4
VOURDOMAINS LIMITED
p405
sa(dp406
g2
I9
sg3
I1891
sg4
VNAMECHEAP, INC.
p407
sa(dp408
g2
I0
sg3
I1
sg4
VNAMEKING, INC.
p409
sa(dp410
g2
I0
sg3
I12
sg4
VNAMESCOUT.COM
p411
sa(dp412
g2
I0
sg3
I25
sg4
VNAMESECURE.COM, INC.
p413
sa(dp414
g2
I1
sg3
I201
sg4
VNAMESILO
p415
sa(dp416
g2
I4
sg3
I1231
sg4
VOVH SARL
p417
sa(dp418
g2
I0
sg3
I1
sg4
VOWN IDENTITY, INC
p419
sa(dp420
g2
I0
sg3
I10
sg4
VPAIR NETWORKS INC.
p421
sa(dp422
g2
I0
sg3
I1
sg4
VPAKNIC LIMITED
p423
sa(dp424
g2
I0
sg3
I11
sg4
VPAPAKI LTD.
p425
sa(dp426
g2
I0
sg3
I12
sg4
VPARAGON INTERNET GROUP LTD T/A PARAGON NAMES
p427
sa(dp428
g2
I40
sg3
I7212
sg4
VPDR LTD. D/B/A PUBLICDOMAINREGISTRY.COM
p429
sa(dp430
g2
I0
sg3
I25
sg4
VPHEENIX, INC.
p431
sa(dp432
g2
I0
sg3
I42
sg4
VPLANETDOMAIN PTY LTD
p433
sa(dp434
g2
I0
sg3
I4
sg4
VPLANETHOSTER INC.
p435
sa(dp436
g2
I1
sg3
I297
sg4
VPSI USA
p437
sa(dp438
g2
I0
sg3
I2
sg4
VPSI-JAPAN, INC.
p439
sa(dp440
g2
I0
sg3
I20
sg4
VPT ARDH GLOBAL INDONESIA
p441
sa(dp442
g2
I2
sg3
I230
sg4
VREALTIME REGISTER B.V.
p443
sa(dp444
g2
I0
sg3
I15
sg4
VREBEL.CA CORP.
p445
sa(dp446
g2
I1
sg3
I19
sg4
VREBEL.COM CORP
p447
sa(dp448
g2
I0
sg3
I33
sg4
VREG2C.COM INC.
p449
sa(dp450
g2
I0
sg3
I214
sg4
VREGIONAL NETWORK INFORMATION CENTER, JSC DBA RU-CENTER
p451
sa(dp452
g2
I0
sg3
I115
sg4
VREGISTER .IT SPA
p453
sa(dp454
g2
I0
sg3
I6
sg4
VREGISTER.CA
p455
sa(dp456
g2
I6
sg3
I15672
sg4
VCHENGDU WEST DIMENSION DIGITAL TECHNOLOGY CO., LTD.
p457
sa(dp458
g2
I0
sg3
I1
sg4
VCHRISTIAN INVESTMENTS LLC
p459
sa(dp460
g2
I0
sg3
I13
sg4
VCOMMUNI GAL COMMUNICATIONS LTD.
p461
sa(dp462
g2
I0
sg3
I68
sg4
VCOREHUB, S.R.L.
p463
sa(dp464
g2
I0
sg3
I193
sg4
VCORPORATE DOMAINS, INC.
p465
sa(dp466
g2
I0
sg3
I7
sg4
VCPS-DATENSYSTEME GMBH
p467
sa(dp468
g2
I0
sg3
I130
sg4
VCRAZY DOMAINS FZ-LLC
p469
sa(dp470
g2
I1
sg3
I98
sg4
VCRONON AG
p471
sa(dp472
g2
I0
sg3
I1
sg4
VCROSSCERT, INC. DBA COSMOTOWN, INC.
p473
sa(dp474
g2
I0
sg3
I51
sg4
VCSL COMPUTER SERVICE (D.B.A. JOKER.COM)
p475
sa(dp476
g2
I0
sg3
I48
sg4
VCV. JOGJACAMP
p477
sa(dp478
g2
I0
sg3
I27
sg4
VCV. RUMAHWEB INDONESIA
p479
sa(dp480
g2
I0
sg3
I13
sg4
VDANDOMAIN A/S
p481
sa(dp482
g2
I0
sg3
I4
sg4
VDEERWOOD INVESTMENTS LLC
p483
sa(dp484
g2
I0
sg3
I25
sg4
VDELUXE SMALL BUSINESS SALES, INC. D/B/A APLUS.NET
p485
sa(dp486
g2
I0
sg3
I18
sg4
VDEUTSCHE TELEKOM AG
p487
sa(dp488
g2
I0
sg3
I1
sg4
VDHARANA DOMAINS INC.
p489
sa(dp490
g2
I6
sg3
I17185
sg4
VGMO INTERNET, INC. D/B/A ONAMAE.COM
p491
sa(dp492
g2
I0
sg3
I7
sg4
VGO AUSTRALIA DOMAINS INC
p493
sa(dp494
g2
I0
sg3
I1
sg4
VGO CANADA DOMAINS INC
p495
sa(dp496
g2
I0
sg3
I3
sg4
VGO CHINA DOMAINS INC
p497
sa(dp498
g2
I1
sg3
I2
sg4
VGO FRANCE DOMAINS INC
p499
sa(dp500
g2
I0
sg3
I5
sg4
VGO MONTENEGRO DOMAINS, LLC
p501
sa(dp502
g2
I64
sg3
I11916
sg4
VGODADDY.COM, INC.
p503
sa.