(lp0
(VDNS11.PARKPAGE.FOUNDATIONAPI
p1
F0.046054396414404106
I194
tp2
a(VDNS10.PARKPAGE.FOUNDATIONAPI
p3
F0.04543443978614562
I189
tp4
a(VNS10.DOMAINCONTROL
p5
F0.030251638630425813
I165
tp6
a(VNS09.DOMAINCONTROL
p7
F0.03025873973265945
I165
tp8
a(VNS1.EFTYDNS
p9
F11.617806731813246
I107
tp10
a(VNS2.EFTYDNS
p11
F11.617806731813246
I107
tp12
a(VDNS3.NAME-SERVICES
p13
F0.022757111597374178
I104
tp14
a(VDNS4.NAME-SERVICES
p15
F0.022753128555176336
I104
tp16
a(VDNS2.NAME-SERVICES
p17
F0.022730302772004135
I104
tp18
a(VDNS5.NAME-SERVICES
p19
F0.02276269019978638
I104
tp20
a(VDNS1.NAME-SERVICES
p21
F0.022732787017829936
I104
tp22
a(VNS1.REGWAY
p23
F29.39297124600639
I92
tp24
a(VNS2.REGWAY
p25
F29.39297124600639
I92
tp26
a(VNS53.DOMAINCONTROL
p27
F0.01625083260438652
I81
tp28
a(VNS54.DOMAINCONTROL
p29
F0.016250897811947017
I81
tp30
a(VNS64.DOMAINCONTROL
p31
F0.018704938103659367
I55
tp32
a(VNS63.DOMAINCONTROL
p33
F0.018704556429946336
I55
tp34
a(VNS13.DOMAINCONTROL
p35
F0.016440435039204115
I39
tp36
a(VNS14.DOMAINCONTROL
p37
F0.01643226116340409
I39
tp38
a(VDNS1.REGISTRAR-SERVERS
p39
F0.04206762370510596
I32
tp40
a(VNS3.OIGJAEIUG.XYZ
p41
F12.213740458015268
I32
tp42
a(VNS4.OIGJAEIUG.XYZ
p43
F12.213740458015268
I32
tp44
a(VDNS2.REGISTRAR-SERVERS
p45
F0.042069282850193915
I32
tp46
a(VNS2.OIGJAEIUG.XYZ
p47
F12.213740458015268
I32
tp48
a(VNS1.OIGJAEIUG.XYZ
p49
F12.213740458015268
I32
tp50
a(VNS6.CONECTARHOSTING
p51
F34.44444444444444
I31
tp52
a(VNS5.CONECTARHOSTING
p53
F34.44444444444444
I31
tp54
a(VNS8.ROOKDNS
p55
F0.034938917134526876
I29
tp56
a(VNS27.DOMAINCONTROL
p57
F0.011034923630718183
I29
tp58
a(VNS7.ROOKDNS
p59
F0.034938917134526876
I29
tp60
a(VNS28.DOMAINCONTROL
p61
F0.011030390627971549
I29
tp62
a(VNS50.DOMAINCONTROL
p63
F0.015135886626603283
I27
tp64
a(VNS73.DOMAINCONTROL
p65
F0.01150958919292203
I27
tp66
a(VNS72.DOMAINCONTROL
p67
F0.0124774135708047
I27
tp68
a(VNS2.BLUEHOST
p69
F0.07367387033398821
I27
tp70
a(VNS1.BLUEHOST
p71
F0.07365176355056058
I27
tp72
a(VNS74.DOMAINCONTROL
p73
F0.011510030778674896
I27
tp74
a(VNS49.DOMAINCONTROL
p75
F0.015135886626603283
I27
tp76
a(VNS71.DOMAINCONTROL
p77
F0.0124774135708047
I27
tp78
a(VNS44.DOMAINCONTROL
p79
F0.012190186412330618
I25
tp80
a(VNS32.DOMAINCONTROL
p81
F0.011662950073243326
I25
tp82
a(VNS43.DOMAINCONTROL
p83
F0.01218721512384648
I25
tp84
a(VNS22.DOMAINCONTROL
p85
F0.011815023984498688
I25
tp86
a(VNS21.DOMAINCONTROL
p87
F0.011815191500623842
I25
tp88
a(VNS08.DOMAINCONTROL
p89
F0.014162634249970494
I24
tp90
a(VNS12.DOMAININGDEPOT
p91
F0.061428205784489376
I24
tp92
a(VA.NS36.DE
p93
F0.10384665310890918
I24
tp94
a(VB.NS36.DE
p95
F0.10384665310890918
I24
tp96
a(VNS8416.HOSTGATOR
p97
F17.391304347826086
I24
tp98
a(VNS8415.HOSTGATOR
p99
F17.391304347826086
I24
tp100
a(VNS31.DOMAINCONTROL
p101
F0.011197529078583325
I24
tp102
a(VNS2.INMOTIONHOSTING
p103
F0.3377902885292048
I24
tp104
a(VNS11.DOMAININGDEPOT
p105
F0.061428205784489376
I24
tp106
a(VNS07.DOMAINCONTROL
p107
F0.014162467101769128
I24
tp108
a(VNS20.DOMAINCONTROL
p109
F0.017511534771817088
I23
tp110
a(VNS.INMOTIONHOSTING
p111
F0.3316510454217736
I23
tp112
a(VNS69.DOMAINCONTROL
p113
F0.011473782407199548
I23
tp114
a(VNS70.DOMAINCONTROL
p115
F0.011473896884587564
I23
tp116
a(VNS19.DOMAINCONTROL
p117
F0.01751193476423606
I23
tp118
a(VNS34.DOMAINCONTROL
p119
F0.01828016850991699
I22
tp120
a(VNS8398.HOSTGATOR
p121
F14.765100671140939
I22
tp122
a(VNS68.DOMAINCONTROL
p123
F0.01708353069988119
I22
tp124
a(VNS33.DOMAINCONTROL
p125
F0.018278497839813893
I22
tp126
a(VDNS4.REGISTRAR-SERVERS
p127
F0.04025617566331199
I22
tp128
a(VDNS5.REGISTRAR-SERVERS
p129
F0.04025322940681377
I22
tp130
a(VDNS3.REGISTRAR-SERVERS
p131
F0.040270176273544324
I22
tp132
a(VNS67.DOMAINCONTROL
p133
F0.017083000085415
I22
tp134
a(VNS8397.HOSTGATOR
p135
F14.765100671140939
I22
tp136
a(VDNS102.REGISTRAR-SERVERS
p137
F0.05925507900677201
I21
tp138
a(VYNS1.YAHOO
p139
F1.192504258943782
I21
tp140
a(VNS2.HOVER
p141
F0.8692052980132451
I21
tp142
a(VYNS2.YAHOO
p143
F1.192504258943782
I21
tp144
a(VNS1.HOVER
p145
F0.8695652173913043
I21
tp146
a(VNS03.DOMAINCONTROL
p147
F0.01218005602825773
I21
tp148
a(VNS04.DOMAINCONTROL
p149
F0.012180833168988759
I21
tp150
a(VDNS101.REGISTRAR-SERVERS
p151
F0.05925507900677201
I21
tp152
a(VNS1.EXPIEREDDNSMANAGER
p153
F0.03308409978164494
I20
tp154
a(VNS2.EXPIEREDDNSMANAGER
p155
F0.03308409978164494
I20
tp156
a(VNS15.DOMAINCONTROL
p157
F0.01465663175945536
I20
tp158
a(VNS30.DOMAINCONTROL
p159
F0.012965796229546456
I20
tp160
a(VNS16.DOMAINCONTROL
p161
F0.014658135631729
I20
tp162
a(VNS29.DOMAINCONTROL
p163
F0.01296159479462353
I20
tp164
a(VNS1.LAMMYMITCH.PW
p165
F94.73684210526316
I18
tp166
a(VNS2.VENTUREWEBSITES.NET
p167
F60.0
I18
tp168
a(VNS1.VENTUREWEBSITES.NET
p169
F60.0
I18
tp170
a(VF1G1NS1.DNSPOD.NET
p171
F0.03200341369746106
I18
tp172
a(VNS2.LAMMYMITCH.PW
p173
F94.73684210526316
I18
tp174
a(VF1G1NS2.DNSPOD.NET
p175
F0.03202903966262745
I18
tp176
a(VNS1.BODIS
p177
F0.14404338247754617
I17
tp178
a(VNS2.BODIS
p179
F0.14421445537835087
I17
tp180
a(VNS38.DOMAINCONTROL
p181
F0.024694787856338073
I16
tp182
a(VNS3.ONLINENIC.NET
p183
F0.16640665626625065
I16
tp184
a(VNS-US.1AND1-DNS.US
p185
F0.09991881596203085
I16
tp186
a(VNS-US.1AND1-DNS.ORG
p187
F0.09996251405722854
I16
tp188
a(VIS1.DOMAININGDEPOT
p189
F0.07289958082741024
I16
tp190
a(VNS37.DOMAINCONTROL
p191
F0.024693644473253697
I16
tp192
a(VIS2.DOMAININGDEPOT
p193
F0.07289958082741024
I16
tp194
a(VNS-US.1AND1-DNS.DE
p195
F0.09996251405722854
I16
tp196
a(VNS2.SERVCONFIG
p197
F1.40597539543058
I16
tp198
a(VNS2.ONLINENIC.NET
p199
F0.16652789342214822
I16
tp200
a(VNS1.SERVCONFIG
p201
F1.404741000877963
I16
tp202
a(VNS-US.1AND1-DNS
p203
F0.10021295252411375
I16
tp204
a(VPDNS08.DOMAINCONTROL
p205
F0.13347570742124934
I15
tp206
a(VNS18.DOMAINCONTROL
p207
F0.010289830217801407
I15
tp208
a(VNS29.ALLSITECONTROL
p209
F51.724137931034484
I15
tp210
a(VNS1.ITSMYHOSTING.IN
p211
F38.46153846153846
I15
tp212
a(VPDNS07.DOMAINCONTROL
p213
F0.13346383130171724
I15
tp214
a(VNS30.ALLSITECONTROL
p215
F51.724137931034484
I15
tp216
a(VNS17.DOMAINCONTROL
p217
F0.010289547877266273
I15
tp218
a(VNS2.ITSMYHOSTING.IN
p219
F38.46153846153846
I15
tp220
a(VNS1.PARKINGCREW.NET
p221
F0.01649348507339601
I14
tp222
a(VDUMMYSECONDARY.PLEASECONTACTSUPPORT
p223
F12.612612612612613
I14
tp224
a(VNS2.DREAMHOST
p225
F0.17432449259120905
I14
tp226
a(VNS19.ALLSITECONTROL
p227
F70.0
I14
tp228
a(VNS20.ALLSITECONTROL
p229
F70.0
I14
tp230
a(VNS1.DREAMHOST
p231
F0.17410769804750653
I14
tp232
a(VNS39.DOMAINCONTROL
p233
F0.015950053546608334
I14
tp234
a(VBLOCKEDDUETOPHISHING.PLEASECONTACTSUPPORT
p235
F41.1764705882353
I14
tp236
a(VNS2.PARKINGCREW.NET
p237
F0.04758020663404024
I14
tp238
a(VNS47.DOMAINCONTROL
p239
F0.03615609101004623
I14
tp240
a(VNS40.DOMAINCONTROL
p241
F0.015950962184826077
I14
tp242
a(VNS48.DOMAINCONTROL
p243
F0.03615609101004623
I14
tp244
a(VNS4038.HOSTGATOR
p245
F8.333333333333334
I13
tp246
a(VNS2.DYNADOT
p247
F0.20530638029058748
I13
tp248
a(VNS4037.HOSTGATOR
p249
F8.333333333333334
I13
tp250
a(VDNS4.MASTERWEBNET
p251
F1.311806256306761
I13
tp252
a(VNS1.DYNADOT
p253
F0.20530638029058748
I13
tp254
a(VNS3.DREAMHOST
p255
F0.18453021682300477
I12
tp256
a(VNS601.DNSSERVERBOOT
p257
F21.818181818181817
I12
tp258
a(VNS602.DNSSERVERBOOT
p259
F21.818181818181817
I12
tp260
a(VDNS.SITE5
p261
F0.6682867557715675
I11
tp262
a(VNS1.RISHON-LEZION.NET
p263
F91.66666666666667
I11
tp264
a(VDNS2.SITE5
p265
F0.6682867557715675
I11
tp266
a(VNS1.HOSTEASE
p267
F24.444444444444443
I11
tp268
a(VNS2.HOSTEASE
p269
F24.444444444444443
I11
tp270
a(VNS2.RISHON-LEZION.NET
p271
F91.66666666666667
I11
tp272
a(VNS1.PHOTOHUSSY.PW
p273
F62.5
I10
tp274
a(VNS1.LUNCHCOPE.PW
p275
F83.33333333333333
I10
tp276
a(VNS2.SPEEDYDNS.NET
p277
F0.6195786864931846
I10
tp278
a(VNS3.SINKHOLE.CH
p279
F22.727272727272727
I10
tp280
a(VNS4.SINKHOLE.CH
p281
F22.727272727272727
I10
tp282
a(VNS0.UKFAST.NET
p283
F12.345679012345679
I10
tp284
a(VNS1.IBSPARK
p285
F0.26525198938992045
I10
tp286
a(VNS-1.EZYREG
p287
F7.751937984496124
I10
tp288
a(VNS-2.EZYREG
p289
F7.751937984496124
I10
tp290
a(VNS1.IPAGE
p291
F0.21101498206372651
I10
tp292
a(VNS2.IBSPARK
p293
F0.26525198938992045
I10
tp294
a(VDNS2.NAMECHEAPHOSTING
p295
F0.25497195308516063
I10
tp296
a(VNS1.UKFAST.NET
p297
F12.345679012345679
I10
tp298
a(VNS2-KAVERI.EWEBGURU
p299
F34.48275862068966
I10
tp300
a(VNS1-KAVERI.EWEBGURU
p301
F34.48275862068966
I10
tp302
a(VDNS1.NAMECHEAPHOSTING
p303
F0.25477707006369427
I10
tp304
a(VNS1.SPEEDYDNS.NET
p305
F0.6195786864931846
I10
tp306
a(VNS2.IPAGE
p307
F0.21123785382340515
I10
tp308
a(VNS4021.HOSTGATOR
p309
F10.344827586206897
I9
tp310
a(VNS15.COLSERVICIOS
p311
F11.39240506329114
I9
tp312
a(VDNS3.MASTERWEB
p313
F2.8662420382165603
I9
tp314
a(VNS2.DIGITALOCEAN
p315
F0.40053404539385845
I9
tp316
a(VNS11024.ZTOMY
p317
F0.180469219971927
I9
tp318
a(VNS1.SREEJAININFOTECH.NET
p319
F29.032258064516128
I9
tp320
a(VNS2.WEBHOSTINGHUB
p321
F2.2613065326633164
I9
tp322
a(VNS21024.ZTOMY
p323
F0.180469219971927
I9
tp324
a(VNS2.SREEJAININFOTECH.NET
p325
F29.032258064516128
I9
tp326
a(VDNS1.MASTERWEBNET
p327
F2.4456521739130435
I9
tp328
a(VNS3.DIGITALOCEAN
p329
F0.45271629778672035
I9
tp330
a(VNS1.WEBHOSTINGHUB
p331
F2.255639097744361
I9
tp332
a(VNS1.DIGITALOCEAN
p333
F0.400355871886121
I9
tp334
a(VNS16.COLSERVICIOS
p335
F11.39240506329114
I9
tp336
a(VNS4022.HOSTGATOR
p337
F10.344827586206897
I9
tp338
a(VNS3.XTREMEWEB.DE
p339
F42.10526315789474
I8
tp340
a(VNS0.XTREMEWEB.DE
p341
F42.10526315789474
I8
tp342
a(VDNS01.GPN.REGISTER
p343
F3.389830508474576
I8
tp344
a(VDNS03.GPN.REGISTER
p345
F3.389830508474576
I8
tp346
a(VDNS2.MASTERWEB.NET
p347
F2.7210884353741496
I8
tp348
a(VDNS04.GPN.REGISTER
p349
F3.389830508474576
I8
tp350
a(VNS1.NAMESELF
p351
F25.0
I8
tp352
a(VNS11.XINCACHE
p353
F0.12586532410320955
I8
tp354
a(VDNS9.HICHINA
p355
F0.021716116072640408
I8
tp356
a(VDNS2.TECHNORAIL
p357
F0.26782725142283226
I8
tp358
a(VNS12.XINCACHE
p359
F0.12592475995592634
I8
tp360
a(VDNS3.ARUBADNS.NET
p361
F0.26246719160104987
I8
tp362
a(VDNS.TECHNORAIL
p363
F0.26782725142283226
I8
tp364
a(VNS1.QHOSTER.NET
p365
F6.6115702479338845
I8
tp366
a(VNS1.CYBERCASTCO
p367
F26.666666666666668
I8
tp368
a(VNS2-URANUS.EWEBGURU
p369
F7.619047619047619
I8
tp370
a(VNS.HOSTINGMADEEASY
p371
F7.4766355140186915
I8
tp372
a(VNS2.KENYAWEBDESIGNERS
p373
F80.0
I8
tp374
a(VDNS05.GPN.REGISTER
p375
F3.389830508474576
I8
tp376
a(VNS2.STAPLE.ARVIXE
p377
F18.181818181818183
I8
tp378
a(VNS1.STAPLE.ARVIXE
p379
F18.181818181818183
I8
tp380
a(VGREG.NS.CLOUDFLARE
p381
F7.017543859649122
I8
tp382
a(VNS2.CYBERCASTCO
p383
F26.666666666666668
I8
tp384
a(VNS2.NAMESELF
p385
F25.0
I8
tp386
a(VDNS4.ARUBADNS.CZ
p387
F0.26246719160104987
I8
tp388
a(VNS1-URANUS.EWEBGURU
p389
F7.619047619047619
I8
tp390
a(VNS2.HOSTINGMADEEASY
p391
F7.4766355140186915
I8
tp392
a(VDNS02.GPN.REGISTER
p393
F3.389830508474576
I8
tp394
a(VDNS10.HICHINA
p395
F0.021717295110893937
I8
tp396
a(VNS1.KENYAWEBDESIGNERS
p397
F80.0
I8
tp398
a(VNS2.QHOSTER.NET
p399
F6.6115702479338845
I8
tp400
a(VNS3.LIVEDNS.CO.UK
p401
F0.4134672179562906
I7
tp402
a(VNS2.OFFSHOREHOSTINGSPACE.ORG
p403
F70.0
I7
tp404
a(VNS2.ZYGOSHOSTING
p405
F70.0
I7
tp406
a(VNS1.LIVEDNS.CO.UK
p407
F0.4046242774566474
I7
tp408
a(VNS1.JUSTHOST
p409
F0.7157464212678937
I7
tp410
a(VNS2.ENSJAMMU
p411
F6.1946902654867255
I7
tp412
a(VEU.PARKENABLE
p413
F0.19321004692243995
I7
tp414
a(VNS2.ENSALPHA
p415
F7.608695652173913
I7
tp416
a(VNS2.99HOSTERS
p417
F87.5
I7
tp418
a(VNS1.ENSJAMMU
p419
F6.1946902654867255
I7
tp420
a(VNS3.QHOSTER.NET
p421
F6.422018348623853
I7
tp422
a(VDNS2.REGISTER
p423
F0.2752654345261502
I7
tp424
a(VNS4.CNMSN
p425
F16.666666666666668
I7
tp426
a(VNS27.BOXSECURED
p427
F25.925925925925927
I7
tp428
a(VNS3.CONTABO.NET
p429
F12.280701754385966
I7
tp430
a(VNS431.FLOATHOSTING1
p431
F1.9230769230769231
I7
tp432
a(VNS02.CASHPARKING
p433
F0.08616445100935499
I7
tp434
a(VNS2.LIVEDNS.CO.UK
p435
F0.4046242774566474
I7
tp436
a(VNS432.FLOATHOSTING1
p437
F1.9283746556473829
I7
tp438
a(VNS3.CNMSN
p439
F16.666666666666668
I7
tp440
a(VNS1.BERRYSYSMEDIA
p441
F87.5
I7
tp442
a(VNS2.JUSTHOST
p443
F0.7157464212678937
I7
tp444
a(VNS1.ZYGOSHOSTING
p445
F70.0
I7
tp446
a(VNS1.CONTABO.NET
p447
F11.11111111111111
I7
tp448
a(VNS01.CASHPARKING
p449
F0.08616445100935499
I7
tp450
a(VNS1.ENSALPHA
p451
F7.608695652173913
I7
tp452
a(VNS1.99HOSTERS
p453
F87.5
I7
tp454
a(VNS2.BERRYSYSMEDIA
p455
F87.5
I7
tp456
a(VNS1.LOOTVIA
p457
F9.58904109589041
I7
tp458
a(VNS2.CONTABO.NET
p459
F11.290322580645162
I7
tp460
a(VNS28.BOXSECURED
p461
F25.925925925925927
I7
tp462
a(VNS3.ENSALPHA
p463
F7.608695652173913
I7
tp464
a(VNS2.LOOTVIA
p465
F9.58904109589041
I7
tp466
a(VNS4.QHOSTER.NET
p467
F6.422018348623853
I7
tp468
a(VNS1.OFFSHOREHOSTINGSPACE.ORG
p469
F70.0
I7
tp470
a(VDNS1.REGISTER
p471
F0.2752654345261502
I7
tp472
a(VNS4.ENSALPHA
p473
F7.6923076923076925
I7
tp474
a(VTR.PARKENABLE
p475
F0.19321004692243995
I7
tp476
a(VNS529.HOSTGATOR
p477
F28.571428571428573
I6
tp478
a(VNS1.SUMOSERVER
p479
F50.0
I6
tp480
a(VVPS68.HOSTSTOREBD
p481
F85.71428571428571
I6
tp482
a(VNS2.DNSOWL
p483
F0.18587360594795538
I6
tp484
a(VVPS67.HOSTSTOREBD
p485
F85.71428571428571
I6
tp486
a(VNS1238.WEBSITEWELCOME
p487
F60.0
I6
tp488
a(VNS8078.HOSTGATOR
p489
F15.789473684210526
I6
tp490
a(VNS2.TLDPARKED
p491
F0.9630818619582665
I6
tp492
a(VNS33.SUPERDNSSITE
p493
F60.0
I6
tp494
a(VNS1.DNSOWL
p495
F0.18587360594795538
I6
tp496
a(VNS2.BH-9.WEBHOSTBOX.NET
p497
F35.294117647058826
I6
tp498
a(VDNS1.BIGROCK.IN
p499
F0.4914004914004914
I6
tp500
a(VNS1237.WEBSITEWELCOME
p501
F60.0
I6
tp502
a(VNS1.BH-9.WEBHOSTBOX.NET
p503
F35.294117647058826
I6
tp504
a(VDNS4.BIGROCK.IN
p505
F0.4971002485501243
I6
tp506
a(VNS34.SUPERDNSSITE
p507
F60.0
I6
tp508
a(VNS8077.HOSTGATOR
p509
F15.789473684210526
I6
tp510
a(VJO.NS.CLOUDFLARE
p511
F10.909090909090908
I6
tp512
a(VDNS2.BIGROCK.IN
p513
F0.4918032786885246
I6
tp514
a(VNS1.TLDPARKED
p515
F0.9630818619582665
I6
tp516
a(VNS22.IXWEBHOSTING
p517
F4.761904761904762
I6
tp518
a(VNS1.RESELLER-DNS
p519
F54.54545454545455
I6
tp520
a(VNS530.HOSTGATOR
p521
F28.571428571428573
I6
tp522
a(VNS2.RESELLER-DNS
p523
F54.54545454545455
I6
tp524
a(VNS2.SUMOSERVER
p525
F50.0
I6
tp526
a(VNS1.HOSTERDADDY.ORG
p527
F100.0
I6
tp528
a(VNS21.IXWEBHOSTING
p529
F4.761904761904762
I6
tp530
a(VNS2.HOSTERDADDY.ORG
p531
F100.0
I6
tp532
a(VDNS3.BIGROCK.IN
p533
F0.4966887417218543
I6
tp534
a(VNS3.DNSOWL
p535
F0.1863932898415657
I6
tp536
a(VNS2.YOURSRS
p537
F0.3663003663003663
I5
tp538
a(VNS2.TIMESIDESTEP
p539
F100.0
I5
tp540
a(VNS2.INFINITEESERVERS
p541
F13.513513513513514
I5
tp542
a(VNS1.TIMESIDESTEP
p543
F100.0
I5
tp544
a(VDNS3.MASTERWEB.NET
p545
F2.1645021645021645
I5
tp546
a(VNS1.HOSTGATOR
p547
F0.5747126436781609
I5
tp548
a(VNS2.BLOCK-DDOSS.NET
p549
F35.714285714285715
I5
tp550
a(VNS2.JAMBOWEB.NET
p551
F31.25
I5
tp552
a(VDNS12.PARKPAGE.FOUNDATIONAPI
p553
F1.278772378516624
I5
tp554
a(VHOST33.HOSTDATASECURE.NET
p555
F45.45454545454545
I5
tp556
a(VNS2.HOSTING.REG.RU
p557
F3.676470588235294
I5
tp558
a(VNS2508.ZTOMY
p559
F1.0593220338983051
I5
tp560
a(VNS2.GVODNS
p561
F6.8493150684931505
I5
tp562
a(VNS2.DDOSCLOSED
p563
F100.0
I5
tp564
a(VNS2.WEBSITEWELCOME
p565
F4.672897196261682
I5
tp566
a(VNS1.SHOREBROOK
p567
F11.904761904761905
I5
tp568
a(VNS2.SHOREBROOK
p569
F11.904761904761905
I5
tp570
a(VNS2.ASOSHARED
p571
F5.154639175257732
I5
tp572
a(VNS3.DOMINIOS.UOL.COM.BR
p573
F1.1494252873563218
I5
tp574
a(VNS1-PRESIDENT.VIVAWEBHOST
p575
F50.0
I5
tp576
a(VSIMA.NS.CLOUDFLARE
p577
F10.0
I5
tp578
a(VNS1.DOMINIOS.UOL.COM.BR
p579
F1.1415525114155252
I5
tp580
a(VNS.PARKTONS
p581
F2.5510204081632653
I5
tp582
a(VNS2.THCSERVERS
p583
F3.90625
I5
tp584
a(VNS1.DAMIAKAFTA.IN
p585
F25.0
I5
tp586
a(VNS1.WEBSITEWELCOME
p587
F4.672897196261682
I5
tp588
a(VNS2.DOMINIOS.UOL.COM.BR
p589
F1.1415525114155252
I5
tp590
a(VDNS2.REBEL
p591
F5.05050505050505
I5
tp592
a(VNS1.YOURSRS
p593
F0.3663003663003663
I5
tp594
a(VDNS2.MASTERWEB
p595
F2.347417840375587
I5
tp596
a(VHOST32.HOSTDATASECURE.NET
p597
F45.45454545454545
I5
tp598
a(VNS1.OK2HOST
p599
F71.42857142857143
I5
tp600
a(VMARJORY.NS.CLOUDFLARE
p601
F7.936507936507937
I5
tp602
a(VNS1.BLOCK-DDOSS.NET
p603
F35.714285714285715
I5
tp604
a(VNS2.PARKTONS
p605
F2.5510204081632653
I5
tp606
a(VNS2.ALICES-REGISTRY
p607
F35.714285714285715
I5
tp608
a(VNS1.THCSERVERS
p609
F3.90625
I5
tp610
a(VDNS.REBEL
p611
F5.05050505050505
I5
tp612
a(VB.DNSPOD
p613
F0.1922337562475971
I5
tp614
a(VDNS1.MASTERWEB
p615
F2.3696682464454977
I5
tp616
a(VNS2-PRESIDENT.VIVAWEBHOST
p617
F50.0
I5
tp618
a(VNS1.CLOUDBWMG
p619
F41.666666666666664
I5
tp620
a(VNS1.INFINITEESERVERS
p621
F13.513513513513514
I5
tp622
a(VNS2.OK2HOST
p623
F71.42857142857143
I5
tp624
a(VNS1.ASOSHARED
p625
F5.154639175257732
I5
tp626
a(VNS1508.ZTOMY
p627
F1.0593220338983051
I5
tp628
a(VNS1.DDOSCLOSED
p629
F100.0
I5
tp630
a(VEX1.NATROHOST
p631
F0.241196333815726
I5
tp632
a(VNS2.HOSTGATOR
p633
F0.5747126436781609
I5
tp634
a(VNADIA.NS.CLOUDFLARE
p635
F3.125
I5
tp636
a(VA.DNSPOD
p637
F0.18932222642938282
I5
tp638
a(VNS2.DAMIAKAFTA.IN
p639
F25.0
I5
tp640
a(VNS1.ALICES-REGISTRY
p641
F35.714285714285715
I5
tp642
a(VLEAH.NS.CLOUDFLARE
p643
F5.0
I5
tp644
a(VEX2.NATROHOST
p645
F0.241196333815726
I5
tp646
a(VNS1.GVODNS
p647
F6.756756756756757
I5
tp648
a(VNS2.CLOUDBWMG
p649
F41.666666666666664
I5
tp650
a(VNS1.HOSTING.REG.RU
p651
F3.6496350364963503
I5
tp652
a(VNS1.JAMBOWEB.NET
p653
F31.25
I5
tp654
a(VNS02.ONE
p655
F0.3988035892323031
I4
tp656
a(VC.NS.INTERLAND.NET
p657
F0.6837606837606838
I4
tp658
a(VNS1.WEBSERVERSYSTEMS
p659
F0.60882800608828
I4
tp660
a(VNS1626.ZTOMY
p661
F0.1951219512195122
I4
tp662
a(VNS1.MEGAHOSTINGSPOT
p663
F10.526315789473685
I4
tp664
a(VNS8082.HOSTGATOR
p665
F22.22222222222222
I4
tp666
a(VNS1.SKILLETCREEKMEDIA
p667
F36.36363636363637
I4
tp668
a(VNS2.WORDPRESS
p669
F0.11270780501549732
I4
tp670
a(VNS2.ITSEBA
p671
F100.0
I4
tp672
a(VNS2.MYWEBSERVER.CO.ZA
p673
F25.0
I4
tp674
a(VNS1.MYWEBSERVER.CO.ZA
p675
F25.0
I4
tp676
a(VNS4.DEOSETR.AT
p677
F80.0
I4
tp678
a(VDOUG.NS.CLOUDFLARE
p679
F7.407407407407407
I4
tp680
a(VNS4.MONOVM
p681
F40.0
I4
tp682
a(VNS2.REDEHOST.COM.BR
p683
F1.2539184952978057
I4
tp684
a(VPAM.NS.CLOUDFLARE
p685
F4.0
I4
tp686
a(VDNS-NS12.WISTEE.FR
p687
F11.764705882352942
I4
tp688
a(VNS8219.HOSTGATOR
p689
F16.0
I4
tp690
a(VNS2.SQUID.ARVIXE
p691
F25.0
I4
tp692
a(VNS2.SUPERCP
p693
F3.389830508474576
I4
tp694
a(VNS4.THCSERVERS
p695
F5.2631578947368425
I4
tp696
a(VGAURADECHIUVETA
p697
F10.526315789473685
I4
tp698
a(VNS2.DNSKING.PW
p699
F50.0
I4
tp700
a(VNS4.ENSJAMMU
p701
F8.333333333333334
I4
tp702
a(VNS8495.HOSTGATOR
p703
F13.333333333333334
I4
tp704
a(VDNS18.PARKPAGE.FOUNDATIONAPI
p705
F0.9478672985781991
I4
tp706
a(VNS2.WEBSERVERSYSTEMS
p707
F0.60882800608828
I4
tp708
a(VNS3.PWSNS
p709
F36.36363636363637
I4
tp710
a(VNS112.MSCHOSTING
p711
F4.49438202247191
I4
tp712
a(VNS4.GROOMHOST
p713
F9.75609756097561
I4
tp714
a(VKEVIN.NS.CLOUDFLARE
p715
F10.81081081081081
I4
tp716
a(VNS142.PRODNS.COM.BR
p717
F100.0
I4
tp718
a(VNS11.AZ.PL
p719
F8.88888888888889
I4
tp720
a(VNS2.SKILLETCREEKMEDIA
p721
F36.36363636363637
I4
tp722
a(VDNS17.PARKPAGE.FOUNDATIONAPI
p723
F0.9478672985781991
I4
tp724
a(VNS6334.HOSTGATOR
p725
F16.0
I4
tp726
a(VNS2.MEGAHOSTINGSPOT
p727
F10.526315789473685
I4
tp728
a(VCOCO.NS.CLOUDFLARE
p729
F5.0
I4
tp730
a(VNS2.GEEKS-SERVER
p731
F100.0
I4
tp732
a(VNS01.ONE
p733
F0.3988035892323031
I4
tp734
a(VNS2.READY2HOST.IN
p735
F21.05263157894737
I4
tp736
a(VNS2.ARVIXESHARED
p737
F1.3245033112582782
I4
tp738
a(VNS1.ITSEBA
p739
F100.0
I4
tp740
a(VNS4.ACLOYHOSTING
p741
F80.0
I4
tp742
a(VNS6333.HOSTGATOR
p743
F16.0
I4
tp744
a(VNS5.ACLOYHOSTING
p745
F80.0
I4
tp746
a(VNS1.DNSKING.PW
p747
F50.0
I4
tp748
a(VNS1.DEOSETR.AT
p749
F80.0
I4
tp750
a(VNS2.DEOSETR.AT
p751
F80.0
I4
tp752
a(VARNOLD.NS.CLOUDFLARE
p753
F7.8431372549019605
I4
tp754
a(VNS10.SREEJAININFOTECH.NET
p755
F26.666666666666668
I4
tp756
a(VIBNS.VENUS.ORDERBOX-DNS
p757
F2.985074626865672
I4
tp758
a(VNS2.PWSNS
p759
F36.36363636363637
I4
tp760
a(VNS2.MEDIATEMPLE.NET
p761
F0.8163265306122449
I4
tp762
a(VNS1.GEEKS-SERVER
p763
F100.0
I4
tp764
a(VNS1.LEWEBEXY
p765
F66.66666666666667
I4
tp766
a(VDAWN.NS.CLOUDFLARE
p767
F7.6923076923076925
I4
tp768
a(VNS10.AZ.PL
p769
F8.88888888888889
I4
tp770
a(VNS8081.HOSTGATOR
p771
F22.22222222222222
I4
tp772
a(VNS144.NEUBOX.NET
p773
F2.5477707006369426
I4
tp774
a(VNS1.PWSNS
p775
F33.333333333333336
I4
tp776
a(VNS-USA.TOPDNS
p777
F0.5706134094151213
I4
tp778
a(VB.NS.INTERLAND.NET
p779
F0.5813953488372093
I4
tp780
a(VNS1.GENIUS-GUARDS
p781
F44.44444444444444
I4
tp782
a(VNS143.NEUBOX.NET
p783
F2.5477707006369426
I4
tp784
a(VNS2626.ZTOMY
p785
F0.1951219512195122
I4
tp786
a(VNS1.WORDPRESS
p787
F0.11283497884344147
I4
tp788
a(VDNS-NS1.WISTEE.FR
p789
F11.764705882352942
I4
tp790
a(VNS1.MEDIATEMPLE.NET
p791
F0.8163265306122449
I4
tp792
a(VNS12.AZ.PL
p793
F8.88888888888889
I4
tp794
a(VNS1.SUPERCP
p795
F3.389830508474576
I4
tp796
a(VNS3.ENSJAMMU
p797
F8.333333333333334
I4
tp798
a(VNS100.HOSTWHITELABEL
p799
F22.22222222222222
I4
tp800
a(VNS1.CSOF.NET
p801
F20.0
I4
tp802
a(VNS1.DNSMAN.PW
p803
F50.0
I4
tp804
a(VNS3.GROOMHOST
p805
F9.75609756097561
I4
tp806
a(VNS2.GENIUS-GUARDS
p807
F44.44444444444444
I4
tp808
a(VIBNS.EARTH.ORDERBOX-DNS
p809
F2.962962962962963
I4
tp810
a(VMAREK.NS.CLOUDFLARE
p811
F13.333333333333334
I4
tp812
a(VNS11.SREEJAININFOTECH.NET
p813
F26.666666666666668
I4
tp814
a(VNS-CANADA.TOPDNS
p815
F0.5747126436781609
I4
tp816
a(VNS1.ARVIXESHARED
p817
F1.3245033112582782
I4
tp818
a(VNS1.READY2HOST.IN
p819
F21.05263157894737
I4
tp820
a(VNS1.BH-IN-9.WEBHOSTBOX.NET
p821
F15.384615384615385
I4
tp822
a(VNS3.DEOSETR.AT
p823
F80.0
I4
tp824
a(VNS2.DNSMAN.PW
p825
F50.0
I4
tp826
a(VNS-UK.TOPDNS
p827
F0.56657223796034
I4
tp828
a(VNS111.MSCHOSTING
p829
F4.49438202247191
I4
tp830
a(VNS1-MARS.SERVERFORHOST
p831
F21.05263157894737
I4
tp832
a(VNS2.PRISMHUBHOSTING
p833
F18.181818181818183
I4
tp834
a(VNS200.HOSTWHITELABEL
p835
F22.22222222222222
I4
tp836
a(VNS2.LEWEBEXY
p837
F66.66666666666667
I4
tp838
a(VNS1.SQUID.ARVIXE
p839
F25.0
I4
tp840
a(VNS3.MONOVM
p841
F40.0
I4
tp842
a(VNS2.BH-IN-9.WEBHOSTBOX.NET
p843
F15.384615384615385
I4
tp844
a(VIBNS.MARS.ORDERBOX-DNS
p845
F2.962962962962963
I4
tp846
a(VNS3.MYWEBSERVER.CO.ZA
p847
F25.0
I4
tp848
a(VNS8220.HOSTGATOR
p849
F16.0
I4
tp850
a(VNS1.REDEHOST.COM.BR
p851
F1.2539184952978057
I4
tp852
a(VNS1.PRISMHUBHOSTING
p853
F18.181818181818183
I4
tp854
a(VNS2-MARS.SERVERFORHOST
p855
F21.05263157894737
I4
tp856
a(VNS143.PRODNS.COM.BR
p857
F100.0
I4
tp858
a(VA.NS.INTERLAND.NET
p859
F0.5830903790087464
I4
tp860
a(VIBNS.MERCURY.ORDERBOX-DNS
p861
F2.985074626865672
I4
tp862
a(VNS3.THCSERVERS
p863
F5.2631578947368425
I4
tp864
a(VALEC.NS.CLOUDFLARE
p865
F12.5
I4
tp866
a(VNS8496.HOSTGATOR
p867
F13.333333333333334
I4
tp868
a(VNS4.CSOF.NET
p869
F20.0
I4
tp870
a(VEVA.NS.CLOUDFLARE
p871
F13.636363636363637
I3
tp872
a(VDNS2.MARKUM.NET
p873
F3.1578947368421053
I3
tp874
a(VNS2.VERINETINTERNET
p875
F25.0
I3
tp876
a(VNS1.ISIMTESCIL.NET
p877
F0.9230769230769231
I3
tp878
a(VNS1.UNRAMPURRE.PW
p879
F100.0
I3
tp880
a(VNS1.TIMEWEB.RU
p881
F3.7037037037037037
I3
tp882
a(VNS2.24365POWERHOST
p883
F6.666666666666667
I3
tp884
a(VNS1.UNIREGISTRYMARKET.LINK
p885
F0.0010465286644201184
I3
tp886
a(VNS1.HOLIKA
p887
F12.5
I3
tp888
a(VNS2.WGUPAPERS
p889
F27.272727272727273
I3
tp890
a(VNS21.DATTATEC
p891
F2.3622047244094486
I3
tp892
a(VNS1.ABYSMDEMON.PW
p893
F42.857142857142854
I3
tp894
a(VNS1.2BHOSTED.EU
p895
F27.272727272727273
I3
tp896
a(VROXY.NS.CLOUDFLARE
p897
F5.172413793103448
I3
tp898
a(VNS1.LYNXSERVER
p899
F75.0
I3
tp900
a(VDNS2.SPIRIT-PARKED-PAGES.NET
p901
F3.75
I3
tp902
a(VNS1.WEBHOSTINGPAD
p903
F3.0927835051546393
I3
tp904
a(VNS8.CONECTARHOSTING
p905
F18.75
I3
tp906
a(VNS1.PACEINFONET
p907
F60.0
I3
tp908
a(VNS19.XINCACHE
p909
F0.05131713992473486
I3
tp910
a(VNS5.ZA-DNS
p911
F15.789473684210526
I3
tp912
a(VNS11.VALUE-DOMAIN
p913
F0.3994673768308921
I3
tp914
a(VNS1.DESIGNLOVERS.NET
p915
F100.0
I3
tp916
a(VDNSIIX3.QWORDS.NET
p917
F15.0
I3
tp918
a(VNS2.WEBKRAFTKENYA.CO.KE
p919
F17.647058823529413
I3
tp920
a(VNS-UK.1AND1-DNS.ORG
p921
F0.46296296296296297
I3
tp922
a(VNS1.FASTDNS.HOSTING
p923
F4.3478260869565215
I3
tp924
a(VDELL.NS.CLOUDFLARE
p925
F12.5
I3
tp926
a(VNS2.HOLIKA
p927
F12.5
I3
tp928
a(VDNS1.ZONEEDIT
p929
F18.75
I3
tp930
a(VDNS1.NEWSITEDNS2.RU
p931
F30.0
I3
tp932
a(VNS101.WEBHOSTINGBUZZ
p933
F0.7731958762886598
I3
tp934
a(VCNS133.HOSTGATOR
p935
F4.838709677419355
I3
tp936
a(VNS2.VILLAMARKETERS
p937
F16.666666666666668
I3
tp938
a(VCHIN.NS.CLOUDFLARE
p939
F7.142857142857143
I3
tp940
a(VNS4.LWSDNS
p941
F1.935483870967742
I3
tp942
a(VNS-UK.1AND1-DNS
p943
F0.46801872074882994
I3
tp944
a(VNS.OTHERDNS
p945
F2.3255813953488373
I3
tp946
a(VNS1.DONWEB.CL
p947
F2.479338842975207
I3
tp948
a(VCLOUDCP9.HOSTSTOREBD
p949
F100.0
I3
tp950
a(VDANA.NS.CLOUDFLARE
p951
F5.882352941176471
I3
tp952
a(VDNS3.PARKPAGE.FOUNDATIONAPI
p953
F0.39267015706806285
I3
tp954
a(VNS5.APPSILONZ.NET
p955
F100.0
I3
tp956
a(VNS2.ATLANTICWESTMANAGEMENT
p957
F6.976744186046512
I3
tp958
a(V1.NSEASY
p959
F7.894736842105263
I3
tp960
a(VNS-UK.1AND1-DNS.BIZ
p961
F0.4622496147919877
I3
tp962
a(VNS1.SERVERS999
p963
F8.571428571428571
I3
tp964
a(VNS2.KODDOS
p965
F100.0
I3
tp966
a(VNS2.STABLEHOST
p967
F2.2058823529411766
I3
tp968
a(VNS2.WEB4AFRICA
p969
F5.0
I3
tp970
a(VNS1.CCNTECHNOLOGIES
p971
F100.0
I3
tp972
a(VNS1.VILLAMARKETERS
p973
F16.666666666666668
I3
tp974
a(VNS2.TSOHOST.CO.UK
p975
F1.4634146341463414
I3
tp976
a(VNS1.DONWEB.UY
p977
F2.479338842975207
I3
tp978
a(VNS2.NATROHOST
p979
F0.31512605042016806
I3
tp980
a(VNS101.WEBNIC.CC
p981
F0.3058103975535168
I3
tp982
a(VNS3.A2HOSTING
p983
F1.1111111111111112
I3
tp984
a(VNS2.PRISMHUBONLINESOLUTIONS
p985
F6.976744186046512
I3
tp986
a(VNS2.AMENWORLD
p987
F5.357142857142857
I3
tp988
a(VNS1763.WEBSITEWELCOME
p989
F50.0
I3
tp990
a(VNS4.CYBEXHOSTING
p991
F100.0
I3
tp992
a(VNS1.PWEBT
p993
F100.0
I3
tp994
a(VNS1.GLOBALTELPERU
p995
F13.043478260869565
I3
tp996
a(VNS2.DESIGNLOVERS.NET
p997
F100.0
I3
tp998
a(VNS2.MYWAPKAHOST
p999
F100.0
I3
tp1000
a(VRS140.REGISTRAR-SERVERS
p1001
F25.0
I3
tp1002
a(VNS1-MAHANADI.EWEBGURU
p1003
F100.0
I3
tp1004
a(VNS1.EGLUEWEB
p1005
F37.5
I3
tp1006
a(VHOST8B.VEEBLEHOSTING
p1007
F50.0
I3
tp1008
a(VNS3.HOSTMAR
p1009
F2.112676056338028
I3
tp1010
a(VHOST8A.VEEBLEHOSTING
p1011
F50.0
I3
tp1012
a(VNS1.LWS-HOSTING.BIZ
p1013
F1.9607843137254901
I3
tp1014
a(VNS2.YOURSERVERSDNS
p1015
F30.0
I3
tp1016
a(VNS1.STABLEHOST
p1017
F2.2058823529411766
I3
tp1018
a(VNS1.WEBKRAFTKENYA.CO.KE
p1019
F17.647058823529413
I3
tp1020
a(VNS1.THECOLOURMOON
p1021
F37.5
I3
tp1022
a(VNS.OTHERDNS.NET
p1023
F2.2388059701492535
I3
tp1024
a(VNS100.WEBNIC.CC
p1025
F0.3058103975535168
I3
tp1026
a(VNS2-MAHANADI.EWEBGURU
p1027
F100.0
I3
tp1028
a(VNS1.TRAXHOST
p1029
F2.4
I3
tp1030
a(VNS5.WEBCOMINDIA.NET
p1031
F42.857142857142854
I3
tp1032
a(VNS-UK.1AND1-DNS.CO.UK
p1033
F0.4622496147919877
I3
tp1034
a(VDUKE.NS.CLOUDFLARE
p1035
F1.6129032258064515
I3
tp1036
a(VNS.DNS1.CO.ZA
p1037
F2.2058823529411766
I3
tp1038
a(VNS2.ELITEJEWISHINTRODUCTIONS
p1039
F42.857142857142854
I3
tp1040
a(VCLOUDCP10.HOSTSTOREBD
p1041
F100.0
I3
tp1042
a(VNS3.WORDPRESS
p1043
F0.5565862708719852
I3
tp1044
a(VNS2.123-REG.CO.UK
p1045
F0.2336448598130841
I3
tp1046
a(VED.NS.CLOUDFLARE
p1047
F5.0
I3
tp1048
a(VNS3.FASTDNS.HOSTING
p1049
F4.615384615384615
I3
tp1050
a(VNS1.MYWAPKAHOST
p1051
F100.0
I3
tp1052
a(VDNS2.STABLETRANSIT
p1053
F0.430416068866571
I3
tp1054
a(V2.NSEASY
p1055
F7.894736842105263
I3
tp1056
a(VNS2.MATBAO
p1057
F1.4354066985645932
I3
tp1058
a(VJUMING.DNSDUN
p1059
F0.08605851979345955
I3
tp1060
a(VNS1.KODDOS
p1061
F100.0
I3
tp1062
a(VNS2.SHOPCO
p1063
F2.0408163265306123
I3
tp1064
a(VJUMING.DNSDUN.NET
p1065
F0.0859106529209622
I3
tp1066
a(VNS2.PWEBT
p1067
F100.0
I3
tp1068
a(VNS1.ATLANTICWESTMANAGEMENT
p1069
F6.976744186046512
I3
tp1070
a(VNS1-DOMINIO-SUSPENDIDO.TRAXHOST
p1071
F1.075268817204301
I3
tp1072
a(VNS.123-REG.CO.UK
p1073
F0.23346303501945526
I3
tp1074
a(VDNS1.MARKUM.NET
p1075
F3.1578947368421053
I3
tp1076
a(VDNS2.NEWSITEDNS2.RU
p1077
F30.0
I3
tp1078
a(VNS1.MATBAO
p1079
F1.4354066985645932
I3
tp1080
a(VDNS2.ZONEEDIT
p1081
F18.75
I3
tp1082
a(VNS2.ISIMTESCIL.NET
p1083
F0.9230769230769231
I3
tp1084
a(VDNSIIX2.QWORDS.NET
p1085
F3.75
I3
tp1086
a(VNS1.WGUPAPERS
p1087
F27.272727272727273
I3
tp1088
a(VNS1.YOURSERVERSDNS
p1089
F30.0
I3
tp1090
a(VNS15.MIDPHASE
p1091
F4.6875
I3
tp1092
a(VNS1.UNIFYCOUAC.PW
p1093
F42.857142857142854
I3
tp1094
a(VNS1.DONWEB.CO
p1095
F2.4390243902439024
I3
tp1096
a(VNS3.WEB4AFRICA
p1097
F4.918032786885246
I3
tp1098
a(VRUDY.NS.CLOUDFLARE
p1099
F5.555555555555555
I3
tp1100
a(VNS3.CYBEXHOSTING
p1101
F100.0
I3
tp1102
a(VNS1.DONWEB.MX
p1103
F2.4193548387096775
I3
tp1104
a(VNS3.ZA-DNS
p1105
F15.789473684210526
I3
tp1106
a(VDNSIIX1.QWORDS.NET
p1107
F3.75
I3
tp1108
a(VNS2-DOMINIO-SUSPENDIDO.TRAXHOST
p1109
F1.075268817204301
I3
tp1110
a(VNS2.DONWEB.PE
p1111
F2.479338842975207
I3
tp1112
a(VNS1.HIKTIK
p1113
F100.0
I3
tp1114
a(VNS2.HE.NET
p1115
F1.0416666666666667
I3
tp1116
a(VNS2.EGLUEWEB
p1117
F37.5
I3
tp1118
a(VNS1-LORD.VIVAWEBHOST
p1119
F50.0
I3
tp1120
a(VNS1.TSOHOST.CO.UK
p1121
F1.4563106796116505
I3
tp1122
a(VNS2.GLOBALTEL.PE
p1123
F8.571428571428571
I3
tp1124
a(VNS1.EM241.SGDED
p1125
F75.0
I3
tp1126
a(VNS1.NET4INDIA
p1127
F2.0833333333333335
I3
tp1128
a(VNS2.GLOBALTELPERU
p1129
F13.043478260869565
I3
tp1130
a(VNS2.THECOLOURMOON
p1131
F37.5
I3
tp1132
a(VNS3.HE.NET
p1133
F1.1029411764705883
I3
tp1134
a(VNS1.SNURTWAGON.PW
p1135
F100.0
I3
tp1136
a(VNS2.BYET.ORG
p1137
F3.5714285714285716
I3
tp1138
a(VNS12.IXWEBHOSTING
p1139
F12.0
I3
tp1140
a(VNS66.DOMAINCONTROL
p1141
F1.0033444816053512
I3
tp1142
a(VNS.DNS2.CO.ZA
p1143
F2.2058823529411766
I3
tp1144
a(VNS1.AMENWORLD
p1145
F5.357142857142857
I3
tp1146
a(VNS1.VERINETINTERNET
p1147
F25.0
I3
tp1148
a(VNS2.PACEINFONET
p1149
F60.0
I3
tp1150
a(VNS2.2BHOSTED.EU
p1151
F27.272727272727273
I3
tp1152
a(VNS1.BYET.ORG
p1153
F3.5714285714285716
I3
tp1154
a(VNS7.CONECTARHOSTING
p1155
F18.75
I3
tp1156
a(VNS16.KNOWNSRV
p1157
F21.428571428571427
I3
tp1158
a(VNS1.LINODE
p1159
F0.8620689655172413
I3
tp1160
a(VNS1764.WEBSITEWELCOME
p1161
F50.0
I3
tp1162
a(VNS1.SHOPCO
p1163
F2.0547945205479454
I3
tp1164
a(VNS100.WEBHOSTINGBUZZ
p1165
F0.8356545961002786
I3
tp1166
a(VNS1.24365POWERHOST
p1167
F6.666666666666667
I3
tp1168
a(VRS40.REGISTRAR-SERVERS
p1169
F25.0
I3
tp1170
a(VANDY.NS.CLOUDFLARE
p1171
F4.477611940298507
I3
tp1172
a(VNS2.HIKTIK
p1173
F100.0
I3
tp1174
a(VNS2.TIMEWEB.RU
p1175
F3.7037037037037037
I3
tp1176
a(VNS65.DOMAINCONTROL
p1177
F1.0033444816053512
I3
tp1178
a(VNS1.PRISMHUBONLINESOLUTIONS
p1179
F6.976744186046512
I3
tp1180
a(VNS1.ATGFX.HOST
p1181
F50.0
I3
tp1182
a(VDNS1.STABLETRANSIT
p1183
F0.4297994269340974
I3
tp1184
a(VNS1.LIPPYBABUL.PW
p1185
F42.857142857142854
I3
tp1186
a(VNS1.GLOBALTEL.PE
p1187
F8.571428571428571
I3
tp1188
a(VNS13.VALUE-DOMAIN
p1189
F0.3994673768308921
I3
tp1190
a(VNS2.LYNXSERVER
p1191
F75.0
I3
tp1192
a(VTERIN.NS.CLOUDFLARE
p1193
F8.823529411764707
I3
tp1194
a(VNS2.HOSTMONSTER
p1195
F0.5208333333333334
I3
tp1196
a(VCNS134.HOSTGATOR
p1197
F4.838709677419355
I3
tp1198
a(VNS1.DATTATEC.ES
p1199
F2.479338842975207
I3
tp1200
a(VNS2.MECADASOME
p1201
F100.0
I3
tp1202
a(VNS2.LWS-HOSTING.BIZ
p1203
F1.9607843137254901
I3
tp1204
a(VNS4.HE.NET
p1205
F1.1152416356877324
I3
tp1206
a(VNS4.WEB4AFRICA
p1207
F4.918032786885246
I3
tp1208
a(VNS2.ATGFX.HOST
p1209
F50.0
I3
tp1210
a(VNS1.NATROHOST
p1211
F0.3157894736842105
I3
tp1212
a(VNS3.2BHOSTED.NET
p1213
F27.272727272727273
I3
tp1214
a(VGABE.NS.CLOUDFLARE
p1215
F6.382978723404255
I3
tp1216
a(VNS3.SHOPCO
p1217
F1.9867549668874172
I3
tp1218
a(VNS3.LWSDNS
p1219
F1.935483870967742
I3
tp1220
a(VNS2.LINODE
p1221
F0.8645533141210374
I3
tp1222
a(VNS2.DONWEB.BO
p1223
F2.5
I3
tp1224
a(VNS4.A2HOSTING
p1225
F1.1194029850746268
I3
tp1226
a(VNS12.VALUE-DOMAIN
p1227
F0.3994673768308921
I3
tp1228
a(VNS6.APPSILONZ.NET
p1229
F100.0
I3
tp1230
a(VJIM.NS.CLOUDFLARE
p1231
F10.344827586206897
I3
tp1232
a(VNS1.ELITEJEWISHINTRODUCTIONS
p1233
F42.857142857142854
I3
tp1234
a(VNS1.CHACKCHEIR.PW
p1235
F42.857142857142854
I3
tp1236
a(VNS14.MIDPHASE
p1237
F4.6875
I3
tp1238
a(VNS20.XINCACHE
p1239
F0.05131713992473486
I3
tp1240
a(VDNSIIX4.QWORDS.NET
p1241
F15.789473684210526
I3
tp1242
a(VNS2-LORD.VIVAWEBHOST
p1243
F50.0
I3
tp1244
a(VMONA.NS.CLOUDFLARE
p1245
F7.894736842105263
I3
tp1246
a(VDNS4.PARKPAGE.FOUNDATIONAPI
p1247
F0.39267015706806285
I3
tp1248
a(VNS1.NETFIRMS
p1249
F0.6521739130434783
I3
tp1250
a(VNS15.KNOWNSRV
p1251
F21.428571428571427
I3
tp1252
a(VNS2.KRYSTALHOST.COM.MX
p1253
F75.0
I3
tp1254
a(VNS2.CCNTECHNOLOGIES
p1255
F100.0
I3
tp1256
a(VNS11.IXWEBHOSTING
p1257
F12.0
I3
tp1258
a(VNS2.WEBHOSTINGPAD
p1259
F3.0927835051546393
I3
tp1260
a(VNS1.MECADASOME
p1261
F100.0
I3
tp1262
a(VNS4.WEBCOMINDIA.NET
p1263
F42.857142857142854
I3
tp1264
a(VNS2.UNIREGISTRYMARKET.LINK
p1265
F0.0010465286644201184
I3
tp1266
a(VNS16.MIDPHASE
p1267
F4.838709677419355
I3
tp1268
a(VNS2.SERVERS999
p1269
F8.571428571428571
I3
tp1270
a(VNS2.FASTDNS.HOSTING
p1271
F4.411764705882353
I3
tp1272
a(VNS1.HOSTMONSTER
p1273
F0.5208333333333334
I3
tp1274
a(VNS2.NETFIRMS
p1275
F0.6521739130434783
I3
tp1276
a(VNS2.DONWEB.COM.BR
p1277
F2.5
I3
tp1278
a(VNS2.EM241.SGDED
p1279
F75.0
I3
tp1280
a(VNS1.WEB4AFRICA
p1281
F5.0
I3
tp1282
a(VNS1.KRYSTALHOST.COM.MX
p1283
F75.0
I3
tp1284
a(VIGOR.NS.CLOUDFLARE
p1285
F10.344827586206897
I3
tp1286
a(VDNS1.SPIRIT-PARKED-PAGES.NET
p1287
F3.75
I3
tp1288
a(VDNS2.EITOW
p1289
F100.0
I2
tp1290
a(VNS1.ELECTROHOSTING.COM.NS-NOT-IN-SERVICE
p1291
F100.0
I2
tp1292
a(VNS6531.HOSTGATOR
p1293
F11.764705882352942
I2
tp1294
a(VDNS3.ILISYS.COM.AU
p1295
F28.571428571428573
I2
tp1296
a(VNS36.SUPERDOMAINZONE
p1297
F100.0
I2
tp1298
a(VNS4.IDHOSTINGER
p1299
F1.2578616352201257
I2
tp1300
a(VNS2.HOSPEDAGEMDESITESSC.COM.BR
p1301
F100.0
I2
tp1302
a(VNS1.PQL.NET
p1303
F0.156128024980484
I2
tp1304
a(VNS2.WEBPULSEINDIA
p1305
F66.66666666666667
I2
tp1306
a(VNS2.RICHIESOLUTIONS
p1307
F28.571428571428573
I2
tp1308
a(VNS1.HOSTINGACRES
p1309
F100.0
I2
tp1310
a(VNS1.SERVIDORWEBFACIL
p1311
F14.285714285714286
I2
tp1312
a(VNS102.MSCHOSTING
p1313
F11.11111111111111
I2
tp1314
a(VLADY.NS.CLOUDFLARE
p1315
F2.3529411764705883
I2
tp1316
a(VNS2.MSECUREDFILEZ.NET
p1317
F100.0
I2
tp1318
a(VNS2.FATCOW
p1319
F1.0309278350515463
I2
tp1320
a(VNS1.WEBSITEHOSTSERVER.NET
p1321
F1.9230769230769231
I2
tp1322
a(VROB.NS.CLOUDFLARE
p1323
F10.0
I2
tp1324
a(VNS1.DTRADING.ARVIXEVPS
p1325
F22.22222222222222
I2
tp1326
a(VNS2.3BROTHERSIT
p1327
F66.66666666666667
I2
tp1328
a(VNS2.REDMONDDC
p1329
F0.08499787505312367
I2
tp1330
a(VNS5.BYET.ORG
p1331
F6.451612903225806
I2
tp1332
a(VNS2.HOST-H.NET
p1333
F4.25531914893617
I2
tp1334
a(VNS8.WEBDEVWORLD
p1335
F66.66666666666667
I2
tp1336
a(VNS-ES.1AND1-DNS.BIZ
p1337
F0.3875968992248062
I2
tp1338
a(VCPNS1.TURHOST
p1339
F1.7699115044247788
I2
tp1340
a(VNS2.WEBCREATIONHOST
p1341
F100.0
I2
tp1342
a(VNS1.CBSINET.BIZ
p1343
F100.0
I2
tp1344
a(VDAHLIA.NS.CLOUDFLARE
p1345
F5.882352941176471
I2
tp1346
a(VNS4.BYET.ORG
p1347
F4.545454545454546
I2
tp1348
a(VNS4.HOSTGRAF.NET
p1349
F66.66666666666667
I2
tp1350
a(VNS1923.HOSTGATOR
p1351
F66.66666666666667
I2
tp1352
a(VNS1755.WEBSITEWELCOME
p1353
F50.0
I2
tp1354
a(VNS1.FATCOW
p1355
F1.0256410256410255
I2
tp1356
a(VNS3.EHOSTNG
p1357
F66.66666666666667
I2
tp1358
a(VDNS2.ILISYS.COM.AU
p1359
F28.571428571428573
I2
tp1360
a(VNS2.LAGUNAWEBHOSTING
p1361
F100.0
I2
tp1362
a(VNS102.OURDNSSERVERS.IN
p1363
F100.0
I2
tp1364
a(VNS1.NDSPLITTER
p1365
F0.273224043715847
I2
tp1366
a(VNS77.WORLDNIC
p1367
F7.407407407407407
I2
tp1368
a(VNS1.MACKERELPRODUCTIONS
p1369
F20.0
I2
tp1370
a(VNS3.ALASTYR
p1371
F2.0
I2
tp1372
a(VNS684.HOSTGATOR.COM.BR
p1373
F7.6923076923076925
I2
tp1374
a(VNS13.DNSMADEEASY
p1375
F2.7777777777777777
I2
tp1376
a(VNS3.INSTANTCPANELHOSTING
p1377
F100.0
I2
tp1378
a(VNS4.VKAREIT
p1379
F66.66666666666667
I2
tp1380
a(VNS2DKY.NAME
p1381
F2.127659574468085
I2
tp1382
a(VDNS2.M4MG
p1383
F66.66666666666667
I2
tp1384
a(VNS2.HOSTPAPA
p1385
F1.3793103448275863
I2
tp1386
a(VNS2-ARAVALI.SERVERFORHOST
p1387
F25.0
I2
tp1388
a(VCLEO.NS.CLOUDFLARE
p1389
F9.523809523809524
I2
tp1390
a(VNAOMI.NS.CLOUDFLARE
p1391
F7.142857142857143
I2
tp1392
a(VNS4DMX.NAME
p1393
F1.8518518518518519
I2
tp1394
a(VNS1.NANOSUPERCLOUD
p1395
F15.384615384615385
I2
tp1396
a(VNS1924.HOSTGATOR
p1397
F66.66666666666667
I2
tp1398
a(VNS344.WEBSITEWELCOME
p1399
F33.333333333333336
I2
tp1400
a(VNS1.DOTVNDNS.VN
p1401
F3.4482758620689653
I2
tp1402
a(VNS4029.HOSTGATOR
p1403
F3.076923076923077
I2
tp1404
a(VNS2.US8.SITEGROUND.US
p1405
F8.0
I2
tp1406
a(VEXP2.LIQU.ID
p1407
F0.04652244708071645
I2
tp1408
a(VNS11.JIXHOST
p1409
F25.0
I2
tp1410
a(VNS4.GKG.NET
p1411
F6.451612903225806
I2
tp1412
a(VNS180.HOSTGATOR.COM.BR
p1413
F1.5625
I2
tp1414
a(VNS1.HOSTMETRO
p1415
F33.333333333333336
I2
tp1416
a(VNS275.WEBSITEWELCOME
p1417
F50.0
I2
tp1418
a(VNS5.LINODE
p1419
F1.4814814814814814
I2
tp1420
a(VDNS2.DNSZONE.PW
p1421
F20.0
I2
tp1422
a(VFREEDNS3.REGISTRAR-SERVERS
p1423
F2.0833333333333335
I2
tp1424
a(VNS222.MIHANWEBHOST
p1425
F5.714285714285714
I2
tp1426
a(VNS8369.HOSTGATOR
p1427
F20.0
I2
tp1428
a(VNS2.AGNATECH
p1429
F66.66666666666667
I2
tp1430
a(VNS4.INSTANTCPANELHOSTING
p1431
F100.0
I2
tp1432
a(VNS1.DKSTACK
p1433
F25.0
I2
tp1434
a(VJAKE.CLOUDLAYAR
p1435
F33.333333333333336
I2
tp1436
a(VNS2NSY.NAME
p1437
F2.1052631578947367
I2
tp1438
a(VNS1.NORTONIT
p1439
F100.0
I2
tp1440
a(VNS2.PARKINGHELP.NET
p1441
F0.2684563758389262
I2
tp1442
a(VNS8525.HOSTGATOR
p1443
F0.7905138339920948
I2
tp1444
a(VNS8.KODDOS
p1445
F100.0
I2
tp1446
a(VNS276.WEBSITEWELCOME
p1447
F50.0
I2
tp1448
a(VNS1.SEMPOI02
p1449
F50.0
I2
tp1450
a(VNS2.NETWORKSAND
p1451
F100.0
I2
tp1452
a(VNS2.SVRDELTA.COM.BR
p1453
F100.0
I2
tp1454
a(VNS1.AGNATECH
p1455
F66.66666666666667
I2
tp1456
a(VNS2.AM77.SGDED
p1457
F40.0
I2
tp1458
a(V12.SUCURIDNS
p1459
F40.0
I2
tp1460
a(VNS1.3BROTHERSIT
p1461
F66.66666666666667
I2
tp1462
a(VNS100.ROOKDNS
p1463
F0.2103049421661409
I2
tp1464
a(VMICHELLE.NS.CLOUDFLARE
p1465
F10.526315789473685
I2
tp1466
a(VNS1.AVIWEBHOST
p1467
F33.333333333333336
I2
tp1468
a(VFREEDNS4.REGISTRAR-SERVERS
p1469
F2.127659574468085
I2
tp1470
a(VNS4.WOOSERVERS
p1471
F100.0
I2
tp1472
a(VNS2.SERVIDORWEBFACIL
p1473
F14.285714285714286
I2
tp1474
a(VNS2.BUDALA.ORG
p1475
F66.66666666666667
I2
tp1476
a(VNS1.PROSPEROSERVER
p1477
F13.333333333333334
I2
tp1478
a(VNS13.TRUEHOSTDNS
p1479
F11.764705882352942
I2
tp1480
a(VNS2.MEDIASUITE.GR
p1481
F100.0
I2
tp1482
a(VNS8526.HOSTGATOR
p1483
F0.7936507936507936
I2
tp1484
a(VNS3.BYET.ORG
p1485
F4.545454545454546
I2
tp1486
a(VNS3.SMART-DNS.COM.AU
p1487
F50.0
I2
tp1488
a(VNS3.LOCAWEB.COM.BR
p1489
F1.3071895424836601
I2
tp1490
a(VNS8201.HOSTGATOR
p1491
F33.333333333333336
I2
tp1492
a(VNS2.DLVIA
p1493
F100.0
I2
tp1494
a(VNS2.DOTVNDNS.VN
p1495
F3.4482758620689653
I2
tp1496
a(VNS3.VKAREIT
p1497
F66.66666666666667
I2
tp1498
a(VFREEDNS2.REGISTRAR-SERVERS
p1499
F1.694915254237288
I2
tp1500
a(VNS12.REALWEBSOLUTION.IN
p1501
F18.181818181818183
I2
tp1502
a(VNS1.BONGOTECH.INFO
p1503
F100.0
I2
tp1504
a(VNS1.DNS-H
p1505
F4.761904761904762
I2
tp1506
a(VNS3.AFRAID.ORG
p1507
F3.7037037037037037
I2
tp1508
a(VNS1.AM77.SGDED
p1509
F40.0
I2
tp1510
a(VNS.DNSPROTECT
p1511
F33.333333333333336
I2
tp1512
a(VNS2.FASTWEBH
p1513
F100.0
I2
tp1514
a(VNS4.SMART-DNS.COM.AU
p1515
F50.0
I2
tp1516
a(VNS2.VATRIOKL.AT
p1517
F100.0
I2
tp1518
a(VNS4030.HOSTGATOR
p1519
F3.076923076923077
I2
tp1520
a(VTOM.NS.CLOUDFLARE
p1521
F2.5974025974025974
I2
tp1522
a(VDNS21.NAME-SERVICES
p1523
F0.12445550715619166
I2
tp1524
a(VNS1.TRANSIP.NET
p1525
F1.1494252873563218
I2
tp1526
a(VNS8456.HOSTGATOR
p1527
F50.0
I2
tp1528
a(VDNS8.MEGALENADOS.RU
p1529
F100.0
I2
tp1530
a(VNS1.BH-65.WEBHOSTBOX.NET
p1531
F13.333333333333334
I2
tp1532
a(VNS1.APLUS.NET
p1533
F11.11111111111111
I2
tp1534
a(VNS1.PLEIADTECHNOLOGIES
p1535
F100.0
I2
tp1536
a(VNS.HOSTLAND.RU
p1537
F8.695652173913043
I2
tp1538
a(VNS1.VIDACLOUD.CO.UK
p1539
F4.651162790697675
I2
tp1540
a(VNS2.WEBSITEHOSTSERVER.NET
p1541
F1.9230769230769231
I2
tp1542
a(VNS2.4.CN
p1543
F0.0114370675358838
I2
tp1544
a(VNS1.CHEAPOFFSHOREVPS.XYZ
p1545
F40.0
I2
tp1546
a(VNS19.IXWEBHOSTING
p1547
F28.571428571428573
I2
tp1548
a(VNS4005.WEBSITEWELCOME
p1549
F100.0
I2
tp1550
a(VNS6581.HOSTGATOR
p1551
F50.0
I2
tp1552
a(VNS2.SRKITSOLUTIONS
p1553
F50.0
I2
tp1554
a(VWEST.NS.CLOUDFLARE
p1555
F12.5
I2
tp1556
a(VNS35.URLNAMESERVER
p1557
F11.11111111111111
I2
tp1558
a(VDNS2.LENOVORULESTHEWORLD.WS
p1559
F66.66666666666667
I2
tp1560
a(VKEN.NS.CLOUDFLARE
p1561
F5.405405405405405
I2
tp1562
a(VNS2.VIPHOSTSEO
p1563
F100.0
I2
tp1564
a(VNS4.ALASTYR
p1565
F2.127659574468085
I2
tp1566
a(VNS1-GENERAL.VIVAWEBHOST
p1567
F66.66666666666667
I2
tp1568
a(VNS36.URLNAMESERVER
p1569
F11.11111111111111
I2
tp1570
a(VDNS1.SUPREMEPANEL2.CO.UK
p1571
F50.0
I2
tp1572
a(VNS3.HOSTLAND.RU
p1573
F8.695652173913043
I2
tp1574
a(VNS2.PQL.NET
p1575
F0.156128024980484
I2
tp1576
a(VNS1194.WEBSITEWELCOME
p1577
F6.25
I2
tp1578
a(VNS5.MYHOSTADMIN.NET
p1579
F0.13333333333333333
I2
tp1580
a(VNS3.TSOHOST.CO.UK
p1581
F1.7857142857142858
I2
tp1582
a(VNS8531.HOSTGATOR
p1583
F2.73972602739726
I2
tp1584
a(VNS10.DNSMADEEASY
p1585
F2.380952380952381
I2
tp1586
a(VNS2.AVIWEBHOST
p1587
F33.333333333333336
I2
tp1588
a(VNS636.WEBSITEWELCOME
p1589
F66.66666666666667
I2
tp1590
a(VNS4.WORLDNIC
p1591
F6.25
I2
tp1592
a(VNS8532.HOSTGATOR
p1593
F2.73972602739726
I2
tp1594
a(VNS2.HOSTMETRO
p1595
F33.333333333333336
I2
tp1596
a(VDNSTEMP2.DOTVNDNS
p1597
F3.076923076923077
I2
tp1598
a(VNS1.7UPHOST.NET
p1599
F50.0
I2
tp1600
a(VNS1.VODIEN
p1601
F7.6923076923076925
I2
tp1602
a(VNS4.RAYGAIN
p1603
F100.0
I2
tp1604
a(VNS1.AAEMS
p1605
F11.11111111111111
I2
tp1606
a(VNS1.SMOOZILLA
p1607
F9.090909090909092
I2
tp1608
a(VSAM.NS.CLOUDFLARE
p1609
F7.407407407407407
I2
tp1610
a(VNS14.DNSMADEEASY
p1611
F3.389830508474576
I2
tp1612
a(VNS1257.WEBSITEWELCOME
p1613
F33.333333333333336
I2
tp1614
a(VNS44.WORLDNIC
p1615
F4.25531914893617
I2
tp1616
a(VNS4.PANELBOXMANAGER
p1617
F25.0
I2
tp1618
a(VNS6096.HOSTGATOR
p1619
F8.695652173913043
I2
tp1620
a(VNS6.MYHOSTADMIN.NET
p1621
F0.13404825737265416
I2
tp1622
a(VNS2.SEMPOI02
p1623
F50.0
I2
tp1624
a(VSDNS2.OVH.NET
p1625
F1.3986013986013985
I2
tp1626
a(VNS11.REALWEBSOLUTION.IN
p1627
F18.181818181818183
I2
tp1628
a(VNS2000.MOCHAHOST
p1629
F3.8461538461538463
I2
tp1630
a(VNS2.49DIRHAMS
p1631
F11.764705882352942
I2
tp1632
a(VNS.CENTENOWEB
p1633
F100.0
I2
tp1634
a(VNS3.NDSPLITTER
p1635
F0.273224043715847
I2
tp1636
a(VMAY.NS.CLOUDFLARE
p1637
F6.0606060606060606
I2
tp1638
a(VNS8455.HOSTGATOR
p1639
F50.0
I2
tp1640
a(VPAYE529734.MERCURY.ORDERBOX-DNS
p1641
F66.66666666666667
I2
tp1642
a(VNS2.LAYERDNS
p1643
F100.0
I2
tp1644
a(VNS4.VATRIOKL.AT
p1645
F100.0
I2
tp1646
a(VNS1.ALAYEL
p1647
F100.0
I2
tp1648
a(VNS22.SUPERDOMAINZONE
p1649
F100.0
I2
tp1650
a(VNS3.GKG.NET
p1651
F6.451612903225806
I2
tp1652
a(VNS2.WEBSOFTNET
p1653
F100.0
I2
tp1654
a(VNS1.COOT.ARVIXE
p1655
F100.0
I2
tp1656
a(VNS1.MYHOSTING
p1657
F7.6923076923076925
I2
tp1658
a(VNS35.SUPERDOMAINZONE
p1659
F100.0
I2
tp1660
a(VSK.S5.ANS2.NS148.ZTOMY
p1661
F0.07760962359332557
I2
tp1662
a(VPAYE529734.MARS.ORDERBOX-DNS
p1663
F66.66666666666667
I2
tp1664
a(VNS1.HAWKHOST
p1665
F1.2738853503184713
I2
tp1666
a(VNS1DHQ.NAME
p1667
F2.150537634408602
I2
tp1668
a(VNS4006.WEBSITEWELCOME
p1669
F100.0
I2
tp1670
a(VNS1.DNETSURABAYA.ID
p1671
F1.0638297872340425
I2
tp1672
a(VNS37.NIAGAHOSTER
p1673
F2.197802197802198
I2
tp1674
a(VNS635.WEBSITEWELCOME
p1675
F66.66666666666667
I2
tp1676
a(VCPNS2.TURHOST
p1677
F1.7699115044247788
I2
tp1678
a(VCLOUDCP20.HOSTSTOREBD
p1679
F66.66666666666667
I2
tp1680
a(VNS1.US8.SITEGROUND.US
p1681
F8.0
I2
tp1682
a(VNS4.SIPANSERVER
p1683
F28.571428571428573
I2
tp1684
a(VNS2.CAVENETWORKS
p1685
F100.0
I2
tp1686
a(VPAYE529734.EARTH.ORDERBOX-DNS
p1687
F66.66666666666667
I2
tp1688
a(VNS8202.HOSTGATOR
p1689
F33.333333333333336
I2
tp1690
a(VNS2.FAFFRI
p1691
F22.22222222222222
I2
tp1692
a(VNS1.MYTRAFFICMANAGEMENT
p1693
F0.14214641080312723
I2
tp1694
a(VNS2.NORTONIT
p1695
F100.0
I2
tp1696
a(VNS101.OURDNSSERVERS.IN
p1697
F100.0
I2
tp1698
a(VNS1.CENTENOWEB
p1699
F100.0
I2
tp1700
a(VNS1.HOSTING24
p1701
F0.032175032175032175
I2
tp1702
a(VNS1.WEBSOFTNET
p1703
F100.0
I2
tp1704
a(VNS4.LINODE
p1705
F1.2820512820512822
I2
tp1706
a(VNS15.DNSMADEEASY
p1707
F3.7735849056603774
I2
tp1708
a(VNS1.DNSLINK
p1709
F0.00999000999000999
I2
tp1710
a(VNS3.SIPANSERVER
p1711
F28.571428571428573
I2
tp1712
a(VDNS1.DNSZONE.PW
p1713
F20.0
I2
tp1714
a(VNS3CQZ.NAME
p1715
F2.73972602739726
I2
tp1716
a(VDNS1.BLABLAGREETING.WS
p1717
F100.0
I2
tp1718
a(VNS2.CHEAPOFFSHOREVPS.XYZ
p1719
F40.0
I2
tp1720
a(VNS2.AAEMS
p1721
F11.11111111111111
I2
tp1722
a(VNS2.MOONLIGHTDEVMRQ114EV.BIZ
p1723
F50.0
I2
tp1724
a(VNS1.HE.NET
p1725
F3.125
I2
tp1726
a(VNS2.VIDACLOUD.CO.UK
p1727
F4.651162790697675
I2
tp1728
a(VNS1.LOCAWEB.COM.BR
p1729
F1.1904761904761905
I2
tp1730
a(VNS2-CHENAB.SERVERFORHOST
p1731
F10.526315789473685
I2
tp1732
a(VNS2.PLEIADTECHNOLOGIES
p1733
F100.0
I2
tp1734
a(VNS1.CONECTARHOSTING
p1735
F50.0
I2
tp1736
a(VNS2.LOCAWEB.COM.BR
p1737
F1.2048192771084338
I2
tp1738
a(VNS1000.MOCHAHOST
p1739
F3.9215686274509802
I2
tp1740
a(VNS5.EHOSTNG
p1741
F66.66666666666667
I2
tp1742
a(VFREEDNS1.REGISTRAR-SERVERS
p1743
F1.680672268907563
I2
tp1744
a(VNS3.PANELBOXMANAGER
p1745
F25.0
I2
tp1746
a(VNS2.THISISELITEMEDIA.CO.UK
p1747
F40.0
I2
tp1748
a(VNS3.RAYGAIN
p1749
F100.0
I2
tp1750
a(VNS2.POWER-SERVER.IN
p1751
F50.0
I2
tp1752
a(VNS1.ACFLG
p1753
F22.22222222222222
I2
tp1754
a(VNS1.SINKHOLE.CH
p1755
F100.0
I2
tp1756
a(VNS2.WEBCORPTECH
p1757
F66.66666666666667
I2
tp1758
a(VNS4.AFRAID.ORG
p1759
F4.081632653061225
I2
tp1760
a(VCLAY.NS.CLOUDFLARE
p1761
F4.545454545454546
I2
tp1762
a(VNS2.BONGOTECH.INFO
p1763
F100.0
I2
tp1764
a(VNS1.WEBPULSEINDIA
p1765
F66.66666666666667
I2
tp1766
a(VNS2.DKSTACK
p1767
F25.0
I2
tp1768
a(VNS2.EBIZTERMINAL
p1769
F20.0
I2
tp1770
a(VNS181.HOSTGATOR.COM.BR
p1771
F1.5625
I2
tp1772
a(VNS685.HOSTGATOR.COM.BR
p1773
F7.6923076923076925
I2
tp1774
a(VNS8485.HOSTGATOR
p1775
F6.896551724137931
I2
tp1776
a(VLARA.NS.CLOUDFLARE
p1777
F3.5714285714285716
I2
tp1778
a(VNS12.JIXHOST
p1779
F25.0
I2
tp1780
a(VDION.NS.CLOUDFLARE
p1781
F18.181818181818183
I2
tp1782
a(VNS1.W3MARK.COM.BR
p1783
F100.0
I2
tp1784
a(VNS2.NET4INDIA
p1785
F2.4691358024691357
I2
tp1786
a(VNS1258.WEBSITEWELCOME
p1787
F33.333333333333336
I2
tp1788
a(VNS1.SVRDELTA.COM.BR
p1789
F100.0
I2
tp1790
a(VNS221.MIHANWEBHOST
p1791
F5.714285714285714
I2
tp1792
a(VDNS2.BLABLAGREETING.WS
p1793
F100.0
I2
tp1794
a(VNS2.HOSTING24
p1795
F0.032175032175032175
I2
tp1796
a(VLNS2.LUMINATE
p1797
F8.0
I2
tp1798
a(VNS8486.HOSTGATOR
p1799
F6.896551724137931
I2
tp1800
a(VNS2.ACCHOST.COM.BR
p1801
F25.0
I2
tp1802
a(VNS28.ROOKDNS
p1803
F0.03236769703835572
I2
tp1804
a(VNS6582.HOSTGATOR
p1805
F50.0
I2
tp1806
a(VABBY.NS.CLOUDFLARE
p1807
F3.7037037037037037
I2
tp1808
a(VNS201.ABSTRACTDNS
p1809
F100.0
I2
tp1810
a(VEVAN.NS.CLOUDFLARE
p1811
F2.898550724637681
I2
tp1812
a(VDNS1.M4MG
p1813
F66.66666666666667
I2
tp1814
a(VDNSTEMP1.DOTVNDNS
p1815
F3.076923076923077
I2
tp1816
a(VLUCY.NS.CLOUDFLARE
p1817
F4.166666666666667
I2
tp1818
a(VNS1.INWITSYSTEMS
p1819
F100.0
I2
tp1820
a(VNS2-R1-HONGKONG.WEBSERVERSYSTEMS
p1821
F66.66666666666667
I2
tp1822
a(VNS1.ACCHOST.COM.BR
p1823
F25.0
I2
tp1824
a(VNS1.MEDIASUITE.GR
p1825
F100.0
I2
tp1826
a(VNS20.IXWEBHOSTING
p1827
F28.571428571428573
I2
tp1828
a(VNS1.PARKINGHELP.NET
p1829
F0.2684563758389262
I2
tp1830
a(VNS1.MYNATIONKART.IN
p1831
F66.66666666666667
I2
tp1832
a(VNS5.HE.NET
p1833
F0.8368200836820083
I2
tp1834
a(VNS2.TINKERHOST
p1835
F100.0
I2
tp1836
a(VNS6013.HOSTGATOR
p1837
F6.896551724137931
I2
tp1838
a(VNS1.DOMAINESIA.NET
p1839
F5.405405405405405
I2
tp1840
a(VNS27.ROOKDNS
p1841
F0.03236769703835572
I2
tp1842
a(VNS1.THISISELITEMEDIA.CO.UK
p1843
F40.0
I2
tp1844
a(VNS1.LAYERDNS
p1845
F100.0
I2
tp1846
a(VNS4.NIC.RU
p1847
F5.2631578947368425
I2
tp1848
a(VNS13.CLOUDNS.NET
p1849
F0.8368200836820083
I2
tp1850
a(VJEFF.NS.CLOUDFLARE
p1851
F5.128205128205129
I2
tp1852
a(VNS1.TECHNOGLEAM.IN
p1853
F25.0
I2
tp1854
a(VNS1.49DIRHAMS
p1855
F11.764705882352942
I2
tp1856
a(VNS1.EBIZTERMINAL
p1857
F20.0
I2
tp1858
a(VDNS1228-1.NEXCESS.NET
p1859
F8.0
I2
tp1860
a(VNS2.HOSTINGACRES
p1861
F100.0
I2
tp1862
a(VNS4SXY.NAME
p1863
F2.898550724637681
I2
tp1864
a(VNS2.ELECTROHOSTING.COM.NS-NOT-IN-SERVICE
p1865
F100.0
I2
tp1866
a(VNS3.VATRIOKL.AT
p1867
F100.0
I2
tp1868
a(VNS2.DELHIWEBSITEDESIGNING
p1869
F100.0
I2
tp1870
a(VNS417.WEBSITEWELCOME
p1871
F12.5
I2
tp1872
a(VNS38.NIAGAHOSTER
p1873
F2.197802197802198
I2
tp1874
a(VNS99.ROOKDNS
p1875
F0.2103049421661409
I2
tp1876
a(VNS2.APLUS.NET
p1877
F11.11111111111111
I2
tp1878
a(VNS2.PROSPEROSERVER
p1879
F14.285714285714286
I2
tp1880
a(VNS1.HOST-H.NET
p1881
F4.25531914893617
I2
tp1882
a(VNS8536.HOSTGATOR
p1883
F4.651162790697675
I2
tp1884
a(VNS1.HOSTPAPA
p1885
F1.3793103448275863
I2
tp1886
a(VNS78.WORLDNIC
p1887
F7.407407407407407
I2
tp1888
a(VNS4DLS.NAME
p1889
F6.666666666666667
I2
tp1890
a(VNS3.WOSOLICLLP
p1891
F100.0
I2
tp1892
a(VNS-ES.1AND1-DNS.ORG
p1893
F0.38910505836575876
I2
tp1894
a(VZOE.NS.CLOUDFLARE
p1895
F6.451612903225806
I2
tp1896
a(VDNS1.BEFOREYOUGOGG.NET
p1897
F100.0
I2
tp1898
a(VNS2.IDHOSTINGER
p1899
F1.2048192771084338
I2
tp1900
a(VNS8.NIC.RU
p1901
F5.2631578947368425
I2
tp1902
a(VNS3.HOSTING24
p1903
F0.032232070910556
I2
tp1904
a(VNS2.W3MARK.COM.BR
p1905
F100.0
I2
tp1906
a(VAMANDA.NS.CLOUDFLARE
p1907
F18.181818181818183
I2
tp1908
a(VNS3.HOSTGRAF.NET
p1909
F66.66666666666667
I2
tp1910
a(VNS2.MACKERELPRODUCTIONS
p1911
F20.0
I2
tp1912
a(VNS.LIQUIDWEB
p1913
F1.7391304347826086
I2
tp1914
a(VNS3.APLUS.NET
p1915
F12.5
I2
tp1916
a(VNS1.POWER-SERVER.IN
p1917
F50.0
I2
tp1918
a(VNS2220.HOSTGATOR
p1919
F50.0
I2
tp1920
a(VNS2.7UPHOST.NET
p1921
F50.0
I2
tp1922
a(VNS2.SINKHOLE.CH
p1923
F100.0
I2
tp1924
a(VDNS1.EITOW
p1925
F100.0
I2
tp1926
a(VNS14.CLOUDNS.NET
p1927
F0.8438818565400844
I2
tp1928
a(VNS8535.HOSTGATOR
p1929
F4.651162790697675
I2
tp1930
a(VDNS1.ILISYS.COM.AU
p1931
F28.571428571428573
I2
tp1932
a(VNS1-R1-HONGKONG.WEBSERVERSYSTEMS
p1933
F66.66666666666667
I2
tp1934
a(VNS2.FURSTLOOK.IN
p1935
F66.66666666666667
I2
tp1936
a(VNS2.DNSPROTECT
p1937
F33.333333333333336
I2
tp1938
a(VNS1.MOONLIGHTDEVHFK3RCC6.BIZ
p1939
F50.0
I2
tp1940
a(VNS1.DLVIA
p1941
F100.0
I2
tp1942
a(VNS8370.HOSTGATOR
p1943
F20.0
I2
tp1944
a(VNS2.WEBWARE.HOST
p1945
F3.278688524590164
I2
tp1946
a(VNS1193.WEBSITEWELCOME
p1947
F6.25
I2
tp1948
a(VNS418.WEBSITEWELCOME
p1949
F12.5
I2
tp1950
a(VDNS1228-2.NEXCESS.NET
p1951
F8.0
I2
tp1952
a(VDNS2.BEFOREYOUGOGG.NET
p1953
F100.0
I2
tp1954
a(VNS4.EHOSTNG
p1955
F66.66666666666667
I2
tp1956
a(VNS6095.HOSTGATOR
p1957
F8.695652173913043
I2
tp1958
a(VLNS1.LUMINATE
p1959
F8.0
I2
tp1960
a(VNS1.TINKERHOST
p1961
F100.0
I2
tp1962
a(VNS1.WEBCREATIONHOST
p1963
F100.0
I2
tp1964
a(VCLOUDCP19.HOSTSTOREBD
p1965
F66.66666666666667
I2
tp1966
a(VNS1.4.CN
p1967
F0.0114370675358838
I2
tp1968
a(VDINA.NS.CLOUDFLARE
p1969
F4.25531914893617
I2
tp1970
a(VNS2.DNSLINK
p1971
F0.00999000999000999
I2
tp1972
a(VNS14.TRUEHOSTDNS
p1973
F11.764705882352942
I2
tp1974
a(VIVY.NS.CLOUDFLARE
p1975
F5.2631578947368425
I2
tp1976
a(VNS2.COOT.ARVIXE
p1977
F100.0
I2
tp1978
a(VNS2.NDSPLITTER
p1979
F0.273224043715847
I2
tp1980
a(VNS1.SRKITSOLUTIONS
p1981
F50.0
I2
tp1982
a(VJANE.CLOUDLAYAR
p1983
F33.333333333333336
I2
tp1984
a(VNS2404.HOSTGATOR
p1985
F100.0
I2
tp1986
a(VNS1BCP.NAME
p1987
F1.4184397163120568
I2
tp1988
a(VNS21.SUPERDOMAINZONE
p1989
F100.0
I2
tp1990
a(VNS2.ACFLG
p1991
F22.22222222222222
I2
tp1992
a(VEXP1.LIQU.ID
p1993
F0.04652244708071645
I2
tp1994
a(VNS2.HMX-DNS.XYZ
p1995
F40.0
I2
tp1996
a(VPAYE529734.VENUS.ORDERBOX-DNS
p1997
F66.66666666666667
I2
tp1998
a(VDNS3.ZONEEDIT
p1999
F40.0
I2
tp2000
a(VNS2.CBSINET.BIZ
p2001
F100.0
I2
tp2002
a(VNS1.NETWORKSAND
p2003
F100.0
I2
tp2004
a(VNS11.CLOUDNS.NET
p2005
F0.8368200836820083
I2
tp2006
a(VDNS1.LENOVORULESTHEWORLD.WS
p2007
F66.66666666666667
I2
tp2008
a(VNS2.NANOSUPERCLOUD
p2009
F15.384615384615385
I2
tp2010
a(VNS3.TIMEWEB.ORG
p2011
F4.761904761904762
I2
tp2012
a(VNS3.EXTRAHOSTPRO
p2013
F33.333333333333336
I2
tp2014
a(VNS2.DTRADING.ARVIXEVPS
p2015
F22.22222222222222
I2
tp2016
a(VNS2.SMOOZILLA
p2017
F9.090909090909092
I2
tp2018
a(VHEATHER.NS.CLOUDFLARE
p2019
F5.405405405405405
I2
tp2020
a(VNS0.TRANSIP.NL
p2021
F1.1627906976744187
I2
tp2022
a(VNS1.BUDALA.ORG
p2023
F66.66666666666667
I2
tp2024
a(VNS2.DNS-H
p2025
F5.714285714285714
I2
tp2026
a(VNS2.DOMAINESIA.NET
p2027
F5.405405405405405
I2
tp2028
a(VNS1.VIPHOSTSEO
p2029
F100.0
I2
tp2030
a(VNS2.TRANSIP.EU
p2031
F1.1560693641618498
I2
tp2032
a(VNS7.WEBDEVWORLD
p2033
F66.66666666666667
I2
tp2034
a(VDNS22.NAME-SERVICES
p2035
F0.12445550715619166
I2
tp2036
a(VDNS2.SUPREMEPANEL2.CO.UK
p2037
F50.0
I2
tp2038
a(VK8.BIDNS.NET
p2039
F40.0
I2
tp2040
a(VNS2.CONECTARHOSTING
p2041
F50.0
I2
tp2042
a(VNS2.HAWKHOST
p2043
F1.2738853503184713
I2
tp2044
a(VNS1MPZ.NAME
p2045
F1.1173184357541899
I2
tp2046
a(VNS1.CAVENETWORKS
p2047
F100.0
I2
tp2048
a(VNS3.NIC.RU
p2049
F5.2631578947368425
I2
tp2050
a(VNS1.WEBCORPTECH
p2051
F66.66666666666667
I2
tp2052
a(VNS2.INWITSYSTEMS
p2053
F100.0
I2
tp2054
a(VNS2219.HOSTGATOR
p2055
F50.0
I2
tp2056
a(VNS3.IDHOSTINGER
p2057
F1.2578616352201257
I2
tp2058
a(VNS1.SHOPK2.COM.BR
p2059
F33.333333333333336
I2
tp2060
a(VNS1.NDNS.CN
p2061
F3.125
I2
tp2062
a(VNS4.VIPHOSTSEO
p2063
F100.0
I2
tp2064
a(VNS1.ALASTYR
p2065
F1.3888888888888888
I2
tp2066
a(VNS1756.WEBSITEWELCOME
p2067
F50.0
I2
tp2068
a(VNS1.WEBDENSATIS.NET
p2069
F5.714285714285714
I2
tp2070
a(VNS2.MYHOSTING
p2071
F7.6923076923076925
I2
tp2072
a(VNS1.LIQUIDWEB
p2073
F1.7391304347826086
I2
tp2074
a(VMAX.NS.CLOUDFLARE
p2075
F2.73972602739726
I2
tp2076
a(VNS1.HMX-DNS.XYZ
p2077
F40.0
I2
tp2078
a(VNS1.HOSPEDAGEMDESITESSC.COM.BR
p2079
F100.0
I2
tp2080
a(VNS1.MSECUREDFILEZ.NET
p2081
F100.0
I2
tp2082
a(VNS3.LINODE
p2083
F1.2422360248447204
I2
tp2084
a(VNS2.VODIEN
p2085
F7.6923076923076925
I2
tp2086
a(VNS2.1UTC.ORG
p2087
F13.333333333333334
I2
tp2088
a(VNS3.WORLDNIC
p2089
F6.25
I2
tp2090
a(VNS1.1UTC.ORG
p2091
F13.333333333333334
I2
tp2092
a(VNS1.RICHIESOLUTIONS
p2093
F28.571428571428573
I2
tp2094
a(VNS11.DNSMADEEASY
p2095
F2.3529411764705883
I2
tp2096
a(VNS12.CLOUDNS.NET
p2097
F0.8264462809917356
I2
tp2098
a(VNS3JKL.NAME
p2099
F2.2988505747126435
I2
tp2100
a(VNS2.ALASTYR
p2101
F1.3888888888888888
I2
tp2102
a(VNS4.EXTRAHOSTPRO
p2103
F33.333333333333336
I2
tp2104
a(VNS6532.HOSTGATOR
p2105
F11.764705882352942
I2
tp2106
a(VSK.S5.ANS1.NS148.ZTOMY
p2107
F0.07760962359332557
I2
tp2108
a(VNS7.KODDOS
p2109
F100.0
I2
tp2110
a(VNS2403.HOSTGATOR
p2111
F100.0
I2
tp2112
a(VGINA.NS.CLOUDFLARE
p2113
F6.0606060606060606
I2
tp2114
a(VDNS9.MEGALENADOS.RU
p2115
F100.0
I2
tp2116
a(VNS-ES.1AND1-DNS.ES
p2117
F0.3883495145631068
I2
tp2118
a(VNS1.ARWPLUS.COM.BR
p2119
F100.0
I2
tp2120
a(VNS2.MYTRAFFICMANAGEMENT
p2121
F0.14214641080312723
I2
tp2122
a(VNS2.WEBDENSATIS.NET
p2123
F5.714285714285714
I2
tp2124
a(VNS12.DNSMADEEASY
p2125
F2.5974025974025974
I2
tp2126
a(VCORY.NS.CLOUDFLARE
p2127
F9.090909090909092
I2
tp2128
a(VJ6.BIDNS.NET
p2129
F40.0
I2
tp2130
a(VNS1.DELHIWEBSITEDESIGNING
p2131
F100.0
I2
tp2132
a(VNS2.TECHNOGLEAM.IN
p2133
F25.0
I2
tp2134
a(VNS2.BH-65.WEBHOSTBOX.NET
p2135
F13.333333333333334
I2
tp2136
a(VWOZ.NS.CLOUDFLARE
p2137
F2.7777777777777777
I2
tp2138
a(VNS2-GENERAL.VIVAWEBHOST
p2139
F66.66666666666667
I2
tp2140
a(VNS101.MSCHOSTING
p2141
F11.11111111111111
I2
tp2142
a(VNS4.WOSOLICLLP
p2143
F100.0
I2
tp2144
a(VNS2.ALAYEL
p2145
F100.0
I2
tp2146
a(VNS2.SHOPK2.COM.BR
p2147
F33.333333333333336
I2
tp2148
a(VNS343.WEBSITEWELCOME
p2149
F33.333333333333336
I2
tp2150
a(VNS6014.HOSTGATOR
p2151
F6.896551724137931
I2
tp2152
a(VNS1.REDMONDDC
p2153
F0.08499787505312367
I2
tp2154
a(VNS-1523.AWSDNS-62.ORG
p2155
F28.571428571428573
I2
tp2156
a(VNS1.VATRIOKL.AT
p2157
F100.0
I2
tp2158
a(VNS2.ACCEPTHOST.COM.BR
p2159
F100.0
I2
tp2160
a(VNS1.FASTWEBH
p2161
F100.0
I2
tp2162
a(VNS1.LAGUNAWEBHOSTING
p2163
F100.0
I2
tp2164
a(VJILL.NS.CLOUDFLARE
p2165
F7.407407407407407
I2
tp2166
a(VNS1.IDHOSTINGER
p2167
F1.1976047904191616
I2
tp2168
a(VNS3.VIPHOSTSEO
p2169
F100.0
I2
tp2170
a(VNS1-CHENAB.SERVERFORHOST
p2171
F10.526315789473685
I2
tp2172
a(VNS-ES.1AND1-DNS
p2173
F0.38684719535783363
I2
tp2174
a(VNS1.ACCEPTHOST.COM.BR
p2175
F100.0
I2
tp2176
a(VNS1-ARAVALI.SERVERFORHOST
p2177
F22.22222222222222
I2
tp2178
a(VNS2.MYNATIONKART.IN
p2179
F66.66666666666667
I2
tp2180
a(VNS1.FAFFRI
p2181
F22.22222222222222
I2
tp2182
a(VNS3.WOOSERVERS
p2183
F100.0
I2
tp2184
a(VNS2.ARWPLUS.COM.BR
p2185
F100.0
I2
tp2186
a(VNS1.FURSTLOOK.IN
p2187
F66.66666666666667
I2
tp2188
a(VDOCKS20.RZONE.DE
p2189
F8.695652173913043
I2
tp2190
a(VDNS23316.DIZINC
p2191
F100.0
I1
tp2192
a(VDNS2.MASTERWEBNET
p2193
F12.5
I1
tp2194
a(VNS25.EHOSTNG.NET
p2195
F100.0
I1
tp2196
a(VNS16225425556.A2DNS
p2197
F100.0
I1
tp2198
a(VNS1.AFRAID.ORG
p2199
F3.8461538461538463
I1
tp2200
a(VNS311.WEBSITEWELCOME
p2201
F20.0
I1
tp2202
a(VDIJKSTRA.IHSDNS
p2203
F1.1494252873563218
I1
tp2204
a(VSALE266643.MERCURY.ORDERBOX-DNS
p2205
F100.0
I1
tp2206
a(VNS7.PAINELSITE
p2207
F100.0
I1
tp2208
a(VNS2.VM232.FCOMET
p2209
F100.0
I1
tp2210
a(VNS10.PACIFICHOST
p2211
F100.0
I1
tp2212
a(VNS2.SKYNYXSERVER
p2213
F100.0
I1
tp2214
a(VNS2.LOADTRAILTRACKER
p2215
F50.0
I1
tp2216
a(VWILL.NS.CLOUDFLARE
p2217
F4.0
I1
tp2218
a(VNS5.KASSERVER
p2219
F1.408450704225352
I1
tp2220
a(VNS1.BESTSECUREMALL
p2221
F100.0
I1
tp2222
a(VNS2.WAPKAHOST.NET
p2223
F100.0
I1
tp2224
a(VNSP22.SECUREHOSTDNS
p2225
F100.0
I1
tp2226
a(VNS537.WEBSITEWELCOME
p2227
F33.333333333333336
I1
tp2228
a(VNS1-PASSAT.VIVAWEBHOST
p2229
F33.333333333333336
I1
tp2230
a(VNS1.MD-IN-42.WEBHOSTBOX.NET
p2231
F33.333333333333336
I1
tp2232
a(VNS2.YOURHOST.CO
p2233
F11.11111111111111
I1
tp2234
a(VNS2.GACKHOLLYWOOD
p2235
F10.0
I1
tp2236
a(VNS4.LOBIHOSTING
p2237
F100.0
I1
tp2238
a(VNS4.EZDNSCENTER
p2239
F0.25316455696202533
I1
tp2240
a(VNS1.WEBACCOUNTSERVER
p2241
F100.0
I1
tp2242
a(VNS2.HOSTVOIN
p2243
F100.0
I1
tp2244
a(VNS1.MYVORTEXSERVER.US
p2245
F100.0
I1
tp2246
a(VNS6616.HOSTGATOR
p2247
F33.333333333333336
I1
tp2248
a(VNS5.DOMAINMONGER
p2249
F7.142857142857143
I1
tp2250
a(VNS3.SYSTEMDNS
p2251
F0.06618133686300463
I1
tp2252
a(VNS4.TEPUYSERVER.NET
p2253
F100.0
I1
tp2254
a(VNS2.REDSTONEHISTING.ORG
p2255
F100.0
I1
tp2256
a(VNS.CHERSERVER
p2257
F100.0
I1
tp2258
a(VNS36.EAZYSMART
p2259
F50.0
I1
tp2260
a(VNS4.RESOLVE-PAYMENT
p2261
F100.0
I1
tp2262
a(VNS4.ASCIO
p2263
F16.666666666666668
I1
tp2264
a(VNS2.ACCELERHOSTING
p2265
F100.0
I1
tp2266
a(VNBWEB.MERCURY.ORDERBOX-DNS
p2267
F50.0
I1
tp2268
a(VNS1.CONCEPTIONCLOTHING
p2269
F100.0
I1
tp2270
a(VNS1.YOURAIDSERVICES
p2271
F100.0
I1
tp2272
a(VNS2.RASKSOFT
p2273
F100.0
I1
tp2274
a(VATDNS02.CITYNETWORK.SE
p2275
F6.25
I1
tp2276
a(VNS370.WEBSITEWELCOME
p2277
F100.0
I1
tp2278
a(VNS2.ALTURAWEB
p2279
F100.0
I1
tp2280
a(VNS1.CMTP.IN
p2281
F100.0
I1
tp2282
a(VNS8123.HOSTGATOR
p2283
F33.333333333333336
I1
tp2284
a(VASTERIX.MEDIAWEB.CZ
p2285
F100.0
I1
tp2286
a(VNS4.SURYANANDAN.IN
p2287
F50.0
I1
tp2288
a(VNS1BDG.NAME
p2289
F0.31446540880503143
I1
tp2290
a(VNS2.CMZONE.CO.TH
p2291
F100.0
I1
tp2292
a(VHOSTEASE.VENUS.ORDERBOX-DNS
p2293
F50.0
I1
tp2294
a(VNS1.DOMAIN-RESOLUTION.NET
p2295
F9.090909090909092
I1
tp2296
a(VNS-CLOUD-D3.GOOGLEDOMAINS
p2297
F0.31545741324921134
I1
tp2298
a(VNS11.WIXDNS.NET
p2299
F0.8849557522123894
I1
tp2300
a(VNS10.LINUXPL
p2301
F33.333333333333336
I1
tp2302
a(VNS2.INET.CO.TH
p2303
F100.0
I1
tp2304
a(VNS02.DOMAINCONTROL
p2305
F7.142857142857143
I1
tp2306
a(VNS30.NIAGAHOSTER
p2307
F1.639344262295082
I1
tp2308
a(VNS336.HOSTGATOR.COM.BR
p2309
F100.0
I1
tp2310
a(VNS1.WWW7.SITE
p2311
F100.0
I1
tp2312
a(VNS2.SOLARTUBS
p2313
F100.0
I1
tp2314
a(VNS2.SERVER8.AACHOST
p2315
F100.0
I1
tp2316
a(VNS20.TEHRANHOST
p2317
F50.0
I1
tp2318
a(VDNS1.VBHOSTNET
p2319
F33.333333333333336
I1
tp2320
a(VNS8439.HOSTGATOR
p2321
F33.333333333333336
I1
tp2322
a(VNS2.GUZELHOSTING
p2323
F3.3333333333333335
I1
tp2324
a(VNS2.EAGENT.IN
p2325
F100.0
I1
tp2326
a(VNS1.HABAAN
p2327
F100.0
I1
tp2328
a(VNS2302.HOSTGATOR
p2329
F100.0
I1
tp2330
a(VNS1-R1-BUCHAREST.WEBSERVERSYSTEMS
p2331
F100.0
I1
tp2332
a(VNS2.GLASSCODE.NET
p2333
F100.0
I1
tp2334
a(VNS32.WORLDNIC
p2335
F4.166666666666667
I1
tp2336
a(VOBELIX.MEDIAWEB.CZ
p2337
F100.0
I1
tp2338
a(VNS2.MYBBSE.NET
p2339
F100.0
I1
tp2340
a(VNS2.FIRSTVDS.RU
p2341
F11.11111111111111
I1
tp2342
a(VNS2.DIGITIZEDHOST
p2343
F100.0
I1
tp2344
a(VNS2.OHELLOGRANDPAQQ
p2345
F100.0
I1
tp2346
a(VNS2.WEBHOSTMACHINE
p2347
F100.0
I1
tp2348
a(VNS2.MYWORLDDNS
p2349
F20.0
I1
tp2350
a(VNS1.OHELLOGRANDPAQQ
p2351
F100.0
I1
tp2352
a(VNS1.DOKTORGUMMI
p2353
F25.0
I1
tp2354
a(VNS1.SKYHOST.PK
p2355
F100.0
I1
tp2356
a(VNS3.MAXETICARET
p2357
F33.333333333333336
I1
tp2358
a(VNS2.DNS.NET.VN
p2359
F10.0
I1
tp2360
a(VNS6484.HOSTGATOR
p2361
F50.0
I1
tp2362
a(VNS2.VALA-BLEU.NET
p2363
F50.0
I1
tp2364
a(VNS1.INFOSOLTECHNOLOGIES
p2365
F100.0
I1
tp2366
a(VNS134.EHOSTS
p2367
F4.166666666666667
I1
tp2368
a(VDNS1.VEEBLEHOSTING
p2369
F50.0
I1
tp2370
a(VSANDY.NS.CLOUDFLARE
p2371
F16.666666666666668
I1
tp2372
a(VCAROL.NS.CLOUDFLARE
p2373
F6.25
I1
tp2374
a(VNS2.SITESMICROMART
p2375
F100.0
I1
tp2376
a(VNS2.JEANSOWGHSQQ
p2377
F100.0
I1
tp2378
a(VNS1.CZARSINDIA.CO.IN
p2379
F100.0
I1
tp2380
a(VSK.S5.CM.NS2.37.ZTOMY
p2381
F0.9174311926605505
I1
tp2382
a(VNS3.PROHOSTING.COM.UA
p2383
F100.0
I1
tp2384
a(VNS1.JAKAPONG
p2385
F100.0
I1
tp2386
a(VNS12.ASKFORHOST
p2387
F50.0
I1
tp2388
a(VNS1.TRNHOST
p2389
F100.0
I1
tp2390
a(VNS1.BRAINYDNS
p2391
F0.6666666666666666
I1
tp2392
a(VNS1.SOMEE
p2393
F50.0
I1
tp2394
a(VNS1.FIREFLYDESIGN.US
p2395
F100.0
I1
tp2396
a(VRED2.DIRECTWEB.INFO
p2397
F100.0
I1
tp2398
a(VNS1.YOURWELNESSDEAL
p2399
F100.0
I1
tp2400
a(VNS27.IXWEBHOSTING
p2401
F11.11111111111111
I1
tp2402
a(VFOREIGN.HOSTER.KZ
p2403
F33.333333333333336
I1
tp2404
a(VNS1.MATRIMONYSERVER
p2405
F100.0
I1
tp2406
a(VNS10.WIXDNS.NET
p2407
F0.8849557522123894
I1
tp2408
a(VNS13.DNS.COM.CN
p2409
F0.5952380952380952
I1
tp2410
a(VNS2-ASTRA82.LEVEL-CLOUD
p2411
F20.0
I1
tp2412
a(VHOSTEASE.MERCURY.ORDERBOX-DNS
p2413
F50.0
I1
tp2414
a(VNS2.SPARKZSERVER
p2415
F50.0
I1
tp2416
a(VNS2.NERION
p2417
F100.0
I1
tp2418
a(VNS2.PLESK-WEB23.WEBHOSTBOX.NET
p2419
F100.0
I1
tp2420
a(VSUPERDOMINIOS.MERCURY.ORDERBOX-DNS
p2421
F2.7777777777777777
I1
tp2422
a(VNS7.E-XTREMETECH.NET
p2423
F100.0
I1
tp2424
a(VNS90.WORLDNIC
p2425
F8.333333333333334
I1
tp2426
a(VNS1.BH-59.WEBHOSTBOX.NET
p2427
F50.0
I1
tp2428
a(VNS2.PIXELDESIGNLTD.NET
p2429
F100.0
I1
tp2430
a(VNS5.S810.ORG
p2431
F100.0
I1
tp2432
a(VNS1.EASYVISA
p2433
F100.0
I1
tp2434
a(VNS3.VIPRESELLER13.NET
p2435
F100.0
I1
tp2436
a(VMARY.NS.CLOUDFLARE
p2437
F4.3478260869565215
I1
tp2438
a(VNS101.CLOUDNS.NET
p2439
F100.0
I1
tp2440
a(VDNS2.GOINGTOTHERUNZZ.WS
p2441
F100.0
I1
tp2442
a(VNS2.LIVEBITSHOST
p2443
F50.0
I1
tp2444
a(VNS8529.HOSTGATOR
p2445
F11.11111111111111
I1
tp2446
a(VNS1.Z4PBRASIL.COM.BR
p2447
F100.0
I1
tp2448
a(VNS1130.IL.CONTROLADORDNS
p2449
F5.2631578947368425
I1
tp2450
a(VNS28.IXWEBHOSTING
p2451
F11.11111111111111
I1
tp2452
a(VDNS1.WORK-DNS.RU
p2453
F33.333333333333336
I1
tp2454
a(VNS1.D-SITEHOSTING
p2455
F33.333333333333336
I1
tp2456
a(VNS2.CYBEXHOSTING
p2457
F100.0
I1
tp2458
a(VNS1.LOGICIELSINFO
p2459
F100.0
I1
tp2460
a(VNS83.PRODNS.COM.BR
p2461
F100.0
I1
tp2462
a(VNS1.NEPALTIGER
p2463
F100.0
I1
tp2464
a(VNS637.HOSTGATOR.COM.BR
p2465
F14.285714285714286
I1
tp2466
a(VNS8158.HOSTGATOR
p2467
F50.0
I1
tp2468
a(VNS6.EDELWORKS
p2469
F100.0
I1
tp2470
a(VNS3.PTWEBSERV.NET
p2471
F50.0
I1
tp2472
a(VNS2.CRIATIVAHOSPEDAGEM.COM.BR
p2473
F100.0
I1
tp2474
a(VNS1-R2-MONTREAL.SITESHOSTEDHERE
p2475
F100.0
I1
tp2476
a(VNS2.DOMINIOCONGELADO.COM.BR
p2477
F0.6711409395973155
I1
tp2478
a(VNS2.SAKAOGULLARIGRUP
p2479
F11.11111111111111
I1
tp2480
a(VNS2.BH-IN-19.WEBHOSTBOX.NET
p2481
F14.285714285714286
I1
tp2482
a(VNS1.JEANSOWGHSQQ
p2483
F100.0
I1
tp2484
a(VBAYAN.NS.CLOUDFLARE
p2485
F12.5
I1
tp2486
a(VNS4.REDELIN.COM.BR
p2487
F50.0
I1
tp2488
a(VNS11.BIGWWW
p2489
F0.6410256410256411
I1
tp2490
a(VCNS.VIAOCEANICA.NET
p2491
F100.0
I1
tp2492
a(VNS3.BIGCOMMERCE
p2493
F2.3255813953488373
I1
tp2494
a(VCNS69775.HOSTWINDSDNS
p2495
F9.090909090909092
I1
tp2496
a(VNS3.CUJUSVIS.RU
p2497
F100.0
I1
tp2498
a(VCNZCO.MERCURY.ORDERBOX-DNS
p2499
F25.0
I1
tp2500
a(VNS1.LAPTOPB4YOU
p2501
F100.0
I1
tp2502
a(VNS2.MYBDWEB.NET
p2503
F100.0
I1
tp2504
a(VNS1.KITOBOYKA
p2505
F100.0
I1
tp2506
a(VNS57.WEBSITEWELCOME
p2507
F100.0
I1
tp2508
a(VSANDRA.NEOSTRADA.NL
p2509
F4.545454545454546
I1
tp2510
a(VNS2.REDEYES.IN
p2511
F100.0
I1
tp2512
a(VNS8241.HOSTGATOR
p2513
F25.0
I1
tp2514
a(VNS3.DNSMADEEASY
p2515
F1.2658227848101267
I1
tp2516
a(VNS1.BNMQ
p2517
F14.285714285714286
I1
tp2518
a(VNS2.TUNCSERVER.NET
p2519
F100.0
I1
tp2520
a(VNS1.GACKHOLLYWOOD
p2521
F10.0
I1
tp2522
a(VNS2.NETCOMASSURE
p2523
F100.0
I1
tp2524
a(VNS1.EDUARDOKRAUS.COM.BR
p2525
F100.0
I1
tp2526
a(VVITA.NS.CLOUDFLARE
p2527
F11.11111111111111
I1
tp2528
a(VNS3.SURYANANDAN.IN
p2529
F50.0
I1
tp2530
a(VNS-1934.AWSDNS-49.CO.UK
p2531
F33.333333333333336
I1
tp2532
a(VNS2.MIDDLELEVELJOBS
p2533
F100.0
I1
tp2534
a(VNS4.VPWEB
p2535
F0.36231884057971014
I1
tp2536
a(VNS8307.HOSTGATOR
p2537
F25.0
I1
tp2538
a(VZEUS.NS.CLOUDFLARE
p2539
F12.5
I1
tp2540
a(VNS1.XSTHOSTING.IN
p2541
F33.333333333333336
I1
tp2542
a(VS1.DUMPACTION
p2543
F100.0
I1
tp2544
a(VNS4.MCWEBHOST
p2545
F100.0
I1
tp2546
a(VNS2.CLOUDCLIKS
p2547
F100.0
I1
tp2548
a(VADAM.NS.CLOUDFLARE
p2549
F5.555555555555555
I1
tp2550
a(VNS866.WEBSITEWELCOME
p2551
F33.333333333333336
I1
tp2552
a(VNS1.C16561.SGVPS.NET
p2553
F100.0
I1
tp2554
a(VNS2.DNBIZ
p2555
F1.1627906976744187
I1
tp2556
a(VNS1.NI.NET.TR
p2557
F14.285714285714286
I1
tp2558
a(VNS1.THEHOSTSERVERS
p2559
F50.0
I1
tp2560
a(VNS1.MYPEHOST
p2561
F100.0
I1
tp2562
a(VNS1.WOOWEX
p2563
F100.0
I1
tp2564
a(VNS3.ARTICNETWORKS.NET
p2565
F33.333333333333336
I1
tp2566
a(VNS1.PYPTEK
p2567
F100.0
I1
tp2568
a(VNS85.WEBSITEWELCOME
p2569
F33.333333333333336
I1
tp2570
a(VCORPORATE.VIP12.NOC40
p2571
F100.0
I1
tp2572
a(VNS8308.HOSTGATOR
p2573
F25.0
I1
tp2574
a(VNS2.TMII.CO
p2575
F100.0
I1
tp2576
a(VNETNAME.COM.UA
p2577
F100.0
I1
tp2578
a(VNS1.SADECEHOSTING
p2579
F2.4390243902439024
I1
tp2580
a(VHOSTEASE.EARTH.ORDERBOX-DNS
p2581
F50.0
I1
tp2582
a(VNS2.FCMBONLINENIG.TOP
p2583
F50.0
I1
tp2584
a(VNS2.WEB-O-WEB
p2585
F100.0
I1
tp2586
a(VNS3.SPEEDYDNS.NET
p2587
F16.666666666666668
I1
tp2588
a(VNS2.CDMON.NET
p2589
F0.8849557522123894
I1
tp2590
a(VDNS010.D.REGISTER
p2591
F0.8130081300813008
I1
tp2592
a(VNS2.NETREGISTRY.NET
p2593
F0.7092198581560284
I1
tp2594
a(VNS4.VEEBLEHOSTING
p2595
F100.0
I1
tp2596
a(VNS3.HOSTCHILLYNG
p2597
F100.0
I1
tp2598
a(VNS3.HOSTINGER.MX
p2599
F5.555555555555555
I1
tp2600
a(VNS1.OGENEINAAMIN
p2601
F100.0
I1
tp2602
a(VNS2.ORANGEWEBSITE
p2603
F100.0
I1
tp2604
a(VNS1.PURVAINFOSYSTEMS.INFO
p2605
F100.0
I1
tp2606
a(VNS2.DNSHOSTSERVER.IN
p2607
F50.0
I1
tp2608
a(VRS41.REGISTRAR-SERVERS
p2609
F33.333333333333336
I1
tp2610
a(VNS2.GOLDSUNUCU
p2611
F100.0
I1
tp2612
a(VNS1.SALAGRIVA
p2613
F100.0
I1
tp2614
a(VNS1.VIETTELIDC.COM.VN
p2615
F20.0
I1
tp2616
a(VNS1.VIBETRON.NET
p2617
F33.333333333333336
I1
tp2618
a(VID.DNSPROPAGATION
p2619
F50.0
I1
tp2620
a(VRS124.REGISTRAR-SERVERS
p2621
F100.0
I1
tp2622
a(VNS10.POINTDNSHERE
p2623
F50.0
I1
tp2624
a(VNS4.NARUKIN.RU
p2625
F100.0
I1
tp2626
a(VNS1.DOMINIOCONGELADO.COM.BR
p2627
F0.6711409395973155
I1
tp2628
a(VNS4.MYHOSTADMIN.NET
p2629
F0.08278145695364239
I1
tp2630
a(VNS1.CYBERNETHOST.INFO
p2631
F100.0
I1
tp2632
a(VDNS4.ALAPCOM
p2633
F1.0
I1
tp2634
a(VNS1.DOMAINZGURU
p2635
F100.0
I1
tp2636
a(VNS2.ADAGRUPWEBTASARIM
p2637
F4.761904761904762
I1
tp2638
a(VNS2.AM29.SITEGROUND.BIZ
p2639
F0.7142857142857143
I1
tp2640
a(VNS4.DNSMADEEASY
p2641
F1.3333333333333333
I1
tp2642
a(VNS72.WORLDNIC
p2643
F5.2631578947368425
I1
tp2644
a(VNS3.SITE4NOW.NET
p2645
F2.6315789473684212
I1
tp2646
a(VNS1.SPECIALSAROUNDTOWN.NET
p2647
F100.0
I1
tp2648
a(VNS2.PRISMHOSTING.NET
p2649
F100.0
I1
tp2650
a(VDNS2.ARCHANGELSYSTEMS
p2651
F100.0
I1
tp2652
a(VDNS01.ITA.COM.GR
p2653
F10.0
I1
tp2654
a(VDNS1.ONAMAE
p2655
F0.10845986984815618
I1
tp2656
a(VNS2.DNSMADEEASY
p2657
F1.2658227848101267
I1
tp2658
a(V34751.MARS.ORDERBOX-DNS
p2659
F100.0
I1
tp2660
a(VNS2.THEHOSTSERVERS
p2661
F50.0
I1
tp2662
a(VNS2.DNSFUN.PW
p2663
F11.11111111111111
I1
tp2664
a(VNS2.HOSTCLAW
p2665
F100.0
I1
tp2666
a(VNS101.777SERVERS
p2667
F20.0
I1
tp2668
a(VNS1.SYSTEMDNS
p2669
F0.06618133686300463
I1
tp2670
a(VNS3.INDOWEBDEVELOPER
p2671
F50.0
I1
tp2672
a(VNS1.CAREERHUNTS.CA
p2673
F100.0
I1
tp2674
a(VDNS1.SUPREMEPANEL32
p2675
F20.0
I1
tp2676
a(VNS2.TOPDNS.ME
p2677
F50.0
I1
tp2678
a(VNS3.SIMPLEXHOSTINGS
p2679
F100.0
I1
tp2680
a(VNS111.WEBSITEWELCOME
p2681
F100.0
I1
tp2682
a(VTITAN2.COLOMBIAREDES.INFO
p2683
F50.0
I1
tp2684
a(VDNS142.A.REGISTER
p2685
F100.0
I1
tp2686
a(VNS2.ASMALLORANGE
p2687
F1.2658227848101267
I1
tp2688
a(VNS1.BHSERVERS.NET.IN
p2689
F50.0
I1
tp2690
a(VNS3.NETSONS
p2691
F0.03115264797507788
I1
tp2692
a(VNS10.NETAFROOZ
p2693
F100.0
I1
tp2694
a(VNS2.VIACESAR.COM.BR
p2695
F100.0
I1
tp2696
a(VNS1.PUREDESIGNSMEDIA
p2697
F25.0
I1
tp2698
a(VNS13.E-NS.NL
p2699
F100.0
I1
tp2700
a(VNS2.FREEWHA
p2701
F14.285714285714286
I1
tp2702
a(VNS1.CRIACAODESITESJUIZDEFORA.COM.BR
p2703
F100.0
I1
tp2704
a(VNS1.TOWINBIG
p2705
F33.333333333333336
I1
tp2706
a(VNS1.WEBFUNDAMENT
p2707
F100.0
I1
tp2708
a(VNS-593.AWSDNS-10.NET
p2709
F100.0
I1
tp2710
a(VNS1.OILINVEST5
p2711
F100.0
I1
tp2712
a(VNS3002.MOCHAHOST
p2713
F7.6923076923076925
I1
tp2714
a(VNS2.CNOWHOSTING
p2715
F100.0
I1
tp2716
a(VNS2.DEVGRAFIZONE.BIZ
p2717
F100.0
I1
tp2718
a(VCNZCO.MARS.ORDERBOX-DNS
p2719
F25.0
I1
tp2720
a(VCLCP2.NIBSDNS
p2721
F100.0
I1
tp2722
a(VNS2.LOBIHOSTING
p2723
F100.0
I1
tp2724
a(VNS3.DUTYHOST.NET
p2725
F100.0
I1
tp2726
a(VDNS2006A.TROUBLE-FREE.NET
p2727
F20.0
I1
tp2728
a(VNS1.535E.BLACKMESH
p2729
F100.0
I1
tp2730
a(VSERVER10.HOSTDATASECURE.NET
p2731
F100.0
I1
tp2732
a(VNS234.WEBSITEWELCOME
p2733
F3.8461538461538463
I1
tp2734
a(VNS2-LION.VIVAWEBHOST
p2735
F33.333333333333336
I1
tp2736
a(VNS1.NARUKIN.RU
p2737
F100.0
I1
tp2738
a(VNS1.DONWEB
p2739
F10.0
I1
tp2740
a(VNS1.WEB-O-WEB
p2741
F100.0
I1
tp2742
a(VNS8.COPAHOST
p2743
F100.0
I1
tp2744
a(VNS1.C3-MEDIA
p2745
F10.0
I1
tp2746
a(VNS2.ROJEKOHOST
p2747
F25.0
I1
tp2748
a(VNS1.HOSTVOIN
p2749
F100.0
I1
tp2750
a(VDORTHY.NS.CLOUDFLARE
p2751
F25.0
I1
tp2752
a(VNS1-LAKERS.WEBSERVERSYSTEMS
p2753
F100.0
I1
tp2754
a(VNS1.WORK-SPACE.NET
p2755
F100.0
I1
tp2756
a(VNS1.ECHOHOST.COM.BR
p2757
F100.0
I1
tp2758
a(VDNS5.CLOUDNS.NET
p2759
F50.0
I1
tp2760
a(VNS3.WORLDSECURESYSTEMS
p2761
F7.6923076923076925
I1
tp2762
a(VNS37.WORLDNIC
p2763
F4.0
I1
tp2764
a(VNS4027.HOSTGATOR
p2765
F7.6923076923076925
I1
tp2766
a(VNS2.HOSTINPK
p2767
F100.0
I1
tp2768
a(VNS-213.AWSDNS-26
p2769
F50.0
I1
tp2770
a(VDNS3.SERVICIOS-NIC.COM.MX
p2771
F20.0
I1
tp2772
a(VNS2.PHYSBAY
p2773
F100.0
I1
tp2774
a(VDNS4.123SYSTEMS.NET
p2775
F16.666666666666668
I1
tp2776
a(VNS2.WHOIS
p2777
F0.8
I1
tp2778
a(VNS1.SLOWNECK.PW
p2779
F100.0
I1
tp2780
a(VNS6007.HOSTGATOR
p2781
F16.666666666666668
I1
tp2782
a(VNS1.IZMIRINTERNETTE
p2783
F7.6923076923076925
I1
tp2784
a(VNS1.INNOVATIVEWEBMAKERS.IN
p2785
F33.333333333333336
I1
tp2786
a(VAUSTIN.NS.CLOUDFLARE
p2787
F33.333333333333336
I1
tp2788
a(VDNS1.WTFISGOINGHERESDF.WS
p2789
F100.0
I1
tp2790
a(VNS1.SERVERXY
p2791
F1.0309278350515463
I1
tp2792
a(VNS2.MEEBOX.NET
p2793
F33.333333333333336
I1
tp2794
a(VNS107.EHOSTS
p2795
F0.9615384615384616
I1
tp2796
a(VDNS1.SERVICIOS-NIC.COM.MX
p2797
F20.0
I1
tp2798
a(VNS2.PARKINGCREW
p2799
F100.0
I1
tp2800
a(VSULT626456.VENUS.ORDERBOX-DNS
p2801
F100.0
I1
tp2802
a(VNS3.DOMINIOCONGELADO.COM.BR
p2803
F0.6711409395973155
I1
tp2804
a(VNS2.WEHOST.COM.NG
p2805
F100.0
I1
tp2806
a(VNS2.MAESOD.INFO
p2807
F100.0
I1
tp2808
a(VNS1.GLOBALTECH1
p2809
F100.0
I1
tp2810
a(VNS1.PNAP.NET
p2811
F100.0
I1
tp2812
a(VMARK.NS.CLOUDFLARE
p2813
F3.3333333333333335
I1
tp2814
a(VNS1.MD-IN-53.WEBHOSTBOX.NET
p2815
F4.0
I1
tp2816
a(VNS3.COMBELL.NET
p2817
F10.0
I1
tp2818
a(VNS2.CLOUDAPPSERVERS
p2819
F20.0
I1
tp2820
a(VNS1.ADRIANOWEBMASTER.COM.BR
p2821
F100.0
I1
tp2822
a(VNS2.SEARCHINGFORTHESOUND
p2823
F100.0
I1
tp2824
a(VNS43.WORLDNIC
p2825
F3.3333333333333335
I1
tp2826
a(VTR.GUZELHOSTING
p2827
F25.0
I1
tp2828
a(VNS2.BLACKDOORHOSTING
p2829
F100.0
I1
tp2830
a(VNS3.P18.DYNECT.NET
p2831
F5.0
I1
tp2832
a(VNS7.COPAHOST
p2833
F100.0
I1
tp2834
a(VNS1.REALISTICSOFT.IN
p2835
F100.0
I1
tp2836
a(VNS1078.IFASTNET
p2837
F50.0
I1
tp2838
a(VRS38.REGISTRAR-SERVERS
p2839
F50.0
I1
tp2840
a(VNS2.BRANDLIVESRL
p2841
F100.0
I1
tp2842
a(VDNS09.IPSERVERCR
p2843
F100.0
I1
tp2844
a(VNS2.WILLDESIGNFORWINE
p2845
F100.0
I1
tp2846
a(VNS1.JPMORGANCHASE
p2847
F50.0
I1
tp2848
a(VSK.S7.ANS2.NS86.KLCZY
p2849
F2.0
I1
tp2850
a(VNS1.SUDASITEHOSTING
p2851
F100.0
I1
tp2852
a(VNS2.HOST-TOWN
p2853
F100.0
I1
tp2854
a(VDNS2.CLOUDNS.NET
p2855
F50.0
I1
tp2856
a(VNS1.OPTIMUMTECHBD
p2857
F100.0
I1
tp2858
a(VNS1.BS2.COM.BR
p2859
F100.0
I1
tp2860
a(VDNS4.NEWSITEDNS2.RU
p2861
F100.0
I1
tp2862
a(VNS5.DNSHOSTINGWEB.NET
p2863
F100.0
I1
tp2864
a(VNS2.KIRIMIZICEKET
p2865
F1.2987012987012987
I1
tp2866
a(VNS1.MAILPATRIOTS.XYZ
p2867
F100.0
I1
tp2868
a(V17.SUCURIDNS
p2869
F100.0
I1
tp2870
a(VNS1.MARMOT.ARVIXE
p2871
F20.0
I1
tp2872
a(VNS473.HOSTGATOR.COM.BR
p2873
F100.0
I1
tp2874
a(VNS6.MONOVM
p2875
F50.0
I1
tp2876
a(VNS1.ESM6.SITEGROUND.BIZ
p2877
F4.761904761904762
I1
tp2878
a(VNS1.HOSTDOBRAZIL.COM.BR
p2879
F100.0
I1
tp2880
a(VNS2.ADSCA
p2881
F100.0
I1
tp2882
a(VNS2.CP-47.WEBHOSTBOX.NET
p2883
F3.3333333333333335
I1
tp2884
a(VNS2.SALAGRIVA
p2885
F100.0
I1
tp2886
a(VNS1.CONET.VN
p2887
F50.0
I1
tp2888
a(VNS2.FOREX-ABOUT.INFO
p2889
F100.0
I1
tp2890
a(VNS1.ACCELERHOSTING
p2891
F100.0
I1
tp2892
a(VNS2.MD-IN-53.WEBHOSTBOX.NET
p2893
F4.0
I1
tp2894
a(VNS2.WEBHOSTINGARGENTINA.NET
p2895
F100.0
I1
tp2896
a(VNS4.LAYERDNS
p2897
F100.0
I1
tp2898
a(VNS2.SERVER2.MACHADOHOST
p2899
F20.0
I1
tp2900
a(VNS2.SUDASITEHOSTING
p2901
F100.0
I1
tp2902
a(VNS2.BINDIM
p2903
F3.5714285714285716
I1
tp2904
a(VNS397.WEBSITEWELCOME
p2905
F50.0
I1
tp2906
a(VV4.GRUPOWSBRASIL.COM.BR
p2907
F25.0
I1
tp2908
a(VNS2.OPTIMUMTECHBD
p2909
F100.0
I1
tp2910
a(VNS2.MR08.MYCPANELCLOUD.CO.UK
p2911
F50.0
I1
tp2912
a(VNS26.BRASILWEBHOST.COM.BR
p2913
F100.0
I1
tp2914
a(VNS-CLOUD-B3.GOOGLEDOMAINS
p2915
F0.15723270440251572
I1
tp2916
a(VNS2301.HOSTGATOR
p2917
F100.0
I1
tp2918
a(VNS3.AUTHENTICHOST.NET
p2919
F4.545454545454546
I1
tp2920
a(VNS4.AUTHENTICHOST.NET
p2921
F4.545454545454546
I1
tp2922
a(VNS1.CINEMAMASTHI
p2923
F100.0
I1
tp2924
a(VNS1.NAMECITY
p2925
F4.166666666666667
I1
tp2926
a(VSTVL113289.VENUS.OBOX-DNS
p2927
F20.0
I1
tp2928
a(VNS341.HOSTERPK
p2929
F0.20491803278688525
I1
tp2930
a(VSRV22.NOVIHOST.NET
p2931
F1.098901098901099
I1
tp2932
a(VNS2.CLOUDUSSERVER
p2933
F11.11111111111111
I1
tp2934
a(VDNS1.VPS.NET
p2935
F4.545454545454546
I1
tp2936
a(VNS2.KRIWEB
p2937
F5.882352941176471
I1
tp2938
a(VNS5.EDUARDOKRAUS.COM.BR
p2939
F100.0
I1
tp2940
a(VNS8.THEWEBHOSTSERVER
p2941
F6.666666666666667
I1
tp2942
a(VNS2.BHSERVERS.NET.IN
p2943
F50.0
I1
tp2944
a(VDNS.TROUBLE-FREE.NET
p2945
F7.6923076923076925
I1
tp2946
a(VNS1.WIREDTREE
p2947
F5.0
I1
tp2948
a(VTHEO.NS.CLOUDFLARE
p2949
F10.0
I1
tp2950
a(VNS2.I9SOLUCOESDIGITAIS.COM.BR
p2951
F100.0
I1
tp2952
a(VNS1342.WEBSITEWELCOME
p2953
F50.0
I1
tp2954
a(VSULT626456.MARS.ORDERBOX-DNS
p2955
F100.0
I1
tp2956
a(VNS82.WORLDNIC
p2957
F5.555555555555555
I1
tp2958
a(VDNS9.PVTWEBS
p2959
F100.0
I1
tp2960
a(VNS8364.HOSTGATOR
p2961
F20.0
I1
tp2962
a(VNS92.WEBSITEWELCOME
p2963
F33.333333333333336
I1
tp2964
a(VNS1.MYWEB-SERVICE
p2965
F100.0
I1
tp2966
a(VNS2.SQUIRREL.ARVIXE
p2967
F50.0
I1
tp2968
a(VNS2.PLAYMEDIOS
p2969
F6.666666666666667
I1
tp2970
a(VNS13.HOSTINGRAJA.IN
p2971
F33.333333333333336
I1
tp2972
a(VNS1.BOOKANDHOST.NET
p2973
F100.0
I1
tp2974
a(VNS8238.HOSTGATOR
p2975
F33.333333333333336
I1
tp2976
a(VNS1.LIVEBITSHOST
p2977
F50.0
I1
tp2978
a(VNS1.BANYANBYTES
p2979
F100.0
I1
tp2980
a(VNS2.BLAZINHOSTING.ORG
p2981
F50.0
I1
tp2982
a(VNS1.AM29.SITEGROUND.BIZ
p2983
F0.7142857142857143
I1
tp2984
a(VNS1.SERVER8.AACHOST
p2985
F100.0
I1
tp2986
a(VNS1.BINDER.MYSITEHOSTED
p2987
F50.0
I1
tp2988
a(VNS3.DATAPLUGS
p2989
F20.0
I1
tp2990
a(VNS2.GETACHEAPHOST
p2991
F50.0
I1
tp2992
a(VNS1.ENOSMORAT.PW
p2993
F100.0
I1
tp2994
a(VNS2.SECURESERVER.NET
p2995
F2.7027027027027026
I1
tp2996
a(VAPRIL.NS.CLOUDFLARE
p2997
F12.5
I1
tp2998
a(VDNS2.SUPREMEPANEL32
p2999
F20.0
I1
tp3000
a(VDNS3.ALAPCOM
p3001
F1.0
I1
tp3002
a(VBETH.NS.CLOUDFLARE
p3003
F6.666666666666667
I1
tp3004
a(VNS8297.HOSTGATOR
p3005
F12.5
I1
tp3006
a(VNS3.DNSHOSTINGWEB.NET
p3007
F100.0
I1
tp3008
a(VCNS9.HOSTGATOR
p3009
F5.882352941176471
I1
tp3010
a(V2.NAMEDC
p3011
F6.25
I1
tp3012
a(VNS1.DOMAINCOM-DEFAULT.DOMAINPARKINGSERVER.NET
p3013
F1.1904761904761905
I1
tp3014
a(VNS1.DOMAINMONSTER
p3015
F1.25
I1
tp3016
a(VNS5.DNSDUN.NET
p3017
F0.2364066193853428
I1
tp3018
a(VNS4.BLAZINHOSTING.ORG
p3019
F100.0
I1
tp3020
a(VNS2.ALBUMWINDOW
p3021
F50.0
I1
tp3022
a(VNS6615.HOSTGATOR
p3023
F33.333333333333336
I1
tp3024
a(VNS42.WHOGOHOST
p3025
F3.8461538461538463
I1
tp3026
a(VNS2.FLORIDAVANRENTALS.US
p3027
F0.5050505050505051
I1
tp3028
a(VDNS2.WONDERHOST.EU
p3029
F100.0
I1
tp3030
a(VNS2.M68.SITEGROUND.BIZ
p3031
F33.333333333333336
I1
tp3032
a(VNS81.WORLDNIC
p3033
F5.555555555555555
I1
tp3034
a(VNS2.CLOUDMANOR
p3035
F100.0
I1
tp3036
a(VNS11.ASKFORHOST
p3037
F50.0
I1
tp3038
a(VHENRY.NS.CLOUDFLARE
p3039
F4.761904761904762
I1
tp3040
a(VNS8440.HOSTGATOR
p3041
F33.333333333333336
I1
tp3042
a(VNS1-LION.VIVAWEBHOST
p3043
F33.333333333333336
I1
tp3044
a(VNS1.O2SWITCH.NET
p3045
F9.090909090909092
I1
tp3046
a(VNS-1991.AWSDNS-56.CO.UK
p3047
F100.0
I1
tp3048
a(VNS6.MODIRHOST
p3049
F100.0
I1
tp3050
a(VNS2.HOSTSERV.CO.ZA
p3051
F33.333333333333336
I1
tp3052
a(VDNS2.HELLOWORLDZZZZ.WS
p3053
F100.0
I1
tp3054
a(VNS2.VERITEZ
p3055
F50.0
I1
tp3056
a(VNS1.AVIARHOST.NET
p3057
F100.0
I1
tp3058
a(VSULT626456.MERCURY.ORDERBOX-DNS
p3059
F100.0
I1
tp3060
a(VNS3.HOSTADI
p3061
F100.0
I1
tp3062
a(VNS1.LINEADNS
p3063
F20.0
I1
tp3064
a(VNS1.REDSTONEHISTING.ORG
p3065
F100.0
I1
tp3066
a(VNS6.EHOSTNG
p3067
F100.0
I1
tp3068
a(VNS1.SGP9.SITEGROUND.ASIA
p3069
F16.666666666666668
I1
tp3070
a(VNS2.ALOJATE3
p3071
F100.0
I1
tp3072
a(VNS20.CH-DNS.NET
p3073
F100.0
I1
tp3074
a(VNS28.NIAGAHOSTER
p3075
F1.6129032258064515
I1
tp3076
a(VNS1.MD-24.WEBHOSTBOX.NET
p3077
F33.333333333333336
I1
tp3078
a(VNS2.ALOJATE4
p3079
F100.0
I1
tp3080
a(VNS2.CAMPOCRIATIVO.COM.DIRECTIDELETEDDOMAIN
p3081
F50.0
I1
tp3082
a(VNS1.SMALLBIZWEBHOST
p3083
F25.0
I1
tp3084
a(VNS102.GLOBEHOST
p3085
F20.0
I1
tp3086
a(VNS2.INFIUMHOST
p3087
F100.0
I1
tp3088
a(VNS-465.AWSDNS-58
p3089
F33.333333333333336
I1
tp3090
a(VSHIVA2.HOSTRIGHTNOW
p3091
F50.0
I1
tp3092
a(VNS1.INTERATIVEAD.COM.BR
p3093
F100.0
I1
tp3094
a(VNS1.LOBIHOSTING
p3095
F100.0
I1
tp3096
a(VNS2.JPMORGANCHASE
p3097
F50.0
I1
tp3098
a(VNS1.PLESK-WEB23.WEBHOSTBOX.NET
p3099
F100.0
I1
tp3100
a(VYAON632460.VENUS.ORDERBOX-DNS
p3101
F100.0
I1
tp3102
a(VDNS14.PARKPAGE.FOUNDATIONAPI
p3103
F0.7299270072992701
I1
tp3104
a(VNS309.HOSTGATOR
p3105
F100.0
I1
tp3106
a(VNS2078.IFASTNET
p3107
F50.0
I1
tp3108
a(VMLMLOGIX.MERCURY.ORDERBOX-DNS
p3109
F100.0
I1
tp3110
a(VNS4.ROWDYHOST
p3111
F100.0
I1
tp3112
a(VNS8363.HOSTGATOR
p3113
F20.0
I1
tp3114
a(VNS2.TOWINBIG
p3115
F33.333333333333336
I1
tp3116
a(VNS6599.HOSTGATOR
p3117
F5.2631578947368425
I1
tp3118
a(VNS8385.HOSTGATOR
p3119
F25.0
I1
tp3120
a(VNS1.INCREDIBLECANADA
p3121
F100.0
I1
tp3122
a(VNS1.NEXXIO
p3123
F100.0
I1
tp3124
a(VNS2.MENUCOSTINGSYSTEM
p3125
F33.333333333333336
I1
tp3126
a(VNS1.RAHYABTELECOM
p3127
F100.0
I1
tp3128
a(VNS3.MUAMIHOST
p3129
F100.0
I1
tp3130
a(VNS2.SITEGROUND342
p3131
F1.5151515151515151
I1
tp3132
a(VNS1.WEBHS.ORG
p3133
F50.0
I1
tp3134
a(VNS2.HOSTINGBLUES
p3135
F100.0
I1
tp3136
a(VNS1.USAREMOTE
p3137
F4.545454545454546
I1
tp3138
a(VKAGA491021.VENUS.ORDERBOX-DNS
p3139
F100.0
I1
tp3140
a(VDNS2.SMARTYDNS.COM.AU
p3141
F100.0
I1
tp3142
a(VNS2.DNATECHNOLOGIES.IN
p3143
F100.0
I1
tp3144
a(VNS2.JEANSOWGHBQQ
p3145
F100.0
I1
tp3146
a(VNS6.SAUDIHOST.NET
p3147
F50.0
I1
tp3148
a(VNS210.WEBSITEWELCOME
p3149
F33.333333333333336
I1
tp3150
a(VNS.DAOUS
p3151
F100.0
I1
tp3152
a(VNS3029.BANAHOSTING
p3153
F16.666666666666668
I1
tp3154
a(VJAMES.NS.CLOUDFLARE
p3155
F14.285714285714286
I1
tp3156
a(VNS2.LIVEHOSTING.BIZ
p3157
F100.0
I1
tp3158
a(VNS2.DSERVER.IR
p3159
F100.0
I1
tp3160
a(VNS1.CEEONLINEHOST
p3161
F100.0
I1
tp3162
a(VNS2.CRIACAODESITESJUIZDEFORA.COM.BR
p3163
F100.0
I1
tp3164
a(VMNS02.DOMAINCONTROL
p3165
F5.882352941176471
I1
tp3166
a(VNS4202.BANAHOSTING
p3167
F50.0
I1
tp3168
a(VNS1728.WEBSITEWELCOME
p3169
F100.0
I1
tp3170
a(VNS5.EDELWORKS
p3171
F100.0
I1
tp3172
a(VNS3.BEETWEB.NET
p3173
F100.0
I1
tp3174
a(VNS2.DSREDIRECTION
p3175
F2.4390243902439024
I1
tp3176
a(VNS2FGV.NAME
p3177
F3.5714285714285716
I1
tp3178
a(VNS1.C028JP2616.INFO
p3179
F33.333333333333336
I1
tp3180
a(VC2.JOLLYWORKSHOSTING
p3181
F100.0
I1
tp3182
a(VNS2.ELSERVER
p3183
F6.25
I1
tp3184
a(VNS2.MYSITEHOSTED
p3185
F14.285714285714286
I1
tp3186
a(VNS3.BISNISMEDIA
p3187
F50.0
I1
tp3188
a(VNS42.DOMAINCONTROL
p3189
F16.666666666666668
I1
tp3190
a(VNS1.NURIHOSTING
p3191
F100.0
I1
tp3192
a(VLINUX.FORM-NET
p3193
F100.0
I1
tp3194
a(VNS2.DNSMATRIX.NET
p3195
F50.0
I1
tp3196
a(VNS28.PRODNS.COM.BR
p3197
F100.0
I1
tp3198
a(VDNS1.GANGTHATGIRLFAST.WS
p3199
F100.0
I1
tp3200
a(VNS2.ALTERNATIVAFIREHITS
p3201
F100.0
I1
tp3202
a(VDNS2.WTFISGOINGHERESDF.WS
p3203
F100.0
I1
tp3204
a(VNS1.IHSDNSX30
p3205
F6.25
I1
tp3206
a(VNS2.TMDHOSTING118
p3207
F33.333333333333336
I1
tp3208
a(VNS2.EASYVISA
p3209
F100.0
I1
tp3210
a(VDNS761-1.NEXCESS.NET
p3211
F100.0
I1
tp3212
a(VNS2.DOKTORGUMMI
p3213
F25.0
I1
tp3214
a(VNS1.WHDMS
p3215
F25.0
I1
tp3216
a(VNS1625.WEBSITEWELCOME
p3217
F20.0
I1
tp3218
a(VNS3.2FREEHOSTING
p3219
F20.0
I1
tp3220
a(VNS1.MURESOURCES.NET
p3221
F100.0
I1
tp3222
a(VNS620.HOSTGATOR.COM.BR
p3223
F100.0
I1
tp3224
a(VNS2.WORLDSECURESYSTEMS
p3225
F6.666666666666667
I1
tp3226
a(VNS1.UPLSERVER1
p3227
F50.0
I1
tp3228
a(VNS2.NYKHOST
p3229
F100.0
I1
tp3230
a(VNS8096.HOSTGATOR
p3231
F12.5
I1
tp3232
a(VNS6070.HOSTGATOR
p3233
F9.090909090909092
I1
tp3234
a(VNS3.VEEBLEHOSTING
p3235
F100.0
I1
tp3236
a(VNS8228.HOSTGATOR
p3237
F14.285714285714286
I1
tp3238
a(VNS1.KURUMSALSEOMERKEZI
p3239
F100.0
I1
tp3240
a(VDNS1.OHIMYFRIENDFF.NET
p3241
F100.0
I1
tp3242
a(VNS1016.KVCHOSTING
p3243
F100.0
I1
tp3244
a(VYIYU2.DNSPOD.NET
p3245
F20.0
I1
tp3246
a(VSAVALIYA.MERCURY.ORDERBOX-DNS
p3247
F100.0
I1
tp3248
a(VNS2.DLDWEBHOSTING
p3249
F100.0
I1
tp3250
a(VNS7.THEWEBHOSTSERVER
p3251
F6.666666666666667
I1
tp3252
a(VNS-146.AWSDNS-18
p3253
F50.0
I1
tp3254
a(VNS4.TRENTAHOST
p3255
F100.0
I1
tp3256
a(VNS1.GOLDSUNUCU
p3257
F100.0
I1
tp3258
a(VNS1.M3BAGRIC
p3259
F100.0
I1
tp3260
a(VNS34.NIAGAHOSTER
p3261
F0.9433962264150944
I1
tp3262
a(VNS1.RITSWEB
p3263
F100.0
I1
tp3264
a(VDNS1.SEHAROZZS
p3265
F100.0
I1
tp3266
a(VNS1.SERVER2.MACHADOHOST
p3267
F20.0
I1
tp3268
a(VNS2.HABAAN
p3269
F100.0
I1
tp3270
a(VNS6.HOSTNOWNOW
p3271
F0.2976190476190476
I1
tp3272
a(VNS2.WPGATEWAYSERVER
p3273
F33.333333333333336
I1
tp3274
a(VNS2.AUTOZONEGALLERY
p3275
F100.0
I1
tp3276
a(VNS2.HOSTING78
p3277
F100.0
I1
tp3278
a(VNS6538.HOSTGATOR
p3279
F33.333333333333336
I1
tp3280
a(VANIRBAN.NS.CLOUDFLARE
p3281
F1.4705882352941178
I1
tp3282
a(VNS2.OGENEINAAMIN
p3283
F100.0
I1
tp3284
a(VNS2.MYVORTEXSERVER.US
p3285
F100.0
I1
tp3286
a(VNS2.DELHIDIRECTORYONLINE
p3287
F100.0
I1
tp3288
a(VNS6480.HOSTGATOR
p3289
F50.0
I1
tp3290
a(VCNZCO.VENUS.ORDERBOX-DNS
p3291
F25.0
I1
tp3292
a(VNS1.BEIRUTIN
p3293
F100.0
I1
tp3294
a(VBUDGET42.NOC401
p3295
F100.0
I1
tp3296
a(VNS1.SECURESERVER.NET
p3297
F2.7027027027027026
I1
tp3298
a(VNS2.ADIANTS
p3299
F50.0
I1
tp3300
a(VNS2.VM207.FCOMET
p3301
F50.0
I1
tp3302
a(VNS1.KARUNEEGAR
p3303
F100.0
I1
tp3304
a(VNS1.DNBIZ
p3305
F1.0
I1
tp3306
a(VNS2.WEARECOLORFUL
p3307
F100.0
I1
tp3308
a(VNS19.CH-DNS.NET
p3309
F100.0
I1
tp3310
a(VNS2.SGP22.SITEGROUND.ASIA
p3311
F50.0
I1
tp3312
a(VKNUTH.IHSDNS
p3313
F1.1494252873563218
I1
tp3314
a(VNS1-SD-GOLF458.LEVEL-CLOUD
p3315
F100.0
I1
tp3316
a(VNS2.ABOVE
p3317
F0.11325028312570781
I1
tp3318
a(VNS1.CPANEL0178.HOSPEDAGEMDESITES.WS
p3319
F16.666666666666668
I1
tp3320
a(VNS2.ESM6.SITEGROUND.BIZ
p3321
F4.761904761904762
I1
tp3322
a(VNS01.MEDIOSINTERACTIVOS.NET
p3323
F100.0
I1
tp3324
a(VNS2.HOSTIRAN.NET
p3325
F2.272727272727273
I1
tp3326
a(VNS510.WINHOSTINGSERVER
p3327
F16.666666666666668
I1
tp3328
a(VNSP2.REGISTRATIONTEK
p3329
F33.333333333333336
I1
tp3330
a(VNS2.SECURECYBER.IN
p3331
F50.0
I1
tp3332
a(VNS3.MYHOSTADMIN.NET
p3333
F0.08278145695364239
I1
tp3334
a(VNS1.MDIN-PP-WB1.WEBHOSTBOX.NET
p3335
F100.0
I1
tp3336
a(VNS1.AGARIOGAMES
p3337
F100.0
I1
tp3338
a(VNS271.MULTISERVER.GR
p3339
F100.0
I1
tp3340
a(VNS2.ICONTENT
p3341
F0.02113718030014796
I1
tp3342
a(VNS23.DOVESERVER
p3343
F12.5
I1
tp3344
a(VLISA.NEOSTRADA.NL
p3345
F4.545454545454546
I1
tp3346
a(VNS2.FANTAZISUNUCU.NET
p3347
F1.2195121951219512
I1
tp3348
a(VNS1.NETREGISTRY.NET
p3349
F0.7092198581560284
I1
tp3350
a(VNS3.JOGJAHOST.CO.ID
p3351
F50.0
I1
tp3352
a(VNS2336.HOSTGATOR
p3353
F100.0
I1
tp3354
a(VDNS2.VEEBLEHOSTING
p3355
F50.0
I1
tp3356
a(VNS1.PTWEBSERV.NET
p3357
F50.0
I1
tp3358
a(VCNZCO.EARTH.ORDERBOX-DNS
p3359
F25.0
I1
tp3360
a(VNS18.OVH.NET
p3361
F0.5154639175257731
I1
tp3362
a(VNS3.VODIEN
p3363
F6.25
I1
tp3364
a(VNS4.MUAMIHOST
p3365
F100.0
I1
tp3366
a(VNS1.THECOLORMOON
p3367
F100.0
I1
tp3368
a(VNS2.PIXELFLOAT.NET
p3369
F100.0
I1
tp3370
a(VNSSYD01.AUMANAGED
p3371
F20.0
I1
tp3372
a(VNS2.EDUARDOKRAUS.COM.BR
p3373
F100.0
I1
tp3374
a(VNS2.TRUECMS.COM.AU
p3375
F100.0
I1
tp3376
a(VDNS4.BIRHOST.NET
p3377
F100.0
I1
tp3378
a(VNS35.EAZYSMART
p3379
F50.0
I1
tp3380
a(VNS1.ZOMRO
p3381
F100.0
I1
tp3382
a(VNS2.HOSTHUNTSVILLE
p3383
F100.0
I1
tp3384
a(VNS2.GLOBEXCAMHOST
p3385
F100.0
I1
tp3386
a(VNS1.ESKIZ.NET
p3387
F100.0
I1
tp3388
a(VNS2.DEWAWEB
p3389
F3.7037037037037037
I1
tp3390
a(VNS2.THECLIENTHOST
p3391
F100.0
I1
tp3392
a(VNS1.WASABISERVER
p3393
F100.0
I1
tp3394
a(VNS3.BRANDLIVESRL
p3395
F100.0
I1
tp3396
a(VNS2.FINDSOLUTION.IN
p3397
F100.0
I1
tp3398
a(VNS1.FALCON-HOSTING
p3399
F100.0
I1
tp3400
a(VNS432.EASY.GR
p3401
F100.0
I1
tp3402
a(VSK.S5.CM.NS1.37.ZTOMY
p3403
F0.9174311926605505
I1
tp3404
a(VPLATO.NS.CLOUDFLARE
p3405
F12.5
I1
tp3406
a(VNS2642.ZTOMY
p3407
F2.7027027027027026
I1
tp3408
a(VCP5.W65.NET
p3409
F50.0
I1
tp3410
a(VNS1.LWEB.NET
p3411
F100.0
I1
tp3412
a(VNS2.NEXXIO
p3413
F100.0
I1
tp3414
a(VNS4JNZ.NAME
p3415
F1.0
I1
tp3416
a(VNS1.GLOBEXCAMHOST
p3417
F100.0
I1
tp3418
a(VNS.VIETTELIDC.COM.VN
p3419
F20.0
I1
tp3420
a(VNS12.GUZELHOSTING
p3421
F4.545454545454546
I1
tp3422
a(VNS1.AVCDXB.COM.DIRECTIDELETEDDOMAIN
p3423
F5.0
I1
tp3424
a(VNS2.MYWWW.CO.UK
p3425
F50.0
I1
tp3426
a(VNS2.SEANICWEBSITES
p3427
F100.0
I1
tp3428
a(VNS1.WAPKAHOSTING
p3429
F100.0
I1
tp3430
a(VTERRY.NS.CLOUDFLARE
p3431
F20.0
I1
tp3432
a(VNS2.CBWEBSPACE
p3433
F12.5
I1
tp3434
a(VNS6.IDWEBHOST
p3435
F1.3333333333333333
I1
tp3436
a(VNS1.PHYSBAY
p3437
F100.0
I1
tp3438
a(VNS1.TRUECMS.COM.AU
p3439
F100.0
I1
tp3440
a(VDNS02.GIGAS
p3441
F50.0
I1
tp3442
a(VNS131.MIHANWEBHOST
p3443
F100.0
I1
tp3444
a(VDPS1.NS365.NET
p3445
F1.4285714285714286
I1
tp3446
a(VIRON.DECAD.NET
p3447
F100.0
I1
tp3448
a(VNS1.HOSTING78
p3449
F100.0
I1
tp3450
a(VNS2.FARDAGROUP
p3451
F25.0
I1
tp3452
a(VNS1.PLEROMX
p3453
F50.0
I1
tp3454
a(VNS1.LIVEHOSTSUPPORT
p3455
F100.0
I1
tp3456
a(VNS2.YILDIZLIDEVLETHASTANELERI
p3457
F7.142857142857143
I1
tp3458
a(VNS1.JAYHOSTING
p3459
F25.0
I1
tp3460
a(VNBWEB.VENUS.ORDERBOX-DNS
p3461
F50.0
I1
tp3462
a(VNS1.VERTISOFTPME
p3463
F100.0
I1
tp3464
a(VNS717.HOSTGATOR.COM.BR
p3465
F9.090909090909092
I1
tp3466
a(VNS2.SKYHOST.PK
p3467
F100.0
I1
tp3468
a(VNS8095.HOSTGATOR
p3469
F12.5
I1
tp3470
a(VNS07.NIAGAHOSTER
p3471
F14.285714285714286
I1
tp3472
a(VNS1.ICONTENT
p3473
F0.02113718030014796
I1
tp3474
a(VNS2.GENTEQUEPENSA.NET.BR
p3475
F50.0
I1
tp3476
a(VNS5.GIGAHOST.DK
p3477
F16.666666666666668
I1
tp3478
a(VNS1626.WEBSITEWELCOME
p3479
F20.0
I1
tp3480
a(VNS7.SERVERSBILISIM
p3481
F12.5
I1
tp3482
a(VNS1.BH-IN-14.WEBHOSTBOX.NET
p3483
F20.0
I1
tp3484
a(VNS1.CLEARCHOICE.BIZ
p3485
F100.0
I1
tp3486
a(VNS1.INDONESIADRIVE
p3487
F100.0
I1
tp3488
a(VNS1.PUNJABWEBHOSTING.CO.IN
p3489
F33.333333333333336
I1
tp3490
a(VNS2.MERGECREATION.NET
p3491
F100.0
I1
tp3492
a(VNS1.MIDWESTWEBHOST
p3493
F50.0
I1
tp3494
a(VNS9.IRPOWERWEB
p3495
F50.0
I1
tp3496
a(VNS1.VIACESAR.COM.BR
p3497
F100.0
I1
tp3498
a(VNS-CLOUD-E2.GOOGLEDOMAINS
p3499
F1.0869565217391304
I1
tp3500
a(VDNS1.SIDENET.NET
p3501
F100.0
I1
tp3502
a(VNS2.PHILDAY.INFO
p3503
F100.0
I1
tp3504
a(VCNS71884.HOSTWINDSDNS
p3505
F7.6923076923076925
I1
tp3506
a(VNS1.PEARLGATEPUBLISHING
p3507
F100.0
I1
tp3508
a(VNS8105.HOSTGATOR
p3509
F16.666666666666668
I1
tp3510
a(VNS3.VIDAHOST
p3511
F6.666666666666667
I1
tp3512
a(VNS137.PRODNS.COM.BR
p3513
F100.0
I1
tp3514
a(VNS1.TOPDNS.ME
p3515
F50.0
I1
tp3516
a(VNS2.CARBON2U
p3517
F25.0
I1
tp3518
a(VDNS1.HELLOWORLDZZZZ.WS
p3519
F100.0
I1
tp3520
a(VNS2.WEBACCOUNTSERVER
p3521
F100.0
I1
tp3522
a(VNS5.WINWININFOWAY
p3523
F100.0
I1
tp3524
a(VNS1.SATELLITESERVERS.NET
p3525
F100.0
I1
tp3526
a(VNS5.UTIWARE.NET
p3527
F16.666666666666668
I1
tp3528
a(VNS1.IMOTIONSD1.COM.BR
p3529
F100.0
I1
tp3530
a(VNS96.MULTISERVER.GR
p3531
F100.0
I1
tp3532
a(VDNS2.SERVICIOS-NIC.COM.MX
p3533
F20.0
I1
tp3534
a(VNS1-CLOUD-167806.VALA-BLEU
p3535
F100.0
I1
tp3536
a(VNS1.MACAW.HOST1PLUS
p3537
F100.0
I1
tp3538
a(VNS2.49DH
p3539
F8.333333333333334
I1
tp3540
a(VNS1.AZCWEBSERVICES
p3541
F50.0
I1
tp3542
a(VS2.DUMPACTION
p3543
F100.0
I1
tp3544
a(VNS4.2FREEHOSTING
p3545
F20.0
I1
tp3546
a(VDAMON.NS.CLOUDFLARE
p3547
F9.090909090909092
I1
tp3548
a(VNS138.WEBHOSTINGWORLD.NET
p3549
F100.0
I1
tp3550
a(VNS2.MURESOURCES
p3551
F50.0
I1
tp3552
a(VNS2.COLEBLOGNETWORK
p3553
F100.0
I1
tp3554
a(VNS4002.MOCHAHOST
p3555
F7.6923076923076925
I1
tp3556
a(VNS1.BINDIM
p3557
F3.5714285714285716
I1
tp3558
a(VNS1.TBPSERVER
p3559
F100.0
I1
tp3560
a(VCNS98.HOSTGATOR
p3561
F50.0
I1
tp3562
a(VNS1.SITEGROUND145
p3563
F50.0
I1
tp3564
a(VNS8035.HOSTGATOR
p3565
F100.0
I1
tp3566
a(VNS1.NYKHOST
p3567
F100.0
I1
tp3568
a(VNS7.BLAZINHOSTING.ORG
p3569
F100.0
I1
tp3570
a(VNS2.NEPALTIGER
p3571
F100.0
I1
tp3572
a(VNS308.FASTWEBHOST
p3573
F100.0
I1
tp3574
a(VNS2.JEANSOWGHTQQ
p3575
F100.0
I1
tp3576
a(VNS101.EHOSTS
p3577
F3.7037037037037037
I1
tp3578
a(VNS2.NIXCONTROLPANEL
p3579
F50.0
I1
tp3580
a(VMOLLY.NS.CLOUDFLARE
p3581
F7.6923076923076925
I1
tp3582
a(VNS1.ETIME.BH
p3583
F100.0
I1
tp3584
a(VNS1.VENTRAIP.NET.AU
p3585
F10.0
I1
tp3586
a(VNS11.BLUESPOT.IN
p3587
F100.0
I1
tp3588
a(VDNS2.INTERDOMINIOS
p3589
F5.2631578947368425
I1
tp3590
a(VNS1.ASMALLORANGE
p3591
F1.2658227848101267
I1
tp3592
a(V13.SUCURIDNS
p3593
F50.0
I1
tp3594
a(VNS11.THNOC1
p3595
F50.0
I1
tp3596
a(VNS1.DIVIDER.MYSITEHOSTED
p3597
F25.0
I1
tp3598
a(VNS2.BEHOST.ORG
p3599
F100.0
I1
tp3600
a(VRS24.REGISTRAR-SERVERS
p3601
F100.0
I1
tp3602
a(VDNS2.INKAHOSTING.COM.PE
p3603
F50.0
I1
tp3604
a(VNS4.WHOIS
p3605
F0.7874015748031497
I1
tp3606
a(VNS1.COLEBLOGNETWORK
p3607
F100.0
I1
tp3608
a(VNS1.FREEWHA
p3609
F14.285714285714286
I1
tp3610
a(VNS1-FUNK.SERVERDNSPOINT
p3611
F100.0
I1
tp3612
a(VNS2.JOGJAHOST.CO.ID
p3613
F50.0
I1
tp3614
a(VNS1.GLASSCOAT
p3615
F100.0
I1
tp3616
a(VNS286.FOXTEKNOLOJI
p3617
F33.333333333333336
I1
tp3618
a(VHOST10.HOSTRIVERS
p3619
F100.0
I1
tp3620
a(VNS1.SNGHOST.NET
p3621
F100.0
I1
tp3622
a(VNS2.MORFFEGROUP
p3623
F16.666666666666668
I1
tp3624
a(VNS1.THEREISSOMEGOODQQ
p3625
F100.0
I1
tp3626
a(VNS2.TICOMHOST
p3627
F100.0
I1
tp3628
a(VNS1.CREATIVODNS
p3629
F16.666666666666668
I1
tp3630
a(VDROPTHISHOST-8B5B9727-014A-47BD-8F51-7B26F9E451E5.BIZ
p3631
F100.0
I1
tp3632
a(VNS6.THEWEBHOSTSERVER
p3633
F4.545454545454546
I1
tp3634
a(VNS764.WEBSITEWELCOME
p3635
F20.0
I1
tp3636
a(VDNS1.REGISTEREDSITE
p3637
F3.8461538461538463
I1
tp3638
a(VNS1.HAJHOST
p3639
F100.0
I1
tp3640
a(VNS2.VERITECH.NET
p3641
F100.0
I1
tp3642
a(VNS4.MYWWW.CO.UK
p3643
F50.0
I1
tp3644
a(VNS2.SVRBIK
p3645
F7.6923076923076925
I1
tp3646
a(VNS1.GOWNS4RENT
p3647
F100.0
I1
tp3648
a(VNS4.SIMPLEXHOSTINGS
p3649
F100.0
I1
tp3650
a(VNS4.888DNS.NET
p3651
F0.35335689045936397
I1
tp3652
a(VNS1.HOSTCLAW
p3653
F100.0
I1
tp3654
a(VNS4CFN.NAME
p3655
F2.5
I1
tp3656
a(VDNS2.MAKDOOR
p3657
F100.0
I1
tp3658
a(VNS1.DNSHOSTINGWEB.NET
p3659
F100.0
I1
tp3660
a(VNS1.DIGITIZEDHOST
p3661
F100.0
I1
tp3662
a(VNS1.ALTERNATIVAFIREHITS
p3663
F100.0
I1
tp3664
a(VNS1.ITWARE.IN
p3665
F50.0
I1
tp3666
a(VNS2.TIMDNS
p3667
F100.0
I1
tp3668
a(VNS2.NDNS.CN
p3669
F10.0
I1
tp3670
a(VDONALD.NS.CLOUDFLARE
p3671
F6.666666666666667
I1
tp3672
a(VNS1.SYRAHOST
p3673
F2.0408163265306123
I1
tp3674
a(VNS3.ARDETAMEDIA
p3675
F14.285714285714286
I1
tp3676
a(VEDNA.NS.CLOUDFLARE
p3677
F16.666666666666668
I1
tp3678
a(VNS2.S2.FCOMET
p3679
F50.0
I1
tp3680
a(VELLE.NS.CLOUDFLARE
p3681
F4.761904761904762
I1
tp3682
a(VNS21.TEHRANHOST
p3683
F50.0
I1
tp3684
a(VDNS2.SPARK.PARKING-PAGE.NET
p3685
F3.225806451612903
I1
tp3686
a(VNS40.MYWEBSITEBOX
p3687
F14.285714285714286
I1
tp3688
a(VN3570.NS.YUNJIASU
p3689
F100.0
I1
tp3690
a(VCNS66258.HOSTWINDSDNS
p3691
F50.0
I1
tp3692
a(VNS1.123MEGAHOST
p3693
F100.0
I1
tp3694
a(VNS2.GILGAHOST
p3695
F100.0
I1
tp3696
a(VNS1.SPATIU.NET
p3697
F100.0
I1
tp3698
a(VNS2.XSTHOSTING.IN
p3699
F33.333333333333336
I1
tp3700
a(VNS4.WEBLINKTECHNOLOGIES.NET
p3701
F100.0
I1
tp3702
a(VNS2.EARSERVER.NET
p3703
F100.0
I1
tp3704
a(VNS1.MUAMIHOST
p3705
F100.0
I1
tp3706
a(VNS2.IBETECHNOLOGY
p3707
F100.0
I1
tp3708
a(VNS3228.HOSTGATOR
p3709
F100.0
I1
tp3710
a(VNS55.WORLDNIC
p3711
F3.8461538461538463
I1
tp3712
a(VNEXUS4WEB.VENUS.ORDERBOX-DNS
p3713
F100.0
I1
tp3714
a(VDNS2.MEMYSELFANDI.IN
p3715
F100.0
I1
tp3716
a(VSUPERDOMINIOS.VENUS.ORDERBOX-DNS
p3717
F2.7777777777777777
I1
tp3718
a(VNS2.INDONESIADRIVE
p3719
F100.0
I1
tp3720
a(VNS763.WEBSITEWELCOME
p3721
F20.0
I1
tp3722
a(VNS1.REDSTONEHOSTING.ORG
p3723
F100.0
I1
tp3724
a(VNS2.CHEAPHOSTINDIA.INFO
p3725
F100.0
I1
tp3726
a(VKATE.NS.CLOUDFLARE
p3727
F0.4032258064516129
I1
tp3728
a(VNS172.GLOBEHOST
p3729
F2.9411764705882355
I1
tp3730
a(VNS1.TODOHOSTING.NET
p3731
F50.0
I1
tp3732
a(VINA3.REGISTRAR.EU
p3733
F2.857142857142857
I1
tp3734
a(VNS2.COFFEETIMEROMANCE
p3735
F50.0
I1
tp3736
a(VNS1.EGVIP.NET
p3737
F100.0
I1
tp3738
a(VNS3.LAYERDNS
p3739
F100.0
I1
tp3740
a(VNSSYD02.AUMANAGED
p3741
F20.0
I1
tp3742
a(VNS2.IPSRWEBSERVICES
p3743
F100.0
I1
tp3744
a(VVNCT1010.AVNAM.NET
p3745
F100.0
I1
tp3746
a(VNS3.VENTRAIP.NET.AU
p3747
F11.11111111111111
I1
tp3748
a(VNS1.SAUDIHOST.NET
p3749
F100.0
I1
tp3750
a(VNS1.CLOUDMANOR
p3751
F100.0
I1
tp3752
a(VNS2.BANGLAEXPRESS.AE
p3753
F100.0
I1
tp3754
a(VNS2.NETORIONSOLUTIONS
p3755
F100.0
I1
tp3756
a(VNS1.ISACCONE
p3757
F50.0
I1
tp3758
a(VNS41.WHOGOHOST
p3759
F3.8461538461538463
I1
tp3760
a(VLNS10.CHROMEIS
p3761
F100.0
I1
tp3762
a(VNS1.VIDAHOST
p3763
F6.25
I1
tp3764
a(VNS14.KNOWNSRV
p3765
F50.0
I1
tp3766
a(VNS1.MYWWW.CO.UK
p3767
F50.0
I1
tp3768
a(VNS27.DOVESERVER
p3769
F14.285714285714286
I1
tp3770
a(VNS1.DLDWEBHOSTING
p3771
F100.0
I1
tp3772
a(VNS2.CSOFTS.NET
p3773
F100.0
I1
tp3774
a(VNS1.FANTAZISUNUCU.NET
p3775
F1.2195121951219512
I1
tp3776
a(VNS6.DOMAINMONGER
p3777
F7.142857142857143
I1
tp3778
a(VNS637.WEBSITEWELCOME
p3779
F16.666666666666668
I1
tp3780
a(VNS42.PTWEBSITE
p3781
F100.0
I1
tp3782
a(VNS1.SINGAPOREHOST.SG
p3783
F33.333333333333336
I1
tp3784
a(VNS2.VMX12171.RAPIDDNS.NET.AU
p3785
F100.0
I1
tp3786
a(VNS49.HOSTINGRAJA.IN
p3787
F6.25
I1
tp3788
a(VNS2.SITESDEPOT
p3789
F25.0
I1
tp3790
a(VNS511.WEBSITEWELCOME
p3791
F25.0
I1
tp3792
a(VNS1.DNSFREEDOM.NET
p3793
F50.0
I1
tp3794
a(VNS2.EZDNSCENTER
p3795
F0.2518891687657431
I1
tp3796
a(VNS2.IX1000
p3797
F25.0
I1
tp3798
a(VNS1.LOVEAMMI.PW
p3799
F100.0
I1
tp3800
a(VNS8267.HOSTGATOR
p3801
F33.333333333333336
I1
tp3802
a(VNS3GHW.NAME
p3803
F2.127659574468085
I1
tp3804
a(VNS1.NETCOMASSURE
p3805
F100.0
I1
tp3806
a(VDOCKS16.RZONE.DE
p3807
F5.2631578947368425
I1
tp3808
a(VNS8530.HOSTGATOR
p3809
F11.11111111111111
I1
tp3810
a(VN3103.NS.YUNJIASU
p3811
F33.333333333333336
I1
tp3812
a(VNS2.BDLENS
p3813
F100.0
I1
tp3814
a(VNS1.SEDOPARKING
p3815
F0.1953125
I1
tp3816
a(VNS2.MYPEHOST
p3817
F100.0
I1
tp3818
a(VNS1.DEWAWEB
p3819
F3.7037037037037037
I1
tp3820
a(VNS11.WEBSOLSPK
p3821
F100.0
I1
tp3822
a(VBRIANNA.NS.CLOUDFLARE
p3823
F100.0
I1
tp3824
a(VNS2.M3BAGRIC
p3825
F100.0
I1
tp3826
a(VGRAVITIHOSTING.VENUS.ORDERBOX-DNS
p3827
F50.0
I1
tp3828
a(VNS-CLOUD-E1.GOOGLEDOMAINS
p3829
F1.0869565217391304
I1
tp3830
a(VNS3.BOLDHOSTS
p3831
F33.333333333333336
I1
tp3832
a(VNS2.IT-NEPAL
p3833
F33.333333333333336
I1
tp3834
a(VNS13.KNOWNSRV
p3835
F50.0
I1
tp3836
a(VNS-2018.AWSDNS-60.CO.UK
p3837
F25.0
I1
tp3838
a(VNS2.THESOFTKING
p3839
F50.0
I1
tp3840
a(VNS2.MIDWESTWEBHOST
p3841
F50.0
I1
tp3842
a(VNS1.WEBDESIGNANDHOSTRIYADH
p3843
F100.0
I1
tp3844
a(VNS8203.HOSTGATOR
p3845
F33.333333333333336
I1
tp3846
a(VNS3.ELSERVER
p3847
F7.142857142857143
I1
tp3848
a(VNS1.BDLENS
p3849
F100.0
I1
tp3850
a(VNS2.HSSC.KR
p3851
F100.0
I1
tp3852
a(VNS2.ISSESOLN.NET
p3853
F100.0
I1
tp3854
a(VNS3.NAMESERVER.NET.AU
p3855
F2.7777777777777777
I1
tp3856
a(VNS39.MYWEBSITEBOX
p3857
F14.285714285714286
I1
tp3858
a(VDNS2.REGISTEREDSITE
p3859
F3.8461538461538463
I1
tp3860
a(VNS2.AREAIT.LV
p3861
F50.0
I1
tp3862
a(VNS1.RBS909
p3863
F100.0
I1
tp3864
a(VNS-CLOUD-D4.GOOGLEDOMAINS
p3865
F0.31545741324921134
I1
tp3866
a(VNS2.MDDNS.BIZ
p3867
F100.0
I1
tp3868
a(VDNS1245-2.NEXCESS.NET
p3869
F100.0
I1
tp3870
a(VNS1.UNLIMITED.UK.NET
p3871
F4.545454545454546
I1
tp3872
a(VNS1.CRAZYWEBDUDE
p3873
F100.0
I1
tp3874
a(VNS2.INETSUR33
p3875
F4.545454545454546
I1
tp3876
a(VDNS2.MK-HOST3
p3877
F100.0
I1
tp3878
a(VNS-CLOUD-B4.GOOGLEDOMAINS
p3879
F0.15723270440251572
I1
tp3880
a(VNS1.US12.SITEGROUND.US
p3881
F1.7857142857142858
I1
tp3882
a(VNS18.SUPERDNSSITE
p3883
F50.0
I1
tp3884
a(VNS16.IXWEBHOSTING
p3885
F8.333333333333334
I1
tp3886
a(VNS2.535E.BLACKMESH
p3887
F100.0
I1
tp3888
a(VNS2.DSNTOURS
p3889
F100.0
I1
tp3890
a(VV6.GRUPOWSBRASIL.COM.BR
p3891
F25.0
I1
tp3892
a(VNS2.CZARSINDIA.CO.IN
p3893
F100.0
I1
tp3894
a(VNS-1265.AWSDNS-30.ORG
p3895
F20.0
I1
tp3896
a(VNS2.SEDOPARKING
p3897
F0.1953125
I1
tp3898
a(VNS1.TMII.CO
p3899
F100.0
I1
tp3900
a(VNS2.MULTIHOST.XYZ
p3901
F100.0
I1
tp3902
a(VNS433.EASY.GR
p3903
F100.0
I1
tp3904
a(VNS4.MIZBANFA.NET
p3905
F50.0
I1
tp3906
a(VNS1.MIGMARKETING.BIZ
p3907
F50.0
I1
tp3908
a(VNS1.DEVARSHPATEL
p3909
F100.0
I1
tp3910
a(VNS2-PASSAT.VIVAWEBHOST
p3911
F33.333333333333336
I1
tp3912
a(VNS2.OFFSHORERACKS
p3913
F16.666666666666668
I1
tp3914
a(VNS1.MENUCOSTINGSYSTEM
p3915
F33.333333333333336
I1
tp3916
a(VNS2.GENIUSHOST.IN
p3917
F100.0
I1
tp3918
a(VSID.NS.CLOUDFLARE
p3919
F10.0
I1
tp3920
a(VNS1.MAESOD.INFO
p3921
F100.0
I1
tp3922
a(VNS71.WORLDNIC
p3923
F5.2631578947368425
I1
tp3924
a(VNS2.BISWASIT
p3925
F100.0
I1
tp3926
a(VNSP52476.DNS-PRIVADAS.ES
p3927
F14.285714285714286
I1
tp3928
a(VNS1.GENDNS
p3929
F100.0
I1
tp3930
a(VNS2.CYBEREXPERTZ
p3931
F100.0
I1
tp3932
a(VAMY.NS.CLOUDFLARE
p3933
F6.25
I1
tp3934
a(VPIPINO.TISCALI.IT
p3935
F100.0
I1
tp3936
a(VTR1.FIBERDNS.NET
p3937
F25.0
I1
tp3938
a(VNS2.SITEGROUND216
p3939
F33.333333333333336
I1
tp3940
a(VDNS1GYE.CYBERWEB.NET.EC
p3941
F25.0
I1
tp3942
a(VDNS10.LINUXPL
p3943
F33.333333333333336
I1
tp3944
a(VNS11.HOSTEXCELLENCE
p3945
F50.0
I1
tp3946
a(VNS2.51DNS
p3947
F0.14534883720930233
I1
tp3948
a(VNS1.ABEGHOST
p3949
F50.0
I1
tp3950
a(VKAY.NS.CLOUDFLARE
p3951
F8.333333333333334
I1
tp3952
a(VNS1.HYRAX.ARVIXE
p3953
F100.0
I1
tp3954
a(VNS2.PARTNERCONSOLE.NET
p3955
F2.5641025641025643
I1
tp3956
a(VCNS71885.HOSTWINDSDNS
p3957
F7.6923076923076925
I1
tp3958
a(VNS.THYA.NET
p3959
F100.0
I1
tp3960
a(VBRETT.NS.CLOUDFLARE
p3961
F11.11111111111111
I1
tp3962
a(VSHIVA1.HOSTRIGHTNOW
p3963
F50.0
I1
tp3964
a(VPARK.I-NOW.CN
p3965
F1.5151515151515151
I1
tp3966
a(VNS28.DOVESERVER
p3967
F14.285714285714286
I1
tp3968
a(VUS.NS.X2N.COM.BR
p3969
F20.0
I1
tp3970
a(VNS.LWEB.NET
p3971
F100.0
I1
tp3972
a(VNS-618.AWSDNS-13.NET
p3973
F100.0
I1
tp3974
a(VNS2.123MEGAHOST
p3975
F100.0
I1
tp3976
a(VNS1.MYLHNS.NET
p3977
F7.6923076923076925
I1
tp3978
a(VMETIS.SADOMAIN
p3979
F100.0
I1
tp3980
a(VNS1.HOSTRAYATECH
p3981
F100.0
I1
tp3982
a(VNS2.TATAR28
p3983
F100.0
I1
tp3984
a(VNS2.CP-IN-11.WEBHOSTBOX.NET
p3985
F6.25
I1
tp3986
a(VNS6093.HOSTGATOR
p3987
F16.666666666666668
I1
tp3988
a(VNS76.MULTISERVER.GR
p3989
F50.0
I1
tp3990
a(VS2.DUMPACTION.INFO
p3991
F100.0
I1
tp3992
a(VNS1.DNS23.HU
p3993
F100.0
I1
tp3994
a(VNS3.ROWDYHOST
p3995
F100.0
I1
tp3996
a(VNS6047.HOSTGATOR
p3997
F50.0
I1
tp3998
a(VVNS1.NOCDIRECT
p3999
F14.285714285714286
I1
tp4000
a(VNS1.AM27.SITEGROUND.BIZ
p4001
F100.0
I1
tp4002
a(VNS2.PTCQSOLUTIONS
p4003
F100.0
I1
tp4004
a(VDNS1.IBISCOMPUTER
p4005
F50.0
I1
tp4006
a(VSAVALIYA.MARS.ORDERBOX-DNS
p4007
F100.0
I1
tp4008
a(VNS3.EDUARDOKRAUS.COM.BR
p4009
F100.0
I1
tp4010
a(VSERVER11.HOSTDATASECURE.NET
p4011
F100.0
I1
tp4012
a(VNS2.PARAMOUNTWEBHOSTING
p4013
F100.0
I1
tp4014
a(VNS2.SITEGROUND145
p4015
F50.0
I1
tp4016
a(VNS2.SOLIDHOSTING.PH
p4017
F50.0
I1
tp4018
a(VNS1.PHILDAY.INFO
p4019
F100.0
I1
tp4020
a(VNS2354.HOSTGATOR
p4021
F33.333333333333336
I1
tp4022
a(VNS1.KPKSOJOLSMWV
p4023
F100.0
I1
tp4024
a(VNS7.JOMHOSTING.NET
p4025
F100.0
I1
tp4026
a(VDNS2.HOSTING.SBB.RS
p4027
F50.0
I1
tp4028
a(VNS175.WEBSITEWELCOME
p4029
F100.0
I1
tp4030
a(VNS3.EZDNSCENTER
p4031
F0.25252525252525254
I1
tp4032
a(VH1.SUPORTED-INTERN
p4033
F100.0
I1
tp4034
a(VNS2353.HOSTGATOR
p4035
F33.333333333333336
I1
tp4036
a(VNS2.SISTEMASIGNOSMEDIA
p4037
F7.6923076923076925
I1
tp4038
a(VNS1.FARAFINET.NET
p4039
F6.25
I1
tp4040
a(VNS4.JINFO.NET
p4041
F25.0
I1
tp4042
a(VB.DNS.GANDI.NET
p4043
F0.8620689655172413
I1
tp4044
a(VNS2.OBINNAKELS
p4045
F100.0
I1
tp4046
a(VNS1.IBNTECH
p4047
F100.0
I1
tp4048
a(VNS29.NIAGAHOSTER
p4049
F1.639344262295082
I1
tp4050
a(VNS2.COLOMBIAHOSTING
p4051
F4.166666666666667
I1
tp4052
a(VNS12.DOVESERVER
p4053
F6.666666666666667
I1
tp4054
a(VNS14.HOSTINGRAJA.IN
p4055
F33.333333333333336
I1
tp4056
a(VNS2.AUROINFO
p4057
F100.0
I1
tp4058
a(VNS2.TBPSERVER
p4059
F100.0
I1
tp4060
a(VNS102.CLOUDNS.NET
p4061
F100.0
I1
tp4062
a(VNS6479.HOSTGATOR
p4063
F50.0
I1
tp4064
a(VNS697.HOSTGATOR.COM.BR
p4065
F6.666666666666667
I1
tp4066
a(VNS4.COMBELL.NET
p4067
F10.0
I1
tp4068
a(VHOSTINGSRV5NS1.HOSTINGFLAME.ORG
p4069
F50.0
I1
tp4070
a(VNS1.ASIOSTUDIO
p4071
F100.0
I1
tp4072
a(VNS2.Z4PBRASIL.COM.BR
p4073
F100.0
I1
tp4074
a(VNS2.MICROWEBSYS
p4075
F100.0
I1
tp4076
a(VNS2.TODOHOSTING.NET
p4077
F50.0
I1
tp4078
a(VNS2.WEBDESIGNANDHOSTRIYADH
p4079
F100.0
I1
tp4080
a(VNS24.DOVESERVER
p4081
F12.5
I1
tp4082
a(VCLINT.NS.CLOUDFLARE
p4083
F100.0
I1
tp4084
a(VNS2.YOURWELNESSDEAL
p4085
F100.0
I1
tp4086
a(VNS193.WEBSITEWELCOME
p4087
F100.0
I1
tp4088
a(VNS1.HOSTINGSUPER
p4089
F50.0
I1
tp4090
a(VNS2646.ZTOMY
p4091
F0.35587188612099646
I1
tp4092
a(VDNS02.ITA.COM.GR
p4093
F10.0
I1
tp4094
a(VNS1.ARTICNETWORKS.NET
p4095
F25.0
I1
tp4096
a(VNS481.ISTANBULHOST
p4097
F100.0
I1
tp4098
a(VNS1.99CLASSI
p4099
F100.0
I1
tp4100
a(VNS3.SPACEHOST.IN
p4101
F100.0
I1
tp4102
a(VNS2.ISNPK
p4103
F50.0
I1
tp4104
a(VDNS1.JAVANRAYAN
p4105
F100.0
I1
tp4106
a(VNS3.MEEBOX.NET
p4107
F33.333333333333336
I1
tp4108
a(VNS12.BIGWWW
p4109
F0.8403361344537815
I1
tp4110
a(VNS1.PARAMOUNTWEBHOSTING
p4111
F100.0
I1
tp4112
a(VNS1.BH-32.WEBHOSTBOX.NET
p4113
F33.333333333333336
I1
tp4114
a(VNS36.WORLDNIC
p4115
F5.0
I1
tp4116
a(VNS2.ASCRICKET
p4117
F100.0
I1
tp4118
a(VNS6165.HOSTGATOR
p4119
F33.333333333333336
I1
tp4120
a(VNS2.WEBRADIOO.NET
p4121
F100.0
I1
tp4122
a(VFREEDNS5.REGISTRAR-SERVERS
p4123
F1.5625
I1
tp4124
a(VNS239.WEBSITEWELCOME
p4125
F100.0
I1
tp4126
a(VNS-184.AWSDNS-23
p4127
F50.0
I1
tp4128
a(VNS2.PCAGQFCI.RU
p4129
F100.0
I1
tp4130
a(VNS9.PACIFICHOST
p4131
F100.0
I1
tp4132
a(VNS2.TECHTUNES.INFO
p4133
F50.0
I1
tp4134
a(VNS8274.HOSTGATOR
p4135
F10.0
I1
tp4136
a(VNOAH.NS.CLOUDFLARE
p4137
F10.0
I1
tp4138
a(VCNS66259.HOSTWINDSDNS
p4139
F50.0
I1
tp4140
a(VNS2.DNSBYCOMODO.NET
p4141
F3.225806451612903
I1
tp4142
a(VNS4018.WEBSITEWELCOME
p4143
F33.333333333333336
I1
tp4144
a(VNS1002.CYBERNETHOST
p4145
F100.0
I1
tp4146
a(VNS1.TAKAHOST
p4147
F100.0
I1
tp4148
a(VNS1.TICOMHOST
p4149
F100.0
I1
tp4150
a(VNS3FQS.NAME
p4151
F1.8518518518518519
I1
tp4152
a(VLEIA.NS.CLOUDFLARE
p4153
F16.666666666666668
I1
tp4154
a(VNS3.MORFFEGROUP
p4155
F25.0
I1
tp4156
a(VNS29.PRODNS.COM.BR
p4157
F100.0
I1
tp4158
a(VNS12.WIXDNS.NET
p4159
F0.3067484662576687
I1
tp4160
a(VDNS246131.PHDNS9.ES
p4161
F100.0
I1
tp4162
a(VNS2.M28.SITEGROUND.BIZ
p4163
F100.0
I1
tp4164
a(VNS1.AXS-FR.NET
p4165
F9.090909090909092
I1
tp4166
a(VNS148.UMBLER.IN
p4167
F12.5
I1
tp4168
a(VNS2.COOLHOSTAFRICA
p4169
F100.0
I1
tp4170
a(VNS2.DESIGNSC.IT
p4171
F20.0
I1
tp4172
a(VCUSTOMER2.BUYDOMAINS
p4173
F10.0
I1
tp4174
a(VSECURE2.WHOLESALEJAIPURKURTI
p4175
F100.0
I1
tp4176
a(VCHRIS.NS.CLOUDFLARE
p4177
F25.0
I1
tp4178
a(VNS2.SADECEHOSTING
p4179
F2.4390243902439024
I1
tp4180
a(VNS1.UMIYAJI
p4181
F25.0
I1
tp4182
a(VNS2.WEBHOSTINGTEC
p4183
F50.0
I1
tp4184
a(VDNS4.51DNS.TOP
p4185
F7.6923076923076925
I1
tp4186
a(VNS2.DRAGONPARKING
p4187
F1.4492753623188406
I1
tp4188
a(VNS2.SERVIDORLINUX7
p4189
F100.0
I1
tp4190
a(VNS2.INNOVATIVEWEBMAKERS.IN
p4191
F33.333333333333336
I1
tp4192
a(VNS1.RTECHNOSERVICES
p4193
F100.0
I1
tp4194
a(VNS1.HOST-TOWN
p4195
F100.0
I1
tp4196
a(VNS9.POINTDNSHERE
p4197
F50.0
I1
tp4198
a(VNS1.SPARKZSERVER
p4199
F50.0
I1
tp4200
a(VNS1.SGCLOUD2U
p4201
F100.0
I1
tp4202
a(VVNS.HOSTER.KZ
p4203
F33.333333333333336
I1
tp4204
a(VNS4.PAIRNIC
p4205
F100.0
I1
tp4206
a(VMLMLOGIX.EARTH.ORDERBOX-DNS
p4207
F100.0
I1
tp4208
a(VNS2.KURUMSALSEOMERKEZI
p4209
F100.0
I1
tp4210
a(VNS26.WEBSITEWELCOME
p4211
F100.0
I1
tp4212
a(VNS1.CP-47.WEBHOSTBOX.NET
p4213
F3.3333333333333335
I1
tp4214
a(VNS1.IFASTNET12.ORG
p4215
F100.0
I1
tp4216
a(VNS6182.HOSTGATOR
p4217
F33.333333333333336
I1
tp4218
a(VNS3.GARLIC
p4219
F50.0
I1
tp4220
a(VNS2.GOPREMADE
p4221
F50.0
I1
tp4222
a(VNS1.HAVANAY
p4223
F33.333333333333336
I1
tp4224
a(VNS2.DEFENSIVESERVERS.XYZ
p4225
F100.0
I1
tp4226
a(VNS1FKL.NAME
p4227
F1.639344262295082
I1
tp4228
a(VNS2.ONLINEDEVHOSTING
p4229
F100.0
I1
tp4230
a(VNS3.LINUXCENTRO.NET
p4231
F50.0
I1
tp4232
a(VNS1.REGISTER.IT
p4233
F1.3513513513513513
I1
tp4234
a(VNS2.OPTIMOSOLUTION
p4235
F50.0
I1
tp4236
a(VHOST01.ATS-COM.NET
p4237
F100.0
I1
tp4238
a(VNS1.KISLIY
p4239
F100.0
I1
tp4240
a(VNS1.GIGAHOST.DK
p4241
F16.666666666666668
I1
tp4242
a(VDNS2006B.TROUBLE-FREE.NET
p4243
F20.0
I1
tp4244
a(VNS1.IBERSTATION
p4245
F25.0
I1
tp4246
a(VNS2.DNSDUN
p4247
F2.5641025641025643
I1
tp4248
a(VDNS2.SECUREFASTSERVER
p4249
F50.0
I1
tp4250
a(VNS2.NOCSU
p4251
F50.0
I1
tp4252
a(VCP7.NETWORKDE
p4253
F100.0
I1
tp4254
a(VNS1.ESOLUTIONXPERT
p4255
F25.0
I1
tp4256
a(VGUSS.NS.CLOUDFLARE
p4257
F16.666666666666668
I1
tp4258
a(VNS2.WEBHS.ORG
p4259
F50.0
I1
tp4260
a(VDNS2.IBISCOMPUTER
p4261
F50.0
I1
tp4262
a(VNS1.SIMPLEXHOSTINGS
p4263
F100.0
I1
tp4264
a(VNS1.BLANDIT.ORG
p4265
F100.0
I1
tp4266
a(VNS2.UPLSERVER1
p4267
F50.0
I1
tp4268
a(VNS2.ELIAWEB.NET
p4269
F50.0
I1
tp4270
a(VNS1.GREETINGSEUROPASQQ
p4271
F100.0
I1
tp4272
a(VNS1-R8-LONDON.WEBSERVERSYSTEMS
p4273
F100.0
I1
tp4274
a(VEU.DNSENABLE
p4275
F0.25125628140703515
I1
tp4276
a(VNS1.CUBEABOUT
p4277
F100.0
I1
tp4278
a(VNS1082.IFASTNET
p4279
F50.0
I1
tp4280
a(VNS1.WEBHOSTINGARGENTINA.NET
p4281
F100.0
I1
tp4282
a(VNS2.HOBOHOST
p4283
F33.333333333333336
I1
tp4284
a(VNS1.USM7.SITEGROUND.BIZ
p4285
F14.285714285714286
I1
tp4286
a(VNS1.ROJEKOHOST
p4287
F25.0
I1
tp4288
a(VNS1015.KVCHOSTING
p4289
F100.0
I1
tp4290
a(VNSC.BOOKMYNAME
p4291
F5.0
I1
tp4292
a(VNS35.WORLDNIC
p4293
F5.0
I1
tp4294
a(VNS2.CMTP.IN
p4295
F100.0
I1
tp4296
a(VNS1.UUNETWORKING
p4297
F50.0
I1
tp4298
a(VNS2.IHSDNSX30
p4299
F6.25
I1
tp4300
a(VNS108.EHOSTS
p4301
F4.3478260869565215
I1
tp4302
a(VNS2.SERVERXY
p4303
F1.0309278350515463
I1
tp4304
a(VNS0.UNLIMITED.UK.NET
p4305
F4.761904761904762
I1
tp4306
a(VNS2.AWSHOSTING.COM.AU
p4307
F100.0
I1
tp4308
a(VNS1.CAMPOCRIATIVO.COM.DIRECTIDELETEDDOMAIN
p4309
F50.0
I1
tp4310
a(VNS31.NIAGAHOSTER
p4311
F1.492537313432836
I1
tp4312
a(VNS2.HMSNS
p4313
F25.0
I1
tp4314
a(VNS1.WEBADMINISTRABLE.NET
p4315
F100.0
I1
tp4316
a(VNS20.DNSDHS
p4317
F20.0
I1
tp4318
a(VNS2.CHARVIASSOCIATES
p4319
F33.333333333333336
I1
tp4320
a(VNS1.YOMHOST
p4321
F100.0
I1
tp4322
a(VNS782.WEBSITEWELCOME
p4323
F100.0
I1
tp4324
a(VNS2.GLOBALTECH1
p4325
F100.0
I1
tp4326
a(VNS2.DHYANIPATEL
p4327
F14.285714285714286
I1
tp4328
a(VDNS4.MASTERWEB.NET
p4329
F10.0
I1
tp4330
a(VDROPTHISHOST-68E8A6FE-F61D-4D79-8878-49463C96C172.BIZ
p4331
F100.0
I1
tp4332
a(VNS1.COMICSOOT.IN
p4333
F100.0
I1
tp4334
a(VNS1.CISHOST.RU
p4335
F100.0
I1
tp4336
a(VNS1.REGISTRANT-VERIFICATION
p4337
F0.5263157894736842
I1
tp4338
a(VDNS01.MUUMUU-DOMAIN
p4339
F0.45045045045045046
I1
tp4340
a(VNS49.SUPERDOMAINZONE
p4341
F33.333333333333336
I1
tp4342
a(VNS83.DNSAB.NET
p4343
F100.0
I1
tp4344
a(VNS10.PARSISCO.NET
p4345
F100.0
I1
tp4346
a(VNS1.TORREYCOMITOR
p4347
F100.0
I1
tp4348
a(VNS1.NETVOYNE
p4349
F100.0
I1
tp4350
a(VNS1.CLIENTSWEBHOSTING
p4351
F100.0
I1
tp4352
a(VNS4026.HOSTGATOR
p4353
F5.882352941176471
I1
tp4354
a(VNS138.SUPERHOSTING.BG
p4355
F8.333333333333334
I1
tp4356
a(VNS2.UHCLOUD
p4357
F50.0
I1
tp4358
a(VNS2.C17721.SGVPS.NET
p4359
F100.0
I1
tp4360
a(VYIYU1.DNSPOD.NET
p4361
F20.0
I1
tp4362
a(VNS3232.HOSTGATOR
p4363
F100.0
I1
tp4364
a(VSHADES10.RZONE.DE
p4365
F4.761904761904762
I1
tp4366
a(VNS2.BANBIZ
p4367
F100.0
I1
tp4368
a(VNS2.PINOYWEBSITE.NET
p4369
F50.0
I1
tp4370
a(VSNS40.WIN.HOSTGATOR
p4371
F33.333333333333336
I1
tp4372
a(VNS1129.IL.CONTROLADORDNS
p4373
F5.2631578947368425
I1
tp4374
a(VNS2.POSER-CHEKA.IN
p4375
F100.0
I1
tp4376
a(VNS1.BH-50.WEBHOSTBOX.NET
p4377
F50.0
I1
tp4378
a(VNS4.NERION
p4379
F100.0
I1
tp4380
a(VNS2.RBS909
p4381
F100.0
I1
tp4382
a(VNS1.DNSBYCOMODO.NET
p4383
F3.225806451612903
I1
tp4384
a(VNS378.WEBSITEWELCOME
p4385
F25.0
I1
tp4386
a(VNS1-SHARDA.EWEBGURU
p4387
F33.333333333333336
I1
tp4388
a(VNS3.MYWWW.CO.UK
p4389
F50.0
I1
tp4390
a(VNS2.BH-59.WEBHOSTBOX.NET
p4391
F50.0
I1
tp4392
a(VNS1.GENHOST.IN
p4393
F25.0
I1
tp4394
a(VNS2.CTF.BLUE
p4395
F14.285714285714286
I1
tp4396
a(VNS5.MODIRHOST
p4397
F100.0
I1
tp4398
a(VNS6116.HOSTGATOR
p4399
F100.0
I1
tp4400
a(VNS1.MEDIALINTASCYBER
p4401
F50.0
I1
tp4402
a(VNS6483.HOSTGATOR
p4403
F50.0
I1
tp4404
a(VNS2.YLGVODNS
p4405
F100.0
I1
tp4406
a(VNS2.DAOUS
p4407
F100.0
I1
tp4408
a(VNS2.CARLOSP.COM.BR
p4409
F100.0
I1
tp4410
a(VBEAU.NS.CLOUDFLARE
p4411
F12.5
I1
tp4412
a(VNS865.WEBSITEWELCOME
p4413
F33.333333333333336
I1
tp4414
a(VNS8389.HOSTGATOR
p4415
F33.333333333333336
I1
tp4416
a(VNS1.E-HOSTING.COM.VE
p4417
F9.090909090909092
I1
tp4418
a(VDNS2.50WEBS
p4419
F100.0
I1
tp4420
a(VNS17.WHOGOHOST
p4421
F100.0
I1
tp4422
a(VNS9.WORLDNIC
p4423
F4.0
I1
tp4424
a(VNS1.MIDDLELEVELJOBS
p4425
F100.0
I1
tp4426
a(VDNS1.MEMYSELFANDI.IN
p4427
F100.0
I1
tp4428
a(VNS2.DOMAINCOM-DEFAULT.DOMAINPARKINGSERVER.NET
p4429
F1.1904761904761905
I1
tp4430
a(VNS4.DUTYHOST.NET
p4431
F100.0
I1
tp4432
a(VRS141.REGISTRAR-SERVERS
p4433
F33.333333333333336
I1
tp4434
a(VVICK.NS.CLOUDFLARE
p4435
F12.5
I1
tp4436
a(VNS3.NET4INDIA
p4437
F100.0
I1
tp4438
a(VNS2.YOUTHOUGHTS
p4439
F100.0
I1
tp4440
a(VNS1.INDIAWEBHOME
p4441
F100.0
I1
tp4442
a(VNS2.PHEENIX
p4443
F100.0
I1
tp4444
a(VNS45.STABLESERVER.NET
p4445
F100.0
I1
tp4446
a(V2.DNS-V2
p4447
F3.8461538461538463
I1
tp4448
a(VIPRO1.MERCURY.ORDERBOX-DNS
p4449
F100.0
I1
tp4450
a(VNS27.NIAGAHOSTER
p4451
F1.6129032258064515
I1
tp4452
a(VNS-CLOUD-E3.GOOGLEDOMAINS
p4453
F1.0869565217391304
I1
tp4454
a(VNS4.IBETECHNOLOGY
p4455
F100.0
I1
tp4456
a(VNS2.WELCOMEHOST.COM.BR
p4457
F100.0
I1
tp4458
a(VBOYD.NS.CLOUDFLARE
p4459
F50.0
I1
tp4460
a(VDNS23315.DIZINC
p4461
F100.0
I1
tp4462
a(VNS1.CARBON2U
p4463
F25.0
I1
tp4464
a(VCLCP1.NIBSDNS
p4465
F100.0
I1
tp4466
a(VNS342.HOSTERPK
p4467
F0.20491803278688525
I1
tp4468
a(VNS14.WIXDNS.NET
p4469
F0.21978021978021978
I1
tp4470
a(VDNS2.PAPAKI.GR
p4471
F6.25
I1
tp4472
a(VNS8.NCRDNS.NET
p4473
F25.0
I1
tp4474
a(VNS1.PTCQSOLUTIONS
p4475
F100.0
I1
tp4476
a(VNS1.GLOBALGUJARATI
p4477
F100.0
I1
tp4478
a(VNS2828.DIZINC
p4479
F50.0
I1
tp4480
a(VNS2.INFOSOLTECHNOLOGIES
p4481
F100.0
I1
tp4482
a(VUS.DNSENABLE
p4483
F0.25125628140703515
I1
tp4484
a(V34751.EARTH.ORDERBOX-DNS
p4485
F100.0
I1
tp4486
a(VNS1.NSALT.NET
p4487
F100.0
I1
tp4488
a(VNS2.CUJUSVIS.RU
p4489
F100.0
I1
tp4490
a(VNS1.GRANDPAHOST
p4491
F100.0
I1
tp4492
a(VNS1.STREAMINGDOMINICANA.NET
p4493
F100.0
I1
tp4494
a(VNS8028.HOSTGATOR
p4495
F25.0
I1
tp4496
a(VNS1.SUPERHEROHOSTING.CA
p4497
F100.0
I1
tp4498
a(VNS2.FARAFINET.NET
p4499
F6.25
I1
tp4500
a(VMLMLOGIX.VENUS.ORDERBOX-DNS
p4501
F100.0
I1
tp4502
a(VNS1579.HOSTGATOR
p4503
F100.0
I1
tp4504
a(VNS3DTY.NAME
p4505
F5.882352941176471
I1
tp4506
a(VNS377.WEBSITEWELCOME
p4507
F25.0
I1
tp4508
a(VNS1.CITYEYEZ
p4509
F100.0
I1
tp4510
a(VNS2.CYBERWURX
p4511
F33.333333333333336
I1
tp4512
a(VNS1.NAMESERVER.NET.AU
p4513
F2.7777777777777777
I1
tp4514
a(VNS6126.HOSTGATOR
p4515
F100.0
I1
tp4516
a(VNS308.WEBSITEWELCOME
p4517
F50.0
I1
tp4518
a(VNS2.HYRAX.ARVIXE
p4519
F100.0
I1
tp4520
a(VNS1.MARIJANASUBOTIC
p4521
F100.0
I1
tp4522
a(VNS1.GRIMAX.COM.TR
p4523
F100.0
I1
tp4524
a(VNS2.SINSPAM
p4525
F50.0
I1
tp4526
a(VNS3475.HOSTGATOR
p4527
F100.0
I1
tp4528
a(VNS2.HOSTPHOENIX.ORG
p4529
F100.0
I1
tp4530
a(VNS3.NETREGISTRY.NET
p4531
F0.7092198581560284
I1
tp4532
a(VNS1.PROPERTYPROBE
p4533
F100.0
I1
tp4534
a(VNS2.LOCUSWEBMARKETING
p4535
F100.0
I1
tp4536
a(VNS7.IDWEBHOST
p4537
F1.3513513513513513
I1
tp4538
a(VNS1018.WEBSITEWELCOME
p4539
F100.0
I1
tp4540
a(VNS1.SOLIDHOSTING.PH
p4541
F50.0
I1
tp4542
a(VNS1.MERACSYNERGY
p4543
F100.0
I1
tp4544
a(VNS3.YOURHOST.CO
p4545
F11.11111111111111
I1
tp4546
a(VNS1.AUTOZONEGALLERY
p4547
F100.0
I1
tp4548
a(VDNS3.BIGROCK
p4549
F12.5
I1
tp4550
a(VNS2CKR.NAME
p4551
F0.8849557522123894
I1
tp4552
a(VNS8442.HOSTGATOR
p4553
F25.0
I1
tp4554
a(VNS4.P18.DYNECT.NET
p4555
F5.0
I1
tp4556
a(VNS2.007NAMES.NET
p4557
F6.25
I1
tp4558
a(VNS2.DRAMASKIDUNYA
p4559
F8.333333333333334
I1
tp4560
a(VNS19.DNSDHS
p4561
F20.0
I1
tp4562
a(VNS1.51DNS
p4563
F0.14556040756914118
I1
tp4564
a(VNS1.ESSEGURO.NET
p4565
F50.0
I1
tp4566
a(VNS1.WEBHOSTINGTEC
p4567
F50.0
I1
tp4568
a(VNS2.NSRESPONSE
p4569
F3.8461538461538463
I1
tp4570
a(VNS1.DOMAIN
p4571
F0.5154639175257731
I1
tp4572
a(VNS4016.HOSTGATOR
p4573
F20.0
I1
tp4574
a(VNSDAL01.AUMANAGED
p4575
F20.0
I1
tp4576
a(VNS534.UMBLER
p4577
F12.5
I1
tp4578
a(VNS638.WEBSITEWELCOME
p4579
F16.666666666666668
I1
tp4580
a(VC1.JOLLYWORKSHOSTING
p4581
F100.0
I1
tp4582
a(VDNS2.OHIMYFRIENDFF.NET
p4583
F100.0
I1
tp4584
a(VNS245.NEUBOX.NET
p4585
F3.0303030303030303
I1
tp4586
a(VNS1.IPWEBDNS
p4587
F100.0
I1
tp4588
a(VH10NS1.AXXESSLOCAL.CO.ZA
p4589
F100.0
I1
tp4590
a(VNS1.DIVINOHOST
p4591
F100.0
I1
tp4592
a(VNS2.CISHOST.RU
p4593
F100.0
I1
tp4594
a(VNS8106.HOSTGATOR
p4595
F16.666666666666668
I1
tp4596
a(VNS2.FISHFINDERS.INFO
p4597
F100.0
I1
tp4598
a(VNS1.VENTUREBRANDED
p4599
F100.0
I1
tp4600
a(VNS7.NCRDNS.NET
p4601
F25.0
I1
tp4602
a(VNS2.SMALLBIZWEBHOST
p4603
F25.0
I1
tp4604
a(VPARK1.HOSTING24
p4605
F3.0303030303030303
I1
tp4606
a(VNS86.WEBSITEWELCOME
p4607
F33.333333333333336
I1
tp4608
a(VNS1.BISNISMEDIA
p4609
F50.0
I1
tp4610
a(VNS01.SERVIUP
p4611
F100.0
I1
tp4612
a(VNS162254252204.A2DNS
p4613
F25.0
I1
tp4614
a(VNS4.HOSTINGER.COM.BR
p4615
F4.166666666666667
I1
tp4616
a(VNS2.VIETTELIDC.COM.VN
p4617
F20.0
I1
tp4618
a(VNS1.BLACKDOORHOSTING
p4619
F100.0
I1
tp4620
a(VNS1.CLOUDCLIKS
p4621
F100.0
I1
tp4622
a(VNS3.FANTASTIC-HOST.NET
p4623
F50.0
I1
tp4624
a(VNS8298.HOSTGATOR
p4625
F12.5
I1
tp4626
a(VNS1.CUJUSVIS.RU
p4627
F100.0
I1
tp4628
a(VNS2.IBERSTATION
p4629
F25.0
I1
tp4630
a(VNS08.NIAGAHOSTER
p4631
F14.285714285714286
I1
tp4632
a(VNS2.RITSWEB
p4633
F100.0
I1
tp4634
a(VNS.VINCULOS.CL
p4635
F100.0
I1
tp4636
a(VRS130.REGISTRAR-SERVERS
p4637
F5.0
I1
tp4638
a(VNS3.GIGAHOST.DK
p4639
F16.666666666666668
I1
tp4640
a(VNS1.VERITEZ
p4641
F50.0
I1
tp4642
a(VDNS2.AGRINET.CH
p4643
F33.333333333333336
I1
tp4644
a(VNS3.DINAHOSTING
p4645
F25.0
I1
tp4646
a(VV1S2.XUNDNS
p4647
F0.17271157167530224
I1
tp4648
a(VNS1.US9.SITEGROUND.US
p4649
F0.7194244604316546
I1
tp4650
a(VDNS7.AAQA.CO
p4651
F100.0
I1
tp4652
a(VMIRA.NS.CLOUDFLARE
p4653
F33.333333333333336
I1
tp4654
a(VNS512.WEBSITEWELCOME
p4655
F25.0
I1
tp4656
a(VNS8073.HOSTGATOR
p4657
F50.0
I1
tp4658
a(VNS2-SHARDA.EWEBGURU
p4659
F33.333333333333336
I1
tp4660
a(VNS1-HOST.HOSTJINNI.NET
p4661
F50.0
I1
tp4662
a(VNS3.WEBSUPPORT.SK
p4663
F7.6923076923076925
I1
tp4664
a(VMNS01.DOMAINCONTROL
p4665
F5.882352941176471
I1
tp4666
a(VATDNS03.CITYNETWORK.SE
p4667
F6.666666666666667
I1
tp4668
a(VNS2.ALLINONETECH.NET
p4669
F100.0
I1
tp4670
a(VDNS1.MK-HOST3
p4671
F100.0
I1
tp4672
a(VNS1.BIGBRANDS-TR.COM.DIRECTIDELETEDDOMAIN
p4673
F4.545454545454546
I1
tp4674
a(VSK.S7.ANS1.NS58.KLCZY
p4675
F3.4482758620689653
I1
tp4676
a(VPARK.I-NOW
p4677
F1.5873015873015872
I1
tp4678
a(VNS2.BH-IN-12.WEBHOSTBOX.NET
p4679
F25.0
I1
tp4680
a(VNS2.SVENSKA-DOMANER.SE
p4681
F50.0
I1
tp4682
a(VNS1.MR08.MYCPANELCLOUD.CO.UK
p4683
F50.0
I1
tp4684
a(VNS2.TORREYCOMITOR
p4685
F100.0
I1
tp4686
a(VNS8380.HOSTGATOR
p4687
F25.0
I1
tp4688
a(VONESTAR.VENUS.ORDERBOX-DNS
p4689
F100.0
I1
tp4690
a(VNS1.OPTIMOSOLUTION
p4691
F50.0
I1
tp4692
a(VDNS1.GOINGTOTHERUNZZ.WS
p4693
F100.0
I1
tp4694
a(VNS781.WEBSITEWELCOME
p4695
F100.0
I1
tp4696
a(VCNS3.VIAOCEANICA.NET
p4697
F100.0
I1
tp4698
a(VNS8242.HOSTGATOR
p4699
F25.0
I1
tp4700
a(VNS4017.WEBSITEWELCOME
p4701
F33.333333333333336
I1
tp4702
a(VNS4.EDUARDOKRAUS.COM.BR
p4703
F100.0
I1
tp4704
a(VNS176.WEBSITEWELCOME
p4705
F100.0
I1
tp4706
a(VNS2.SUPERCLOUDAPPS
p4707
F50.0
I1
tp4708
a(VNS2.DOMAINMONSTER
p4709
F1.25
I1
tp4710
a(VNS2.COMICSOOT.IN
p4711
F100.0
I1
tp4712
a(VNS570.HOSTGATOR.COM.BR
p4713
F100.0
I1
tp4714
a(VNS2.ADMINVPS.RU
p4715
F100.0
I1
tp4716
a(VCPDNS2.EMIKRONDNS
p4717
F100.0
I1
tp4718
a(VNS3.NEWTONTREE
p4719
F100.0
I1
tp4720
a(VSUPERDOMINIOS.EARTH.ORDERBOX-DNS
p4721
F2.857142857142857
I1
tp4722
a(VNS1.ROUTESNROOTS
p4723
F100.0
I1
tp4724
a(VNS12.THNOC1
p4725
F100.0
I1
tp4726
a(VNS2.SYSTEMDNS
p4727
F0.06631299734748011
I1
tp4728
a(VNS1.MD-12.WEBHOSTBOX.NET
p4729
F100.0
I1
tp4730
a(VNS-1640.AWSDNS-13.CO.UK
p4731
F50.0
I1
tp4732
a(VNS2.PYPTEK
p4733
F100.0
I1
tp4734
a(VNS2.AVCDXB.COM.DIRECTIDELETEDDOMAIN
p4735
F5.0
I1
tp4736
a(VCP8.NETWORKDE
p4737
F100.0
I1
tp4738
a(VNS1.CYBEREXPERTZ
p4739
F100.0
I1
tp4740
a(VNS1.BANBIZ
p4741
F100.0
I1
tp4742
a(VNS2.SAFARICOMBUSINESS.CO.KE
p4743
F10.0
I1
tp4744
a(VSULT626456.EARTH.ORDERBOX-DNS
p4745
F100.0
I1
tp4746
a(VNS2.SITE4NOW.NET
p4747
F2.2222222222222223
I1
tp4748
a(VNS1.WEARECOLORFUL
p4749
F100.0
I1
tp4750
a(VNS1608.HOSTGATOR
p4751
F100.0
I1
tp4752
a(VNS496.WEBSITEWELCOME
p4753
F33.333333333333336
I1
tp4754
a(VNS4.BISNISMEDIA
p4755
F50.0
I1
tp4756
a(VNS2.VIBETRON.NET
p4757
F33.333333333333336
I1
tp4758
a(V1.NAMEDC
p4759
F6.25
I1
tp4760
a(VNS1.LOCUSWEBMARKETING
p4761
F100.0
I1
tp4762
a(VNS50.HOSTINGRAJA.IN
p4763
F6.25
I1
tp4764
a(VNS2.SIPANSERVER
p4765
F25.0
I1
tp4766
a(VCP4.W65.NET
p4767
F50.0
I1
tp4768
a(VNS2.DNSDUN.NET
p4769
F1.492537313432836
I1
tp4770
a(VNS511.WINHOSTINGSERVER
p4771
F16.666666666666668
I1
tp4772
a(VNS2.WEBKOLAY.NET
p4773
F100.0
I1
tp4774
a(VDORA.NS.CLOUDFLARE
p4775
F12.5
I1
tp4776
a(VNS2.GREETINGSEUROPASQQ
p4777
F100.0
I1
tp4778
a(VNS6.KASSERVER
p4779
F1.408450704225352
I1
tp4780
a(VNS3.INTERPLANET.COM.MX
p4781
F4.3478260869565215
I1
tp4782
a(VDNS2.GANGTHATGIRLFAST.WS
p4783
F100.0
I1
tp4784
a(VNS34.EHIWEB.IT
p4785
F100.0
I1
tp4786
a(VNS2.C3-MEDIA
p4787
F10.0
I1
tp4788
a(VNS2.TAKAHOST
p4789
F100.0
I1
tp4790
a(VNS2.US10.SITEGROUND.US
p4791
F0.8620689655172413
I1
tp4792
a(VNS3227.HOSTGATOR
p4793
F100.0
I1
tp4794
a(VNS2.TRNHOST
p4795
F100.0
I1
tp4796
a(VNS2.GR8HOSTINGS
p4797
F100.0
I1
tp4798
a(VNS1.DSERVER.IR
p4799
F100.0
I1
tp4800
a(VNS3.BRIDGEICON.NET
p4801
F100.0
I1
tp4802
a(VNS71.ALIBABAHOST
p4803
F100.0
I1
tp4804
a(VNS1.COFFEETIMEROMANCE
p4805
F50.0
I1
tp4806
a(VNS337.HOSTGATOR.COM.BR
p4807
F100.0
I1
tp4808
a(VNS126.EHOSTS
p4809
F100.0
I1
tp4810
a(VNS1.AWSHOSTING.COM.AU
p4811
F100.0
I1
tp4812
a(VNS2.BOOKANDHOST.NET
p4813
F100.0
I1
tp4814
a(VNS2.DNSHOSTINGWEB.NET
p4815
F100.0
I1
tp4816
a(VNS70.ANYSERVERS
p4817
F100.0
I1
tp4818
a(VNS1.BH-IN-12.WEBHOSTBOX.NET
p4819
F25.0
I1
tp4820
a(VNS538.WEBSITEWELCOME
p4821
F33.333333333333336
I1
tp4822
a(VNS4.ACCELERHOSTING
p4823
F100.0
I1
tp4824
a(VNS0.CORECOMMHOSTING
p4825
F100.0
I1
tp4826
a(VNS1.ENK.COM.BR
p4827
F100.0
I1
tp4828
a(VNS2.IPEOPLE.MY
p4829
F50.0
I1
tp4830
a(VNS102.777SERVERS
p4831
F20.0
I1
tp4832
a(VDNS1.WONDERHOST.EU
p4833
F100.0
I1
tp4834
a(VNS3.ISSESOLN.NET
p4835
F100.0
I1
tp4836
a(VNS591.WEBSITEWELCOME
p4837
F14.285714285714286
I1
tp4838
a(VNS1.PARKINGCREW
p4839
F100.0
I1
tp4840
a(VNS14.E-NS.NL
p4841
F100.0
I1
tp4842
a(VNS3.SECNSSERVER
p4843
F3.8461538461538463
I1
tp4844
a(VNS3.STREAMINGDOMINICANA.NET
p4845
F100.0
I1
tp4846
a(VNS14.SINOHOSTING.NET
p4847
F100.0
I1
tp4848
a(VNS1.SECURECYBER.IN
p4849
F50.0
I1
tp4850
a(VNS2.PROPERTYPROBE
p4851
F100.0
I1
tp4852
a(VNS1.CDMON.NET
p4853
F0.8849557522123894
I1
tp4854
a(VNS1.ISTANAHOSTING
p4855
F33.333333333333336
I1
tp4856
a(VNS1.SAKAOGULLARIGRUP
p4857
F11.11111111111111
I1
tp4858
a(VNS472.HOSTGATOR.COM.BR
p4859
F100.0
I1
tp4860
a(VNS1.EBNSERVER1
p4861
F100.0
I1
tp4862
a(VNS2.VENTUREBRANDED
p4863
F100.0
I1
tp4864
a(VNS3.WEBLINKTECHNOLOGIES.NET
p4865
F100.0
I1
tp4866
a(VNS78.DOMAINCONTROL
p4867
F6.25
I1
tp4868
a(VNS4.MAXDOMINIOS
p4869
F100.0
I1
tp4870
a(VNS2.JAHANSITE
p4871
F100.0
I1
tp4872
a(VNS3.ROCKHOSTER.BIZ
p4873
F100.0
I1
tp4874
a(VNS27.EHOSTNG.NET
p4875
F100.0
I1
tp4876
a(VDNS1.SMARTYDNS.COM.AU
p4877
F100.0
I1
tp4878
a(VNOVALID1.PARKTONS
p4879
F100.0
I1
tp4880
a(VDNS1.NGPROBD
p4881
F50.0
I1
tp4882
a(VNS20.QSERVERS.NET
p4883
F100.0
I1
tp4884
a(VNS2BTZ.NAME
p4885
F2.7027027027027026
I1
tp4886
a(VNS1.TECHTUNES.INFO
p4887
F50.0
I1
tp4888
a(VNS2.HOSTDOBRAZIL.COM.BR
p4889
F100.0
I1
tp4890
a(VNS4.QSERVERS.NET
p4891
F14.285714285714286
I1
tp4892
a(VNS1.NETAFZAR-PC.IR
p4893
F100.0
I1
tp4894
a(VNS1.JAHANSITE
p4895
F100.0
I1
tp4896
a(VNS8305.HOSTGATOR
p4897
F33.333333333333336
I1
tp4898
a(VNS6.WINWININFOWAY
p4899
F100.0
I1
tp4900
a(VNS2-LEADER.VIVAWEBHOST
p4901
F20.0
I1
tp4902
a(VNS1.BEHOST.ORG
p4903
F100.0
I1
tp4904
a(VIRIS.NS.CLOUDFLARE
p4905
F2.380952380952381
I1
tp4906
a(VNS137.SUPERHOSTING.BG
p4907
F8.333333333333334
I1
tp4908
a(VDNS1245-1.NEXCESS.NET
p4909
F100.0
I1
tp4910
a(VNS2.CARIBOUWEBHOSTING
p4911
F100.0
I1
tp4912
a(VNS2.SYRAHOST
p4913
F2.0408163265306123
I1
tp4914
a(VNS5.MONOVM
p4915
F50.0
I1
tp4916
a(VNS312.WEBSITEWELCOME
p4917
F20.0
I1
tp4918
a(VNS1.CYBERWURX
p4919
F33.333333333333336
I1
tp4920
a(VNS2.UZMANTESCIL
p4921
F12.5
I1
tp4922
a(VNS2.REDSTONEHOSTING.ORG
p4923
F100.0
I1
tp4924
a(VYICHUN.NS.CLOUDFLARE
p4925
F3.4482758620689653
I1
tp4926
a(VNS597.WEBSITEWELCOME
p4927
F50.0
I1
tp4928
a(VNS2.FOONEY
p4929
F50.0
I1
tp4930
a(VNS2.AOHEYLLC
p4931
F16.666666666666668
I1
tp4932
a(VNS4.SERVERXH.BIZ
p4933
F100.0
I1
tp4934
a(VNS3231.HOSTGATOR
p4935
F100.0
I1
tp4936
a(VNS2.XTRAORBIT
p4937
F50.0
I1
tp4938
a(VHANK.NS.CLOUDFLARE
p4939
F5.2631578947368425
I1
tp4940
a(VNS2263.HOSTGATOR
p4941
F100.0
I1
tp4942
a(VNS4.LINUXCENTRO.NET
p4943
F50.0
I1
tp4944
a(VJEREMY.NS.CLOUDFLARE
p4945
F20.0
I1
tp4946
a(VDNS1.INKAHOSTING.COM.PE
p4947
F50.0
I1
tp4948
a(VNS11.HOSTPRO2U
p4949
F100.0
I1
tp4950
a(VNS1081.TAMAINUT.NET
p4951
F0.8130081300813008
I1
tp4952
a(VNS1.PARSPLAN.IR
p4953
F100.0
I1
tp4954
a(VRAY.NS.CLOUDFLARE
p4955
F4.166666666666667
I1
tp4956
a(VNS1.LNHI.NET
p4957
F14.285714285714286
I1
tp4958
a(VNS2.HPIMEDIA.NET
p4959
F100.0
I1
tp4960
a(VNS2.NETAFZAR-PC.IR
p4961
F100.0
I1
tp4962
a(VNS1.WEBSUPPORT.SK
p4963
F7.6923076923076925
I1
tp4964
a(VNS139.HOSTING24
p4965
F3.3333333333333335
I1
tp4966
a(VNS1.WELCOMEHOST.COM.BR
p4967
F100.0
I1
tp4968
a(VALPHA.RECOL.NET
p4969
F100.0
I1
tp4970
a(VNS6031.HOSTGATOR
p4971
F50.0
I1
tp4972
a(VNS2.OYSTER.ARVIXE
p4973
F100.0
I1
tp4974
a(VNSUM1.EAZYSMART
p4975
F100.0
I1
tp4976
a(VNS11.AATECHDESIGN
p4977
F100.0
I1
tp4978
a(VNS103.FURSTLOOK
p4979
F100.0
I1
tp4980
a(VNS2.D-SITEHOSTING
p4981
F33.333333333333336
I1
tp4982
a(VNS2.CPANEL0178.HOSPEDAGEMDESITES.WS
p4983
F16.666666666666668
I1
tp4984
a(VNS04.GNGGROUP.CO.IN
p4985
F100.0
I1
tp4986
a(VNS8043.HOSTGATOR
p4987
F50.0
I1
tp4988
a(VNS2.AFRAID.ORG
p4989
F3.7037037037037037
I1
tp4990
a(VNS8.DOMAINMONGER
p4991
F7.142857142857143
I1
tp4992
a(VV1S1.XUNDNS
p4993
F0.17271157167530224
I1
tp4994
a(VIVAN.NS.CLOUDFLARE
p4995
F8.333333333333334
I1
tp4996
a(VDNS2.JAVANRAYAN
p4997
F100.0
I1
tp4998
a(VNS2.VERTISOFTPME
p4999
F100.0
I1
tp5000
a(VNS1.NORNAFLOW.PW
p5001
F25.0
I1
tp5002
a(VNS2.BUZINESS.NET
p5003
F100.0
I1
tp5004
a(VNS2.TOPHOSTINGSERVERS.BIZ
p5005
F100.0
I1
tp5006
a(VNS846.WEBSITEWELCOME
p5007
F100.0
I1
tp5008
a(VNS1.ADIANTS
p5009
F50.0
I1
tp5010
a(VNS3.WHOIS
p5011
F0.7874015748031497
I1
tp5012
a(VNS2.ITWARE.IN
p5013
F50.0
I1
tp5014
a(VNS1.SAFARICOMBUSINESS.CO.KE
p5015
F10.0
I1
tp5016
a(VNS16.PASARINTERNET
p5017
F100.0
I1
tp5018
a(VARYA.NS.CLOUDFLARE
p5019
F25.0
I1
tp5020
a(VNS1.GLOBAT
p5021
F8.333333333333334
I1
tp5022
a(VNS1.MUGLATASARIM
p5023
F6.666666666666667
I1
tp5024
a(VNS1.FOONEY
p5025
F50.0
I1
tp5026
a(VNS1.YANINKA
p5027
F100.0
I1
tp5028
a(VNS2.SITENHAZIR
p5029
F50.0
I1
tp5030
a(VNS2.BH-32.WEBHOSTBOX.NET
p5031
F33.333333333333336
I1
tp5032
a(VNS-CLOUD-D1.GOOGLEDOMAINS
p5033
F0.31545741324921134
I1
tp5034
a(VNS4.NOCDIRECT.IN
p5035
F100.0
I1
tp5036
a(VRUG1.BRAWAA
p5037
F100.0
I1
tp5038
a(VNS2.AVIARHOST.NET
p5039
F100.0
I1
tp5040
a(VNS1.WEBZONESERVER
p5041
F100.0
I1
tp5042
a(VNS2-JUPITER.EWEBGURU
p5043
F50.0
I1
tp5044
a(VNS2.MEDIALINTASCYBER
p5045
F50.0
I1
tp5046
a(VNS2.BH-66.WEBHOSTBOX.NET
p5047
F16.666666666666668
I1
tp5048
a(VCOBY.NS.CLOUDFLARE
p5049
F1.5625
I1
tp5050
a(VNS1.C17721.SGVPS.NET
p5051
F100.0
I1
tp5052
a(VNS1.CHEAPHOSTINDIA.INFO
p5053
F100.0
I1
tp5054
a(VNS2.GENHOST.IN
p5055
F25.0
I1
tp5056
a(VDNS2.OJSHOST.UNI5.NET
p5057
F100.0
I1
tp5058
a(VNS6387.HOSTGATOR
p5059
F100.0
I1
tp5060
a(VNS1.HOTSERVERS.NET
p5061
F100.0
I1
tp5062
a(VNS1.ASCIO
p5063
F16.666666666666668
I1
tp5064
a(VNS1.HOSTINGBLUES
p5065
F100.0
I1
tp5066
a(VNS3028.BANAHOSTING
p5067
F20.0
I1
tp5068
a(VNS2.TWINSSOFT
p5069
F33.333333333333336
I1
tp5070
a(VNS.PROHOST.KG
p5071
F100.0
I1
tp5072
a(VNS2.AGARIOGAMES
p5073
F100.0
I1
tp5074
a(VDNS1.50WEBS
p5075
F100.0
I1
tp5076
a(VNS1.PRIVATESITELABEL
p5077
F25.0
I1
tp5078
a(VN193.NS.YUNJIASU
p5079
F100.0
I1
tp5080
a(VNS3.NETVIRTUE.COM.AU
p5081
F12.5
I1
tp5082
a(VNS2.CONET.VN
p5083
F50.0
I1
tp5084
a(VNS3476.HOSTGATOR
p5085
F100.0
I1
tp5086
a(VC.DNSPOD
p5087
F0.2247191011235955
I1
tp5088
a(VNS1.SERBN.NET
p5089
F100.0
I1
tp5090
a(VFRODO.TISCALI.IT
p5091
F100.0
I1
tp5092
a(VNS2.HOSTPARKER
p5093
F50.0
I1
tp5094
a(VNS6157.HOSTGATOR
p5095
F100.0
I1
tp5096
a(VNS8.SERVERSBILISIM
p5097
F12.5
I1
tp5098
a(VNS4028.HOSTGATOR
p5099
F7.6923076923076925
I1
tp5100
a(VNS2.DREAMZONEDESIGN
p5101
F100.0
I1
tp5102
a(VNOVALID2.PARKTONS
p5103
F100.0
I1
tp5104
a(VNS1.IPSRWEBSERVICES
p5105
F100.0
I1
tp5106
a(VNS6119.HOSTGATOR
p5107
F50.0
I1
tp5108
a(VNS2.UMIYAJI
p5109
F25.0
I1
tp5110
a(VIPRO1.VENUS.ORDERBOX-DNS
p5111
F100.0
I1
tp5112
a(VNS35.NIAGAHOSTER
p5113
F20.0
I1
tp5114
a(VNS1.DELHIDIRECTORYONLINE
p5115
F100.0
I1
tp5116
a(VNS241.WEBSITEWELCOME
p5117
F100.0
I1
tp5118
a(VNS3.VEVIDA
p5119
F50.0
I1
tp5120
a(VNS1.GR8HOSTINGS
p5121
F100.0
I1
tp5122
a(VNS2.PNAP.NET
p5123
F100.0
I1
tp5124
a(VNS.AXSPACE
p5125
F100.0
I1
tp5126
a(VNS2.BP-HOSTING
p5127
F100.0
I1
tp5128
a(V15.SUCURIDNS
p5129
F100.0
I1
tp5130
a(VNS2.ESOLUTIONXPERT
p5131
F25.0
I1
tp5132
a(VNS2.CENTAURO-SAMPAHOSTING
p5133
F100.0
I1
tp5134
a(VNS598.WEBSITEWELCOME
p5135
F50.0
I1
tp5136
a(VNS33.NIAGAHOSTER
p5137
F0.9433962264150944
I1
tp5138
a(VNS2.CINEMAMASTHI
p5139
F100.0
I1
tp5140
a(VKAGA491021.MERCURY.ORDERBOX-DNS
p5141
F100.0
I1
tp5142
a(VNS2.HOSTBRAGA.COM.BR
p5143
F50.0
I1
tp5144
a(VNS2.TRIOXWEB.COM.BR
p5145
F100.0
I1
tp5146
a(VNS1.HOST94
p5147
F100.0
I1
tp5148
a(VNS6069.HOSTGATOR
p5149
F9.090909090909092
I1
tp5150
a(VNS10.NAVYHOST.NET
p5151
F100.0
I1
tp5152
a(VNS2.INDIAWEBHOME
p5153
F100.0
I1
tp5154
a(VLS1.GENXWHOSTING
p5155
F50.0
I1
tp5156
a(VNS2.THUMPER.CO.ZA
p5157
F50.0
I1
tp5158
a(VNS84.DNSAB.NET
p5159
F100.0
I1
tp5160
a(VNS1.TIMESARTISTS
p5161
F100.0
I1
tp5162
a(VNS2.HOMEAIDBARGAIN
p5163
F100.0
I1
tp5164
a(VNS8273.HOSTGATOR
p5165
F10.0
I1
tp5166
a(VNS2.OXIO.INFO
p5167
F100.0
I1
tp5168
a(VNS2.TECNODATA.INF.BR
p5169
F100.0
I1
tp5170
a(VNS1.YOUTHOUGHTS
p5171
F100.0
I1
tp5172
a(VNS2.MISERVIDOR.INFO
p5173
F33.333333333333336
I1
tp5174
a(VNS6282.HOSTGATOR
p5175
F100.0
I1
tp5176
a(VNS-1577.AWSDNS-05.CO.UK
p5177
F33.333333333333336
I1
tp5178
a(VNS53.VOSN.NET
p5179
F100.0
I1
tp5180
a(VNS1.SI-SHELL.NET
p5181
F100.0
I1
tp5182
a(VNS3.KEEPDOMAIN
p5183
F100.0
I1
tp5184
a(VNS1.STOCKBUSINESSNEWS
p5185
F100.0
I1
tp5186
a(VDNS2.NGPROBD
p5187
F50.0
I1
tp5188
a(VNSP1.REGISTRATIONTEK
p5189
F33.333333333333336
I1
tp5190
a(VNS102.EHOSTS
p5191
F50.0
I1
tp5192
a(VNS2.WWW7.SITE
p5193
F100.0
I1
tp5194
a(VNS8237.HOSTGATOR
p5195
F33.333333333333336
I1
tp5196
a(VNS1.FASTNEXT
p5197
F50.0
I1
tp5198
a(VNS240.WEBSITEWELCOME
p5199
F100.0
I1
tp5200
a(VNS-1001.AWSDNS-61.NET
p5201
F100.0
I1
tp5202
a(VNS1.TUNINFOFORYOU
p5203
F100.0
I1
tp5204
a(VNS2.HOTSERVERS.NET
p5205
F100.0
I1
tp5206
a(VNS-CLOUD-B2.GOOGLEDOMAINS
p5207
F0.15723270440251572
I1
tp5208
a(VMATT.NS.CLOUDFLARE
p5209
F4.761904761904762
I1
tp5210
a(VNS12.HOSTEXCELLENCE
p5211
F50.0
I1
tp5212
a(VCNS36.HOSTGATOR
p5213
F12.5
I1
tp5214
a(VSTRATO.DECAD.NET
p5215
F100.0
I1
tp5216
a(VELSA.NS.CLOUDFLARE
p5217
F6.666666666666667
I1
tp5218
a(VNS1.GETMEHOST
p5219
F50.0
I1
tp5220
a(VNS1.DSREDIRECTION
p5221
F2.4390243902439024
I1
tp5222
a(VNS1.SAFIRISI
p5223
F100.0
I1
tp5224
a(VNS1.NETVIRTUE.COM.AU
p5225
F7.6923076923076925
I1
tp5226
a(VNS56.INTER-SERVER.NET
p5227
F100.0
I1
tp5228
a(VNS8379.HOSTGATOR
p5229
F25.0
I1
tp5230
a(VNS1.IBETECHNOLOGY
p5231
F100.0
I1
tp5232
a(VSTVL113289.MARS.OBOX-DNS
p5233
F20.0
I1
tp5234
a(VNS6537.HOSTGATOR
p5235
F33.333333333333336
I1
tp5236
a(VNS3.IXAYA.NET
p5237
F100.0
I1
tp5238
a(VNS2.VOCENAWEB
p5239
F100.0
I1
tp5240
a(VNS8520.HOSTGATOR
p5241
F0.6756756756756757
I1
tp5242
a(VNS2.GIGAHOST.DK
p5243
F16.666666666666668
I1
tp5244
a(VNS1680.WEBSITEWELCOME
p5245
F25.0
I1
tp5246
a(VDNS2.ONAMAE
p5247
F0.10845986984815618
I1
tp5248
a(VNS01.000WEBHOST
p5249
F3.8461538461538463
I1
tp5250
a(VNS2.DUTYHOST.NET
p5251
F100.0
I1
tp5252
a(VNS2.INCREDIBLENEPAL.ORG
p5253
F100.0
I1
tp5254
a(VNS2.NS4FREEHOST
p5255
F3.8461538461538463
I1
tp5256
a(VNS6158.HOSTGATOR
p5257
F100.0
I1
tp5258
a(VSELL.INTERNETTRAFFIC
p5259
F0.0070756385763815184
I1
tp5260
a(VHOSTEASE.MARS.ORDERBOX-DNS
p5261
F50.0
I1
tp5262
a(VNS06.JPMORGANCHASE
p5263
F50.0
I1
tp5264
a(VNS1.KARNAVATI.IN
p5265
F100.0
I1
tp5266
a(VNS1.SITENHAZIR
p5267
F50.0
I1
tp5268
a(VNS1.DEDICADOSNET.COM.BR
p5269
F100.0
I1
tp5270
a(VNS495.WEBSITEWELCOME
p5271
F33.333333333333336
I1
tp5272
a(VNS1.WEHOST.COM.NG
p5273
F100.0
I1
tp5274
a(VNS1.EZDNSCENTER
p5275
F0.25252525252525254
I1
tp5276
a(VNS1.NS-SERVE.NET
p5277
F14.285714285714286
I1
tp5278
a(VDNS4.SECUREFASTSERVER
p5279
F50.0
I1
tp5280
a(VDONNA.NS.CLOUDFLARE
p5281
F14.285714285714286
I1
tp5282
a(VNS1.CP-13.WEBHOSTBOX.NET
p5283
F50.0
I1
tp5284
a(VDNS03.ITA.COM.GR
p5285
F10.0
I1
tp5286
a(VDNS2003A.TROUBLE-FREE.NET
p5287
F100.0
I1
tp5288
a(VNS5.SERVERBD.NET
p5289
F100.0
I1
tp5290
a(VNS285.EDNS1
p5291
F100.0
I1
tp5292
a(VNS1.THECLIENTHOST
p5293
F100.0
I1
tp5294
a(VCNS110.HOSTGATOR
p5295
F8.333333333333334
I1
tp5296
a(VNS1.KHUSAKI
p5297
F100.0
I1
tp5298
a(VNS29.ASPHOSTSERVER.NET
p5299
F50.0
I1
tp5300
a(VNS3.OSCARSIBON.ES
p5301
F16.666666666666668
I1
tp5302
a(VNS3.DOMAIN-RESOLUTION.NET
p5303
F9.090909090909092
I1
tp5304
a(VNS2.MD-12.WEBHOSTBOX.NET
p5305
F100.0
I1
tp5306
a(VNS2.LIVESKANSYS
p5307
F100.0
I1
tp5308
a(VNS13.TEPUYSERVER.NET
p5309
F100.0
I1
tp5310
a(VNS26.EHOSTNG.NET
p5311
F100.0
I1
tp5312
a(VDNS5.PARKPAGE.FOUNDATIONAPI
p5313
F1.3333333333333333
I1
tp5314
a(VNS12.MYNIC247
p5315
F100.0
I1
tp5316
a(VNS2.DOMAIN
p5317
F0.5154639175257731
I1
tp5318
a(VNS2.ASIATECH.IN
p5319
F100.0
I1
tp5320
a(VID2.DNSPROPAGATION
p5321
F50.0
I1
tp5322
a(VNS2335.HOSTGATOR
p5323
F100.0
I1
tp5324
a(VNS3.REDELIN.COM.BR
p5325
F50.0
I1
tp5326
a(VNS1.GLASSCODE.NET
p5327
F100.0
I1
tp5328
a(VDNS2.WORK-DNS.RU
p5329
F33.333333333333336
I1
tp5330
a(VBUDGET41.NOC401
p5331
F100.0
I1
tp5332
a(VDNS2.OLIMPIASAT.COM.BR
p5333
F100.0
I1
tp5334
a(VDNS3.BIRHOST.NET
p5335
F100.0
I1
tp5336
a(VNS6115.HOSTGATOR
p5337
F100.0
I1
tp5338
a(VPABLO.NS.CLOUDFLARE
p5339
F12.5
I1
tp5340
a(VNS12.WEBSOLSPK
p5341
F100.0
I1
tp5342
a(VNS.HOSTINGTOP.CL
p5343
F100.0
I1
tp5344
a(VNS2.AXS-FR.NET
p5345
F10.0
I1
tp5346
a(VNS2.ZOMRO
p5347
F100.0
I1
tp5348
a(VNS1.YOTTA-LABS.COM.NG
p5349
F50.0
I1
tp5350
a(VNS2.PYMEHOSTING.CL
p5351
F100.0
I1
tp5352
a(VNS5.HOSTPRIMERA
p5353
F100.0
I1
tp5354
a(VNS3.TRENTAHOST
p5355
F100.0
I1
tp5356
a(VBOB.NS.CLOUDFLARE
p5357
F6.25
I1
tp5358
a(VNS521.WEBSITEWELCOME
p5359
F33.333333333333336
I1
tp5360
a(VNS840.UMBLER.CO.UK
p5361
F14.285714285714286
I1
tp5362
a(VNS13.SINOHOSTING.NET
p5363
F100.0
I1
tp5364
a(VNS2.WEBADSGLOBAL
p5365
F100.0
I1
tp5366
a(VNS2.SAUDIHOST.NET
p5367
F100.0
I1
tp5368
a(VNS2.BRIDGEICON.NET
p5369
F100.0
I1
tp5370
a(VNS2.WEIGHTLOSSCOOL
p5371
F100.0
I1
tp5372
a(VCNS33.HOSTGATOR
p5373
F16.666666666666668
I1
tp5374
a(VNS18.NSHOSTSITE
p5375
F100.0
I1
tp5376
a(VNS2.SNGHOST.NET
p5377
F100.0
I1
tp5378
a(VTR2.FIBERDNS.NET
p5379
F25.0
I1
tp5380
a(VNS1.TWINSSOFT
p5381
F33.333333333333336
I1
tp5382
a(VNS4.HOSTADI
p5383
F100.0
I1
tp5384
a(VNS2.CP-13.WEBHOSTBOX.NET
p5385
F50.0
I1
tp5386
a(VNS202.ABSTRACTDNS
p5387
F100.0
I1
tp5388
a(VNS2.KITOBOYKA
p5389
F100.0
I1
tp5390
a(VNS3.LOBIHOSTING
p5391
F100.0
I1
tp5392
a(VNS02.SERVIUP
p5393
F100.0
I1
tp5394
a(VNS56.WORLDNIC
p5395
F3.8461538461538463
I1
tp5396
a(VNS1-JUPITER.EWEBGURU
p5397
F50.0
I1
tp5398
a(VSECURE1.WHOLESALEJAIPURKURTI
p5399
F100.0
I1
tp5400
a(VNS2.REGISTRANT-VERIFICATION
p5401
F0.5263157894736842
I1
tp5402
a(VNS3.HMSNS
p5403
F20.0
I1
tp5404
a(VNS2829.DIZINC
p5405
F50.0
I1
tp5406
a(VNS77.DOMAINCONTROL
p5407
F8.333333333333334
I1
tp5408
a(VNS1.NETJUMPS
p5409
F100.0
I1
tp5410
a(VNS1.5DSHOST
p5411
F50.0
I1
tp5412
a(VNS1-JUNIOR.VIVAWEBHOST
p5413
F100.0
I1
tp5414
a(VNS1.FORBESTHOSTING
p5415
F100.0
I1
tp5416
a(VNS6.S810.ORG
p5417
F100.0
I1
tp5418
a(VNS6008.HOSTGATOR
p5419
F16.666666666666668
I1
tp5420
a(VNS8155.HOSTGATOR
p5421
F12.5
I1
tp5422
a(VNS12.TOKOHOST
p5423
F100.0
I1
tp5424
a(VGAIL.NS.CLOUDFLARE
p5425
F9.090909090909092
I1
tp5426
a(VNS-1309.AWSDNS-35.ORG
p5427
F100.0
I1
tp5428
a(VNS4.INDOWEBDEVELOPER
p5429
F50.0
I1
tp5430
a(VUS.GLOBALWEBCRAFT
p5431
F50.0
I1
tp5432
a(VNS1.AUROINFO.NET
p5433
F100.0
I1
tp5434
a(VNS1.DIGIPALHOST
p5435
F100.0
I1
tp5436
a(VNS6433.HOSTGATOR
p5437
F100.0
I1
tp5438
a(VNS-190.AWSDNS-23
p5439
F10.0
I1
tp5440
a(VNS2.NETWORKNEWS
p5441
F100.0
I1
tp5442
a(VNS24.PRODNS.COM.BR
p5443
F100.0
I1
tp5444
a(VDNS1.SPARK.PARKING-PAGE.NET
p5445
F3.225806451612903
I1
tp5446
a(VNS2.MUAMIHOST
p5447
F100.0
I1
tp5448
a(VNS2.DIVIDER.MYSITEHOSTED
p5449
F25.0
I1
tp5450
a(VDNS01-TLD.T-ONLINE.DE
p5451
F20.0
I1
tp5452
a(VELMO.NS.CLOUDFLARE
p5453
F10.0
I1
tp5454
a(VNS3.MCWEBHOST
p5455
F100.0
I1
tp5456
a(VNEWT.NS.CLOUDFLARE
p5457
F7.142857142857143
I1
tp5458
a(VNS2.TRADEESOURCE
p5459
F100.0
I1
tp5460
a(VDNS7.PARKPAGE.FOUNDATIONAPI
p5461
F0.8771929824561403
I1
tp5462
a(VNS4.DNSHOSTINGWEB.NET
p5463
F100.0
I1
tp5464
a(VNS1.HUCURNLX.RU
p5465
F100.0
I1
tp5466
a(VDNS1.BIGROCK
p5467
F12.5
I1
tp5468
a(VNS2.YOURPRACTICEONLINE.COM.AU
p5469
F100.0
I1
tp5470
a(VSHADES15.RZONE.DE
p5471
F4.545454545454546
I1
tp5472
a(VNS1.49DH
p5473
F8.333333333333334
I1
tp5474
a(VNS2.KARNAVATI.IN
p5475
F100.0
I1
tp5476
a(VDNS3.REGISTEREDSITE
p5477
F5.555555555555555
I1
tp5478
a(VNS2.GRANDPAHOST
p5479
F100.0
I1
tp5480
a(VNS1.YOURHOST.CO
p5481
F11.11111111111111
I1
tp5482
a(VNS1.FOREX-ABOUT.INFO
p5483
F100.0
I1
tp5484
a(VDNS1.MAKDOOR
p5485
F100.0
I1
tp5486
a(VPARK2.HOSTING24
p5487
F3.0303030303030303
I1
tp5488
a(VNS2.JOLLYWORKSHOSTING
p5489
F100.0
I1
tp5490
a(VNS4.ROCKHOSTER.BIZ
p5491
F100.0
I1
tp5492
a(VNS2.ARTICNETWORKS.NET
p5493
F25.0
I1
tp5494
a(VNS1.WUGOBAZAAR
p5495
F100.0
I1
tp5496
a(VNS1.BANGLAEXPRESS.AE
p5497
F100.0
I1
tp5498
a(VNS1.SIPANSERVER
p5499
F25.0
I1
tp5500
a(VNS571.HOSTGATOR.COM.BR
p5501
F100.0
I1
tp5502
a(VNS2.MD-IN-10.WEBHOSTBOX.NET
p5503
F16.666666666666668
I1
tp5504
a(VDNS1.INTERDOMINIOS
p5505
F5.2631578947368425
I1
tp5506
a(VNS2.LAPTOPB4YOU
p5507
F100.0
I1
tp5508
a(VDNS3.123SYSTEMS.NET
p5509
F16.666666666666668
I1
tp5510
a(VNS2.IZMIRINTERNETTE
p5511
F7.6923076923076925
I1
tp5512
a(VNS1.YEKTAONLINE.IR
p5513
F100.0
I1
tp5514
a(VNS1.FINDSOLUTION.IN
p5515
F100.0
I1
tp5516
a(VCDNS2.HKDNS.CO.ZA
p5517
F50.0
I1
tp5518
a(VDNS2.SEHAROZZS
p5519
F100.0
I1
tp5520
a(VCORPORATE.VIP11.NOC40
p5521
F100.0
I1
tp5522
a(VNS2238.HOSTGATOR
p5523
F50.0
I1
tp5524
a(VNS1.MYSITEHOSTED
p5525
F14.285714285714286
I1
tp5526
a(VNS2.BESTSECUREMALL
p5527
F100.0
I1
tp5528
a(VNS37.ALIBABAHOST
p5529
F100.0
I1
tp5530
a(VNS3.GENTEQUEPENSA.NET.BR
p5531
F50.0
I1
tp5532
a(VWNS2.VINING.IN
p5533
F100.0
I1
tp5534
a(VONESTAR.EARTH.ORDERBOX-DNS
p5535
F100.0
I1
tp5536
a(VNS38.WORLDNIC
p5537
F4.0
I1
tp5538
a(VNS100.EWORLD.CO.IN
p5539
F100.0
I1
tp5540
a(VA.DNS.GANDI.NET
p5541
F0.8620689655172413
I1
tp5542
a(VIRIS.SADOMAIN
p5543
F100.0
I1
tp5544
a(VNS2.FALCON-HOSTING
p5545
F100.0
I1
tp5546
a(VGRAVITIHOSTING.MERCURY.ORDERBOX-DNS
p5547
F50.0
I1
tp5548
a(VNS2.UNIREGISTRY-DNS
p5549
F2.2222222222222223
I1
tp5550
a(VNS1.IX1000
p5551
F25.0
I1
tp5552
a(VNS17.NSHOSTSITE
p5553
F100.0
I1
tp5554
a(VNS1.SQUIRREL.ARVIXE
p5555
F50.0
I1
tp5556
a(VNS2.WESECUREHOST
p5557
F100.0
I1
tp5558
a(VNS2.IMOTIONSD1.COM.BR
p5559
F100.0
I1
tp5560
a(VDNS6.CLOUDNS.NET
p5561
F50.0
I1
tp5562
a(VNS1.NETORIONSOLUTIONS
p5563
F100.0
I1
tp5564
a(VNS1.CATCHSKY
p5565
F100.0
I1
tp5566
a(VNS398.WEBSITEWELCOME
p5567
F50.0
I1
tp5568
a(VNS1.CPANEL0169.HOSPEDAGEMDESITES.WS
p5569
F100.0
I1
tp5570
a(VNS2.FRIZE-DOVER.IN
p5571
F50.0
I1
tp5572
a(VNS2.GLOBALGUJARATI
p5573
F100.0
I1
tp5574
a(VNS3.UTIWARE.NET
p5575
F14.285714285714286
I1
tp5576
a(VKAGA491021.EARTH.ORDERBOX-DNS
p5577
F100.0
I1
tp5578
a(VNS1.DESIGNWAREHOUSE.IN
p5579
F100.0
I1
tp5580
a(VNSG2.NAMEBRIGHTDNS
p5581
F1.9607843137254901
I1
tp5582
a(VNS1.EXASERVERS
p5583
F33.333333333333336
I1
tp5584
a(VNS2.FRANQUICIAGUIA
p5585
F100.0
I1
tp5586
a(VNS1.POSTALIA.MX
p5587
F100.0
I1
tp5588
a(VNS2-R8-LONDON.WEBSERVERSYSTEMS
p5589
F100.0
I1
tp5590
a(VEDNS1.SUPREMEBOX
p5591
F3.7037037037037037
I1
tp5592
a(VNS181.ABSTRACTDNS
p5593
F100.0
I1
tp5594
a(VNS3.NARUKIN.RU
p5595
F100.0
I1
tp5596
a(VNS1.QLHVQYKP.RU
p5597
F100.0
I1
tp5598
a(VNS2.ENK.COM.BR
p5599
F100.0
I1
tp5600
a(VNS101.ABSTRACTDNS
p5601
F50.0
I1
tp5602
a(VHOST02.ATS-COM.NET
p5603
F100.0
I1
tp5604
a(VNS1.BP-HOSTING
p5605
F100.0
I1
tp5606
a(VNS2GTX.NAME
p5607
F5.2631578947368425
I1
tp5608
a(VNS2.GFDESIGNS.COM.BR
p5609
F100.0
I1
tp5610
a(VNS3.GYNETWEBHOSTING
p5611
F1.492537313432836
I1
tp5612
a(VNS1.IPOWER
p5613
F2.2222222222222223
I1
tp5614
a(VNS1.CLOUDVPS
p5615
F100.0
I1
tp5616
a(VNS1382.WEBSITEWELCOME
p5617
F50.0
I1
tp5618
a(VDNS01.GIGAS
p5619
F50.0
I1
tp5620
a(VNS3.123MEGAHOST
p5621
F50.0
I1
tp5622
a(VNS2.VEVIDA.NET
p5623
F50.0
I1
tp5624
a(VNS4.TIMEWEB.ORG
p5625
F7.6923076923076925
I1
tp5626
a(VNS2.LAYERONLINE
p5627
F100.0
I1
tp5628
a(VVIP1.ALIDNS
p5629
F2.3255813953488373
I1
tp5630
a(VNS2.EBNSERVER1
p5631
F100.0
I1
tp5632
a(VNS4KPX.NAME
p5633
F2.9411764705882355
I1
tp5634
a(VNS2.LINUX4.ARYANIC.ORG
p5635
F100.0
I1
tp5636
a(V1.DNS-V2
p5637
F3.8461538461538463
I1
tp5638
a(VLS2.GENXWHOSTING
p5639
F50.0
I1
tp5640
a(VNS2.WEBADMINISTRABLE.NET
p5641
F100.0
I1
tp5642
a(VNS15.PASARINTERNET
p5643
F100.0
I1
tp5644
a(VNS1.YOURPRACTICEONLINE.COM.AU
p5645
F100.0
I1
tp5646
a(VNS5.EZDNSCENTER
p5647
F0.2544529262086514
I1
tp5648
a(VNBWEB.MARS.ORDERBOX-DNS
p5649
F50.0
I1
tp5650
a(VNS18.WHOGOHOST
p5651
F100.0
I1
tp5652
a(VNS2.WASABISERVER
p5653
F100.0
I1
tp5654
a(VNS2.NIMSINT
p5655
F100.0
I1
tp5656
a(VNS3.PAIRNIC
p5657
F100.0
I1
tp5658
a(VNS1.WEB-HOSTING-BD
p5659
F50.0
I1
tp5660
a(VNS2.AFRASERVER
p5661
F50.0
I1
tp5662
a(VNS13.WEBSOLSPK
p5663
F100.0
I1
tp5664
a(VNS1.VIRTUANET.COM.BR
p5665
F100.0
I1
tp5666
a(VMLMLOGIX.MARS.ORDERBOX-DNS
p5667
F100.0
I1
tp5668
a(VNS-1595.AWSDNS-07.CO.UK
p5669
F25.0
I1
tp5670
a(VLIZ.NS.CLOUDFLARE
p5671
F9.090909090909092
I1
tp5672
a(VNS10.IRPOWERWEB
p5673
F50.0
I1
tp5674
a(VNS1.DATAPLUGS
p5675
F20.0
I1
tp5676
a(VNS2.BNMQ
p5677
F14.285714285714286
I1
tp5678
a(VNS2.CLEARCHOICE.BIZ
p5679
F100.0
I1
tp5680
a(VNS2.JCINTOPGUN.ORG
p5681
F50.0
I1
tp5682
a(VNS1.TUNCSERVER.NET
p5683
F100.0
I1
tp5684
a(VNS2.VIDAHOST
p5685
F6.25
I1
tp5686
a(VNS3.VIDACLOUD.CO.UK
p5687
F3.4482758620689653
I1
tp5688
a(VNS1.BYTEBULL
p5689
F100.0
I1
tp5690
a(VDPS2.NS365.NET
p5691
F1.4285714285714286
I1
tp5692
a(VDNS1.HOSTING.SBB.RS
p5693
F50.0
I1
tp5694
a(VNS2-R1-BUCHAREST.WEBSERVERSYSTEMS
p5695
F100.0
I1
tp5696
a(VDEW2.INDONESIATOURTRAVEL
p5697
F100.0
I1
tp5698
a(VNS1.SOLARTUBS
p5699
F100.0
I1
tp5700
a(VINA1.REGISTRAR.EU
p5701
F2.857142857142857
I1
tp5702
a(VNS1.INET.CO.TH
p5703
F100.0
I1
tp5704
a(VNS2.INFORMATIONSUPERSPECIALIST
p5705
F4.545454545454546
I1
tp5706
a(VNS246131.PHDNS9.ES
p5707
F100.0
I1
tp5708
a(VSDNS2.VHOSTING-IT
p5709
F16.666666666666668
I1
tp5710
a(VNS1.AMAZOHOST
p5711
F16.666666666666668
I1
tp5712
a(VINA2.REGISTRAR.EU
p5713
F2.857142857142857
I1
tp5714
a(VDESI.NS.CLOUDFLARE
p5715
F10.0
I1
tp5716
a(VDNS1.OLIMPIASAT.COM.BR
p5717
F100.0
I1
tp5718
a(VNS1642.ZTOMY
p5719
F2.7027027027027026
I1
tp5720
a(VNS2.OPTIMALSECURED
p5721
F100.0
I1
tp5722
a(VNS1.WEBADSGLOBAL
p5723
F100.0
I1
tp5724
a(VNS2.NETJUMPS
p5725
F100.0
I1
tp5726
a(VNS283.UMBLER.COM.BR
p5727
F14.285714285714286
I1
tp5728
a(VNS1340.WEBSITEWELCOME
p5729
F100.0
I1
tp5730
a(VNS2.DOMAINZGURU
p5731
F100.0
I1
tp5732
a(VNS1.MICROWEBSYS
p5733
F100.0
I1
tp5734
a(VNS133.EHOSTS
p5735
F4.166666666666667
I1
tp5736
a(VNS64.NAXZA
p5737
F100.0
I1
tp5738
a(VNS82.PRODNS.COM.BR
p5739
F100.0
I1
tp5740
a(VNS2.REALISTICSOFT.IN
p5741
F100.0
I1
tp5742
a(VNS54.VOSN.NET
p5743
F100.0
I1
tp5744
a(VNS2.AMAZOHOST
p5745
F16.666666666666668
I1
tp5746
a(VNS2.WEBSUPPORT.SK
p5747
F7.6923076923076925
I1
tp5748
a(VNS2.STOCKBUSINESSNEWS
p5749
F100.0
I1
tp5750
a(VNS1.SIGMAWEBSOLUTIONS
p5751
F100.0
I1
tp5752
a(VONESTAR.MERCURY.ORDERBOX-DNS
p5753
F100.0
I1
tp5754
a(VS4.DUMPACTION
p5755
F100.0
I1
tp5756
a(VHR2.ACQUAHOST.COM.BR
p5757
F100.0
I1
tp5758
a(VNS1.BH-IN-19.WEBHOSTBOX.NET
p5759
F14.285714285714286
I1
tp5760
a(VDEREK.NS.CLOUDFLARE
p5761
F12.5
I1
tp5762
a(VNS1.WHUTEABWAB.PW
p5763
F33.333333333333336
I1
tp5764
a(VNS1.THUMPER.CO.ZA
p5765
F50.0
I1
tp5766
a(VNS46.STABLESERVER.NET
p5767
F100.0
I1
tp5768
a(VSSD2.REALWEBSOLUTION.IN
p5769
F50.0
I1
tp5770
a(VDNS3.4CUN
p5771
F7.6923076923076925
I1
tp5772
a(VRITA.NS.CLOUDFLARE
p5773
F7.142857142857143
I1
tp5774
a(VTITAN1.COLOMBIAREDES.INFO
p5775
F50.0
I1
tp5776
a(VNS2.CEEONLINEHOST
p5777
F100.0
I1
tp5778
a(VNS5.THEWEBHOSTSERVER
p5779
F4.545454545454546
I1
tp5780
a(VNS15.WIXDNS.NET
p5781
F0.21929824561403508
I1
tp5782
a(VNS6481.HOSTGATOR
p5783
F20.0
I1
tp5784
a(VPLESK2.ITH.VHOSTING-IT
p5785
F100.0
I1
tp5786
a(VNS02.MEDIOSINTERACTIVOS.NET
p5787
F100.0
I1
tp5788
a(VNS2.BS2.COM.BR
p5789
F100.0
I1
tp5790
a(VNS2.VIPFIXSOCCER
p5791
F7.142857142857143
I1
tp5792
a(VNS2.TARSIER.MYSITEHOSTED
p5793
F100.0
I1
tp5794
a(VNS2.EBONYLIFETV
p5795
F20.0
I1
tp5796
a(VNS2.MAANIHOSTING
p5797
F100.0
I1
tp5798
a(VSDNS3.VHOSTING-IT
p5799
F16.666666666666668
I1
tp5800
a(VNS4.CLOUDMANOR
p5801
F100.0
I1
tp5802
a(VNS2.MATRIMONYSERVER
p5803
F100.0
I1
tp5804
a(VDNS.THYA.NET
p5805
F100.0
I1
tp5806
a(VNS1.SVRBIK
p5807
F7.6923076923076925
I1
tp5808
a(VNS1.HOMEAIDBARGAIN
p5809
F100.0
I1
tp5810
a(VNS1.CARIBOUWEBHOSTING
p5811
F100.0
I1
tp5812
a(VDNS20.PARKPAGE.FOUNDATIONAPI
p5813
F0.7633587786259542
I1
tp5814
a(VNS1.PLANETBLOGGED
p5815
F100.0
I1
tp5816
a(VNS2.SIMPLEXHOSTINGS
p5817
F100.0
I1
tp5818
a(VTR.DNSENABLE
p5819
F0.25125628140703515
I1
tp5820
a(VNS3.SERVERXH.BIZ
p5821
F100.0
I1
tp5822
a(VNS101.GLOBEHOST
p5823
F20.0
I1
tp5824
a(VNS02.000WEBHOST
p5825
F3.8461538461538463
I1
tp5826
a(VNS.DINAHOSTING
p5827
F25.0
I1
tp5828
a(VNS1.1UTC
p5829
F33.333333333333336
I1
tp5830
a(VNS140.HOSTING24
p5831
F3.3333333333333335
I1
tp5832
a(VNS1.LOADTRAILTRACKER
p5833
F50.0
I1
tp5834
a(VH10NS2.AXXESSLOCAL.CO.ZA
p5835
F100.0
I1
tp5836
a(VNS2.EASY-INTERNET.CO.UK
p5837
F33.333333333333336
I1
tp5838
a(VSUE.NS.CLOUDFLARE
p5839
F3.8461538461538463
I1
tp5840
a(VNS2-R10.NSWEBHOST
p5841
F100.0
I1
tp5842
a(VNS8204.HOSTGATOR
p5843
F33.333333333333336
I1
tp5844
a(VDNS19.PARKPAGE.FOUNDATIONAPI
p5845
F0.7633587786259542
I1
tp5846
a(VNS1.WVANYDEI
p5847
F100.0
I1
tp5848
a(V3.DNS-V2
p5849
F3.8461538461538463
I1
tp5850
a(VNS1.QUICKTECH-EG
p5851
F100.0
I1
tp5852
a(VNS2.WOOWEX
p5853
F100.0
I1
tp5854
a(VNS11.TOKOHOST
p5855
F100.0
I1
tp5856
a(VNS6.APPVZ
p5857
F100.0
I1
tp5858
a(VNS1.ACEMEDIA.NET
p5859
F100.0
I1
tp5860
a(VNS209.WEBSITEWELCOME
p5861
F33.333333333333336
I1
tp5862
a(VNS1.DEFENSIVESERVERS.XYZ
p5863
F100.0
I1
tp5864
a(VNS2.RAHYABTELECOM
p5865
F100.0
I1
tp5866
a(VNS2.UNIREGISTRY-DNS.NET
p5867
F2.2222222222222223
I1
tp5868
a(VNS2.WISHRAT
p5869
F100.0
I1
tp5870
a(VCPANEL3.VENDORHOSTING.NET
p5871
F100.0
I1
tp5872
a(VGEKO.GRADISKA
p5873
F100.0
I1
tp5874
a(VNS2.ARMDATA.IR
p5875
F100.0
I1
tp5876
a(VNS2.DHRUBOHOST
p5877
F100.0
I1
tp5878
a(VNS2.PLANETBLOGGED
p5879
F100.0
I1
tp5880
a(VNS1.360WZB
p5881
F1.2048192771084338
I1
tp5882
a(VNS1.FCMBONLINENIG.TOP
p5883
F50.0
I1
tp5884
a(VNS2.FIREFLYDESIGN.US
p5885
F100.0
I1
tp5886
a(VSK.S7.ANS1.NS86.KLCZY
p5887
F2.0
I1
tp5888
a(VNS1.UNIREGISTRY-DNS
p5889
F2.0833333333333335
I1
tp5890
a(VDNS02-TLD.T-ONLINE.DE
p5891
F20.0
I1
tp5892
a(VNS8.BLAZINHOSTING.ORG
p5893
F100.0
I1
tp5894
a(VNS2.WORK-SPACE.NET
p5895
F100.0
I1
tp5896
a(VNS2.IXAYA.NET
p5897
F100.0
I1
tp5898
a(VNS1.COOLHOSTAFRICA
p5899
F100.0
I1
tp5900
a(VNS2.O2SWITCH.NET
p5901
F9.090909090909092
I1
tp5902
a(VNS2.HOSTINGER.COM.BR
p5903
F3.4482758620689653
I1
tp5904
a(VNS2.MAOJMASTI
p5905
F100.0
I1
tp5906
a(VNS1.GLOBALACCESSISP
p5907
F100.0
I1
tp5908
a(VNS2.INTERATIVEAD.COM.BR
p5909
F100.0
I1
tp5910
a(VNS132.MIHANWEBHOST
p5911
F100.0
I1
tp5912
a(VNS2.USM7.SITEGROUND.BIZ
p5913
F14.285714285714286
I1
tp5914
a(VNS1.AOHEYLLC
p5915
F16.666666666666668
I1
tp5916
a(VNS1.007NAMES.NET
p5917
F6.25
I1
tp5918
a(VNS3.BLAZINHOSTING.ORG
p5919
F100.0
I1
tp5920
a(VNS24.EHOSTNG.NET
p5921
F100.0
I1
tp5922
a(VNS1.RESOLVE-PAYMENT
p5923
F100.0
I1
tp5924
a(VNS0.PHASE8.NET
p5925
F0.7751937984496124
I1
tp5926
a(VNS1.ELIAWEB.NET
p5927
F50.0
I1
tp5928
a(VNS2.DIVULGACOMERCIO.COM.BR
p5929
F100.0
I1
tp5930
a(VNS1.IWAAY.NET
p5931
F33.333333333333336
I1
tp5932
a(VNS1.HOSTINGER.MX
p5933
F5.2631578947368425
I1
tp5934
a(VNS1.LIVESKANSYS
p5935
F100.0
I1
tp5936
a(VGNS14.HOSTGATOR.IN
p5937
F100.0
I1
tp5938
a(VNS1.ALLHOSTINGSOLUTIONS
p5939
F25.0
I1
tp5940
a(VNS1.HUERBAKLI.PW
p5941
F25.0
I1
tp5942
a(VNS2.KARNAVATI.CO.IN
p5943
F9.090909090909092
I1
tp5944
a(VNS1.RASKSOFT
p5945
F100.0
I1
tp5946
a(VNS2.AM27.SITEGROUND.BIZ
p5947
F100.0
I1
tp5948
a(VNS2.EMMGRAFIX
p5949
F50.0
I1
tp5950
a(VNS2823.HOSTGATOR
p5951
F100.0
I1
tp5952
a(VNS2.BISNISMEDIA
p5953
F50.0
I1
tp5954
a(VNS1.CP-IN-11.WEBHOSTBOX.NET
p5955
F6.25
I1
tp5956
a(VNS1.IT-NEPAL
p5957
F33.333333333333336
I1
tp5958
a(VNS1.JCINTOPGUN.ORG
p5959
F50.0
I1
tp5960
a(VNS7.SAUDIHOST.NET
p5961
F33.333333333333336
I1
tp5962
a(VNS1.WORLDSECURESYSTEMS
p5963
F6.666666666666667
I1
tp5964
a(VNS-240.AWSDNS-30
p5965
F33.333333333333336
I1
tp5966
a(VDNS2.ZZLDDXJDOOZ
p5967
F100.0
I1
tp5968
a(VRL6.RADOREHOSTING
p5969
F12.5
I1
tp5970
a(VNS2.SITEGROUND194
p5971
F100.0
I1
tp5972
a(VKURT.NS.CLOUDFLARE
p5973
F8.333333333333334
I1
tp5974
a(VNS2.YESDADDY.IN
p5975
F100.0
I1
tp5976
a(VNS1339.WEBSITEWELCOME
p5977
F100.0
I1
tp5978
a(VNS1.ABOVE
p5979
F0.11325028312570781
I1
tp5980
a(VNS2.AUROINFO.NET
p5981
F100.0
I1
tp5982
a(VNS1.HITSBD
p5983
F50.0
I1
tp5984
a(VNS171.GLOBEHOST
p5985
F2.9411764705882355
I1
tp5986
a(VNS01.DOMAINCONTROL
p5987
F7.142857142857143
I1
tp5988
a(VDNS11.SERVIDORESDNS.NET
p5989
F4.545454545454546
I1
tp5990
a(VNS101.WHBDNS
p5991
F4.545454545454546
I1
tp5992
a(V11.SUCURIDNS
p5993
F33.333333333333336
I1
tp5994
a(VNS2705.HOSTGATOR
p5995
F50.0
I1
tp5996
a(VATDNS01.CITYNETWORK.SE
p5997
F6.25
I1
tp5998
a(VNS1.CRAYON.MYSITEHOSTED
p5999
F50.0
I1
tp6000
a(VNS7.DOMAINMONGER
p6001
F7.142857142857143
I1
tp6002
a(VNS10.WORLDNIC
p6003
F3.8461538461538463
I1
tp6004
a(VLILA.NS.CLOUDFLARE
p6005
F7.142857142857143
I1
tp6006
a(VLEE.NS.CLOUDFLARE
p6007
F7.6923076923076925
I1
tp6008
a(VNS1.SKYNYXSERVER
p6009
F100.0
I1
tp6010
a(VRL4.RADOREHOSTING
p6011
F100.0
I1
tp6012
a(VNS1.HOSTMEONSERVER.INFO
p6013
F100.0
I1
tp6014
a(VNS1.HMSNS
p6015
F25.0
I1
tp6016
a(VNS1.DARDID
p6017
F100.0
I1
tp6018
a(VNS2.HOSTING-SERVICES.NET.AU
p6019
F50.0
I1
tp6020
a(VNS1.DRAGONPARKING
p6021
F1.4492753623188406
I1
tp6022
a(VNS2.HOSTINGSUPER
p6023
F50.0
I1
tp6024
a(VNS2.MYLHNS.NET
p6025
F7.6923076923076925
I1
tp6026
a(VNS3.MIZBANFA.NET
p6027
F50.0
I1
tp6028
a(VTIM.NS.CLOUDFLARE
p6029
F3.7037037037037037
I1
tp6030
a(VNS1.COASTALVINEYARDS
p6031
F100.0
I1
tp6032
a(VNS2.NAMECITY
p6033
F4.166666666666667
I1
tp6034
a(VRUG2.BRAWAA
p6035
F100.0
I1
tp6036
a(VSSD1.REALWEBSOLUTION.IN
p6037
F20.0
I1
tp6038
a(VCHAN.NS.CLOUDFLARE
p6039
F9.090909090909092
I1
tp6040
a(VNS3.DOMAINMONSTER
p6041
F1.25
I1
tp6042
a(VNS1.VOCENAWEB
p6043
F100.0
I1
tp6044
a(VSALE266643.MARS.ORDERBOX-DNS
p6045
F100.0
I1
tp6046
a(VLNS9.CHROMEIS
p6047
F100.0
I1
tp6048
a(VNS2.GLOBAT
p6049
F8.333333333333334
I1
tp6050
a(VNS1.GILGAHOST
p6051
F100.0
I1
tp6052
a(VNS1.HOSTMONSTA
p6053
F100.0
I1
tp6054
a(VNS1.HSSC.KR
p6055
F100.0
I1
tp6056
a(VNS8519.HOSTGATOR
p6057
F0.6756756756756757
I1
tp6058
a(VCHLOE.NS.CLOUDFLARE
p6059
F6.25
I1
tp6060
a(VNS1.VERITECH.NET
p6061
F100.0
I1
tp6062
a(VNS6016.HOSTGATOR
p6063
F33.333333333333336
I1
tp6064
a(VNS696.HOSTGATOR.COM.BR
p6065
F6.666666666666667
I1
tp6066
a(VNS1.TYCHE.CO.TH
p6067
F100.0
I1
tp6068
a(VNS12.BLUESPOT.IN
p6069
F100.0
I1
tp6070
a(VNS2.NS-SERVE.NET
p6071
F14.285714285714286
I1
tp6072
a(VNS3.ASCIO
p6073
F16.666666666666668
I1
tp6074
a(VNS1.UZMANTESCIL
p6075
F12.5
I1
tp6076
a(VPARK2.LIVEDNS.CO.IL
p6077
F8.333333333333334
I1
tp6078
a(VNS1.HOSTINPK
p6079
F100.0
I1
tp6080
a(VNS1.OBINNAKELS
p6081
F100.0
I1
tp6082
a(VNS1.SOOOOZ
p6083
F100.0
I1
tp6084
a(VNS.MYHOSTING
p6085
F7.6923076923076925
I1
tp6086
a(VNS1.NOCSU
p6087
F50.0
I1
tp6088
a(VBRENDA.NS.CLOUDFLARE
p6089
F12.5
I1
tp6090
a(VKAKTUS.GRADISKA
p6091
F100.0
I1
tp6092
a(VNS1.US10.SITEGROUND.US
p6093
F0.8620689655172413
I1
tp6094
a(VNS2.YOTTA-LABS.COM.NG
p6095
F50.0
I1
tp6096
a(VEDNS2.SUPREMEBOX
p6097
F3.7037037037037037
I1
tp6098
a(VNS2.QUICKTECH-EG
p6099
F100.0
I1
tp6100
a(VNS8349.HOSTGATOR
p6101
F20.0
I1
tp6102
a(VNS203.NICECDN
p6103
F100.0
I1
tp6104
a(VNS36.NIAGAHOSTER
p6105
F20.0
I1
tp6106
a(VNS8.E-XTREMETECH.NET
p6107
F100.0
I1
tp6108
a(VNS2.GOWNS4RENT
p6109
F100.0
I1
tp6110
a(VNS2.EXASERVERS
p6111
F33.333333333333336
I1
tp6112
a(VNS4.BEETWEB.NET
p6113
F100.0
I1
tp6114
a(VAIGLECOM.DECAD.NET
p6115
F100.0
I1
tp6116
a(VGLEN.NS.CLOUDFLARE
p6117
F7.142857142857143
I1
tp6118
a(VNS1.DNSMATRIX.NET
p6119
F50.0
I1
tp6120
a(VNS1.FIRSTVDS.RU
p6121
F11.11111111111111
I1
tp6122
a(VNS16.INDSERVERS.CO.IN
p6123
F50.0
I1
tp6124
a(VNS1.WHOIS
p6125
F0.8064516129032258
I1
tp6126
a(VNS2.IWAAY.NET
p6127
F33.333333333333336
I1
tp6128
a(VNS1.YILDIZLIDEVLETHASTANELERI
p6129
F6.666666666666667
I1
tp6130
a(VNS89.WORLDNIC
p6131
F8.333333333333334
I1
tp6132
a(VNS1.VM207.FCOMET
p6133
F50.0
I1
tp6134
a(VNS1385.WEBSITEWELCOME
p6135
F100.0
I1
tp6136
a(VNS2.ASCIO
p6137
F16.666666666666668
I1
tp6138
a(VNS58.WEBSITEWELCOME
p6139
F100.0
I1
tp6140
a(VNS1.LOVINGDOMAINS
p6141
F100.0
I1
tp6142
a(VNS3.DNSHOSTSERVER.IN
p6143
F100.0
I1
tp6144
a(VNS1.CYBEXHOSTING
p6145
F100.0
I1
tp6146
a(VNS2.CATCHSKY
p6147
F100.0
I1
tp6148
a(VNSA.BOOKMYNAME
p6149
F5.0
I1
tp6150
a(VEU.GUZELHOSTING
p6151
F33.333333333333336
I1
tp6152
a(VDAVE.NS.CLOUDFLARE
p6153
F25.0
I1
tp6154
a(VNS2.THECOLORMOON
p6155
F100.0
I1
tp6156
a(VNS2.REDELIN.COM.BR
p6157
F50.0
I1
tp6158
a(VNSP4.REGISTRATIONTEK
p6159
F33.333333333333336
I1
tp6160
a(VNS2.WEBZONESERVER
p6161
F100.0
I1
tp6162
a(VNS1.FRIZE-DOVER.IN
p6163
F50.0
I1
tp6164
a(VNS1.JEANSOWGHTQQ
p6165
F100.0
I1
tp6166
a(VNS2.HOSPITALNEST
p6167
F100.0
I1
tp6168
a(VNS1.CHARVIASSOCIATES
p6169
F33.333333333333336
I1
tp6170
a(VDNS.PVTWEBS
p6171
F33.333333333333336
I1
tp6172
a(VTORI.NS.CLOUDFLARE
p6173
F12.5
I1
tp6174
a(VNS2.YANINKA
p6175
F100.0
I1
tp6176
a(VDNS2.FUCKEDMIKE
p6177
F50.0
I1
tp6178
a(VNS1.PUFFIN.ARVIXE
p6179
F50.0
I1
tp6180
a(VNS2.ENDLESSWEBHOST
p6181
F100.0
I1
tp6182
a(VNS8157.HOSTGATOR
p6183
F50.0
I1
tp6184
a(VNS2.XSERVER.JP
p6185
F0.3021148036253776
I1
tp6186
a(VNS2.CPANEL0169.HOSPEDAGEMDESITES.WS
p6187
F100.0
I1
tp6188
a(VNS3.QSERVERS.NET
p6189
F14.285714285714286
I1
tp6190
a(VNS2.HOSTMEONSERVER.INFO
p6191
F100.0
I1
tp6192
a(VNS2.C028JP2616.INFO
p6193
F33.333333333333336
I1
tp6194
a(VNS1.SOURCEVOYANCE
p6195
F100.0
I1
tp6196
a(VNS1.TMDHOSTING118
p6197
F33.333333333333336
I1
tp6198
a(VNS2.ISACCONE
p6199
F50.0
I1
tp6200
a(VNS4.OSCARSIBON.ES
p6201
F16.666666666666668
I1
tp6202
a(VTHOMAS.NS.CLOUDFLARE
p6203
F16.666666666666668
I1
tp6204
a(VNS2.MERACSYNERGY
p6205
F100.0
I1
tp6206
a(VNS2.RTECHNOSERVICES
p6207
F100.0
I1
tp6208
a(V34751.MERCURY.ORDERBOX-DNS
p6209
F100.0
I1
tp6210
a(VNS2.HOST94
p6211
F100.0
I1
tp6212
a(VNS1.CNOWHOSTING
p6213
F100.0
I1
tp6214
a(VNS2.CLOUDLINUX-HOSTING
p6215
F100.0
I1
tp6216
a(VCPDNS1.EMIKRONDNS
p6217
F100.0
I1
tp6218
a(VNS2.1UTC
p6219
F33.333333333333336
I1
tp6220
a(VNS2.DNCHOSTING
p6221
F4.3478260869565215
I1
tp6222
a(VDNS1.GUTENTAGMENLIEBE.WS
p6223
F100.0
I1
tp6224
a(VNS6388.HOSTGATOR
p6225
F100.0
I1
tp6226
a(VNS2.ARDETAMEDIA
p6227
F14.285714285714286
I1
tp6228
a(VIPRO1.EARTH.ORDERBOX-DNS
p6229
F100.0
I1
tp6230
a(VDNS12.SERVIDORESDNS.NET
p6231
F4.545454545454546
I1
tp6232
a(VDNS1.SECUREFASTSERVER
p6233
F50.0
I1
tp6234
a(VNS3.CLOUDMANOR
p6235
F100.0
I1
tp6236
a(VDNS1.ZZLDDXJDOOZ
p6237
F100.0
I1
tp6238
a(VNS8.PAINELSITE
p6239
F100.0
I1
tp6240
a(VNS2-INTREPID.IWEBSOUL
p6241
F50.0
I1
tp6242
a(VNS2.CRAZYWEBDUDE
p6243
F100.0
I1
tp6244
a(VNS2.CITYEYEZ
p6245
F100.0
I1
tp6246
a(VNS8386.HOSTGATOR
p6247
F25.0
I1
tp6248
a(VNS0.DNSMADEEASY
p6249
F1.2048192771084338
I1
tp6250
a(VNS1.GETACHEAPHOST
p6251
F50.0
I1
tp6252
a(VNS2.NSHUN89QVGXA
p6253
F100.0
I1
tp6254
a(VNS3.SINGAPOREHOST.SG
p6255
F33.333333333333336
I1
tp6256
a(VONESTAR.MARS.ORDERBOX-DNS
p6257
F100.0
I1
tp6258
a(VNS1.WRSTREAMINGHOST.COM.BR
p6259
F100.0
I1
tp6260
a(VNS1.INFORMATIONSUPERSPECIALIST
p6261
F4.545454545454546
I1
tp6262
a(VNS2.YEKTAONLINE.IR
p6263
F100.0
I1
tp6264
a(VNS1.TARSIER.MYSITEHOSTED
p6265
F100.0
I1
tp6266
a(VNS2.GETMEHOST
p6267
F50.0
I1
tp6268
a(VNS2.MACAW.HOST1PLUS
p6269
F100.0
I1
tp6270
a(VNS2.VPWEB
p6271
F0.36231884057971014
I1
tp6272
a(VNS2.WRSTREAMINGHOST.COM.BR
p6273
F100.0
I1
tp6274
a(VNS1.P18.DYNECT.NET
p6275
F5.0
I1
tp6276
a(VDNS2.TROUBLE-FREE.NET
p6277
F7.6923076923076925
I1
tp6278
a(VPRO1.PHILMOREHOST.NET
p6279
F100.0
I1
tp6280
a(VNS2.ARABWAN
p6281
F100.0
I1
tp6282
a(VNS1.LINUX4.ARYANIC.ORG
p6283
F100.0
I1
tp6284
a(VNS2.HOSTRAYATECH
p6285
F100.0
I1
tp6286
a(VNS1607.HOSTGATOR
p6287
F100.0
I1
tp6288
a(VNS6032.HOSTGATOR
p6289
F50.0
I1
tp6290
a(VNS05.JPMORGANCHASE
p6291
F50.0
I1
tp6292
a(VNS2.ULTRAHOST.US
p6293
F50.0
I1
tp6294
a(VNS1.WEBSITEDEVELOPER.COM.MY
p6295
F50.0
I1
tp6296
a(VNS1.DIVULGACOMERCIO.COM.BR
p6297
F100.0
I1
tp6298
a(VNS1.MYWORLDDNS
p6299
F20.0
I1
tp6300
a(VJOHN.NS.CLOUDFLARE
p6301
F6.25
I1
tp6302
a(VNS2.AAAHOST
p6303
F100.0
I1
tp6304
a(VDNS3.SMARTYDNS.COM.AU
p6305
F100.0
I1
tp6306
a(VNS1.SEARCHINGFORTHESOUND
p6307
F100.0
I1
tp6308
a(VNS325.FLOATHOSTING1
p6309
F0.5154639175257731
I1
tp6310
a(VNS101.EWORLD.CO.IN
p6311
F100.0
I1
tp6312
a(VNS136.PRODNS.COM.BR
p6313
F100.0
I1
tp6314
a(VNS238.WEBSITEWELCOME
p6315
F14.285714285714286
I1
tp6316
a(VKAI.NS.CLOUDFLARE
p6317
F8.333333333333334
I1
tp6318
a(VNS162254252203.A2DNS
p6319
F25.0
I1
tp6320
a(VNS6120.HOSTGATOR
p6321
F50.0
I1
tp6322
a(VNS1.WEIGHTLOSSCOOL
p6323
F100.0
I1
tp6324
a(VJEAN.NS.CLOUDFLARE
p6325
F2.380952380952381
I1
tp6326
a(VNS2.LOVINGDOMAINS
p6327
F100.0
I1
tp6328
a(VNS2.HAJHOST
p6329
F100.0
I1
tp6330
a(VNS-1500.AWSDNS-59.ORG
p6331
F25.0
I1
tp6332
a(VNS1.ADSCRIBEINDIA
p6333
F100.0
I1
tp6334
a(VNS1.NETSEG.NET
p6335
F100.0
I1
tp6336
a(VNS1.MD-IN-10.WEBHOSTBOX.NET
p6337
F16.666666666666668
I1
tp6338
a(VYAON632460.MERCURY.ORDERBOX-DNS
p6339
F100.0
I1
tp6340
a(VNS2.NETVIRTUE.COM.AU
p6341
F7.6923076923076925
I1
tp6342
a(VJOCELYN.NS.CLOUDFLARE
p6343
F5.882352941176471
I1
tp6344
a(VNS1.I9SOLUCOESDIGITAIS.COM.BR
p6345
F100.0
I1
tp6346
a(VNS-1886.AWSDNS-43.CO.UK
p6347
F10.0
I1
tp6348
a(VNS8124.HOSTGATOR
p6349
F33.333333333333336
I1
tp6350
a(VNS2.NETAFZARPC
p6351
F20.0
I1
tp6352
a(VNS1.GUZELHOSTING
p6353
F3.3333333333333335
I1
tp6354
a(VNS324.FLOATHOSTING1
p6355
F0.5154639175257731
I1
tp6356
a(VSTVL113289.EARTH.OBOX-DNS
p6357
F20.0
I1
tp6358
a(VNS2.AAMRANETWORKS
p6359
F100.0
I1
tp6360
a(VNS2.WUGOBAZAAR
p6361
F100.0
I1
tp6362
a(VNS1.JEANSOWGHBQQ
p6363
F100.0
I1
tp6364
a(VNS2.OXITO
p6365
F20.0
I1
tp6366
a(VNS2.P18.DYNECT.NET
p6367
F5.0
I1
tp6368
a(VNS2.BEIRUTIN
p6369
F100.0
I1
tp6370
a(VDNS1.MAYBENOTLENOVO.WS
p6371
F100.0
I1
tp6372
a(VNS1.POSER-CHEKA.IN
p6373
F100.0
I1
tp6374
a(VNS2.NOPESOCOMSAUDE.COM.BR
p6375
F100.0
I1
tp6376
a(VNS2.WEB-HOSTING-BD
p6377
F50.0
I1
tp6378
a(VN1.JUMING
p6379
F0.16260162601626016
I1
tp6380
a(VNS285.FOXTEKNOLOJI
p6381
F33.333333333333336
I1
tp6382
a(VNS6281.HOSTGATOR
p6383
F100.0
I1
tp6384
a(VDNS1.UJAJAJGOGO.WS
p6385
F100.0
I1
tp6386
a(VNS6.NIXCONTROLPANEL
p6387
F50.0
I1
tp6388
a(VNS1.DEVGRAFIZONE.BIZ
p6389
F100.0
I1
tp6390
a(VNS1.SAMETULUTURK.NET
p6391
F100.0
I1
tp6392
a(VNS2.YOMHOST
p6393
F100.0
I1
tp6394
a(VNS3.888DNS.NET
p6395
F0.3546099290780142
I1
tp6396
a(VNS4.CUJUSVIS.RU
p6397
F100.0
I1
tp6398
a(VDNS2.VBHOSTNET
p6399
F33.333333333333336
I1
tp6400
a(VNS17.SUPERDNSSITE
p6401
F50.0
I1
tp6402
a(VNS1.IXAYA.NET
p6403
F100.0
I1
tp6404
a(VNS91.WEBSITEWELCOME
p6405
F33.333333333333336
I1
tp6406
a(VNS11.DOVESERVER
p6407
F6.666666666666667
I1
tp6408
a(VNS1.ARMDATA.IR
p6409
F100.0
I1
tp6410
a(VNS2.ADRIANOWEBMASTER.COM.BR
p6411
F100.0
I1
tp6412
a(VNS2.TECHNOBD.INFO
p6413
F100.0
I1
tp6414
a(VNS1131.WEBSITESERVERNAME
p6415
F33.333333333333336
I1
tp6416
a(VNS2.IFASTNET12.ORG
p6417
F100.0
I1
tp6418
a(VNS1.OYSTER.ARVIXE
p6419
F100.0
I1
tp6420
a(VNS7.DNS-21
p6421
F100.0
I1
tp6422
a(VNS4.SPACEHOST.IN
p6423
F100.0
I1
tp6424
a(VNS8268.HOSTGATOR
p6425
F33.333333333333336
I1
tp6426
a(VNS1.HOSTPARKER
p6427
F50.0
I1
tp6428
a(VNS2.VM165.FCOMET
p6429
F100.0
I1
tp6430
a(VNS10.HOSTPRO2U
p6431
F100.0
I1
tp6432
a(VNS21611914262.A2DNS
p6433
F100.0
I1
tp6434
a(VDNS1.FUCKEDMIKE
p6435
F50.0
I1
tp6436
a(VNS2.CLOUDVPS
p6437
F100.0
I1
tp6438
a(VNS1.CBWEBSPACE
p6439
F12.5
I1
tp6440
a(VNS1.BIGCOMMERCE
p6441
F2.127659574468085
I1
tp6442
a(VDNS1.PAPAKI.GR
p6443
F6.25
I1
tp6444
a(VNS2.BH-IN-14.WEBHOSTBOX.NET
p6445
F20.0
I1
tp6446
a(VNS1.UNIREGISTRY-DNS.NET
p6447
F2.0833333333333335
I1
tp6448
a(VNS2420.HOSTGATOR
p6449
F100.0
I1
tp6450
a(VNS11.GUZELHOSTING
p6451
F4.3478260869565215
I1
tp6452
a(VNS1.SITESDEPOT
p6453
F25.0
I1
tp6454
a(VNS12.CRYSTALREGISTRY
p6455
F20.0
I1
tp6456
a(VNS2.SATELLITESERVERS.NET
p6457
F100.0
I1
tp6458
a(VNS1.DHRUBOHOST
p6459
F100.0
I1
tp6460
a(VNS6181.HOSTGATOR
p6461
F33.333333333333336
I1
tp6462
a(VNS2.BIGBRANDS-TR.COM.DIRECTIDELETEDDOMAIN
p6463
F4.545454545454546
I1
tp6464
a(VNS2.HOSTON.BIZ
p6465
F100.0
I1
tp6466
a(VNS3NRZ.NAME
p6467
F1.492537313432836
I1
tp6468
a(VLAURA.NS.CLOUDFLARE
p6469
F5.555555555555555
I1
tp6470
a(VNSUM2.EAZYSMART
p6471
F100.0
I1
tp6472
a(VNS2.NI.NET.TR
p6473
F14.285714285714286
I1
tp6474
a(VNS2.INKARED.NET
p6475
F33.333333333333336
I1
tp6476
a(VNS1341.WEBSITEWELCOME
p6477
F50.0
I1
tp6478
a(VRED1.DIRECTWEB.INFO
p6479
F100.0
I1
tp6480
a(VNS1.TRIOXWEB.COM.BR
p6481
F100.0
I1
tp6482
a(VNS4.UMIYAJI
p6483
F25.0
I1
tp6484
a(VNS39.WHOGOHOST
p6485
F50.0
I1
tp6486
a(VNS2.WIREDTREE
p6487
F5.0
I1
tp6488
a(VNS3.3BROTHERSIT
p6489
F100.0
I1
tp6490
a(VNS10.WEBOFFICESERVER.INFO
p6491
F3.3333333333333335
I1
tp6492
a(VNS1.GENIUSHOST.IN
p6493
F100.0
I1
tp6494
a(VNS2.8SSI
p6495
F14.285714285714286
I1
tp6496
a(VNS1.ASIATECH.IN
p6497
F100.0
I1
tp6498
a(VNS2.FLICKHOSTING.BIZ
p6499
F100.0
I1
tp6500
a(VNS8156.HOSTGATOR
p6501
F12.5
I1
tp6502
a(VRS30.REGISTRAR-SERVERS
p6503
F5.0
I1
tp6504
a(VNS11.NETAFROOZ
p6505
F100.0
I1
tp6506
a(VNS3.DEWAWEB
p6507
F3.8461538461538463
I1
tp6508
a(VNS8441.HOSTGATOR
p6509
F25.0
I1
tp6510
a(VNS1.SERVERS800
p6511
F33.333333333333336
I1
tp6512
a(VNS1.NIXCONTROLPANEL
p6513
F50.0
I1
tp6514
a(VNS369.WEBSITEWELCOME
p6515
F100.0
I1
tp6516
a(VNS1.LAYERONLINE
p6517
F100.0
I1
tp6518
a(VNS1.MULTIHOST.XYZ
p6519
F100.0
I1
tp6520
a(VNS2.SGP9.SITEGROUND.ASIA
p6521
F16.666666666666668
I1
tp6522
a(VNS1.SISTEMASIGNOSMEDIA
p6523
F7.6923076923076925
I1
tp6524
a(VNS70.ALIBABAHOST
p6525
F100.0
I1
tp6526
a(VNS104.FURSTLOOK
p6527
F100.0
I1
tp6528
a(VNS2.IBNTECH
p6529
F100.0
I1
tp6530
a(VNS1.FLORIDAVANRENTALS.US
p6531
F0.5050505050505051
I1
tp6532
a(VNS0.ALLHOSTINGSOLUTIONS
p6533
F25.0
I1
tp6534
a(VEU.GLOBALWEBCRAFT
p6535
F50.0
I1
tp6536
a(VNS2.SERBN.NET
p6537
F100.0
I1
tp6538
a(VNS4015.HOSTGATOR
p6539
F20.0
I1
tp6540
a(VNS2.PUREDESIGNSMEDIA
p6541
F25.0
I1
tp6542
a(VBS12.HOSTWINDSDNS
p6543
F25.0
I1
tp6544
a(VCPANEL4.VENDORHOSTING.NET
p6545
F100.0
I1
tp6546
a(VNS8227.HOSTGATOR
p6547
F14.285714285714286
I1
tp6548
a(VNS4.ELSERVER
p6549
F7.6923076923076925
I1
tp6550
a(VNS15.INDSERVERS.CO.IN
p6551
F50.0
I1
tp6552
a(VSWAM150299.VENUS.ORDERBOX-DNS
p6553
F100.0
I1
tp6554
a(VNS2.MARIJANASUBOTIC
p6555
F100.0
I1
tp6556
a(VNS1.CORECOMMHOSTING
p6557
F100.0
I1
tp6558
a(VNS1.REDELIN.COM.BR
p6559
F50.0
I1
tp6560
a(VNS41.DOMAINCONTROL
p6561
F20.0
I1
tp6562
a(VNS3.JINFO.NET
p6563
F25.0
I1
tp6564
a(VNS1.SITESMICROMART
p6565
F100.0
I1
tp6566
a(VNS2.SAFIRISI
p6567
F100.0
I1
tp6568
a(VNS4013.HOSTGATOR
p6569
F4.0
I1
tp6570
a(VNS2.EASYHOSTGHANA
p6571
F50.0
I1
tp6572
a(VPRO2.PHILMOREHOST.NET
p6573
F100.0
I1
tp6574
a(VNS2264.HOSTGATOR
p6575
F100.0
I1
tp6576
a(VNS2.JAYHOSTING
p6577
F25.0
I1
tp6578
a(VNS1.NSRAID
p6579
F33.333333333333336
I1
tp6580
a(VNS4.FANTASTIC-HOST.NET
p6581
F50.0
I1
tp6582
a(VNS.SOMEE
p6583
F50.0
I1
tp6584
a(VNS4.GYNETWEBHOSTING
p6585
F1.492537313432836
I1
tp6586
a(VNS16225425555.A2DNS
p6587
F100.0
I1
tp6588
a(VNS233.WEBSITEWELCOME
p6589
F3.8461538461538463
I1
tp6590
a(VNS2419.HOSTGATOR
p6591
F100.0
I1
tp6592
a(VNS2.E-HOSTING.COM.VE
p6593
F9.090909090909092
I1
tp6594
a(VNS621.HOSTGATOR.COM.BR
p6595
F100.0
I1
tp6596
a(VNS3.NERION
p6597
F100.0
I1
tp6598
a(VNS1.PYMEHOSTING.CL
p6599
F100.0
I1
tp6600
a(VNS1.CTF.BLUE
p6601
F14.285714285714286
I1
tp6602
a(VNS2.TUNINFOFORYOU
p6603
F100.0
I1
tp6604
a(VNS1.ISNPK
p6605
F50.0
I1
tp6606
a(VNS4.MAXETICARET
p6607
F33.333333333333336
I1
tp6608
a(VNS19.QSERVERS.NET
p6609
F100.0
I1
tp6610
a(VNS2.GOOYAWEB
p6611
F50.0
I1
tp6612
a(VNS-1429.AWSDNS-50.ORG
p6613
F50.0
I1
tp6614
a(VNS1.CODE-IST
p6615
F7.142857142857143
I1
tp6616
a(VSK.S7.ANS2.NS58.KLCZY
p6617
F3.4482758620689653
I1
tp6618
a(VNS1.YESDADDY.IN
p6619
F100.0
I1
tp6620
a(VNS4.ISSESOLN.NET
p6621
F100.0
I1
tp6622
a(VNS2.CYBERNETHOST.INFO
p6623
F100.0
I1
tp6624
a(VNS1.OFFSHORERACKS
p6625
F16.666666666666668
I1
tp6626
a(VNS636.HOSTGATOR.COM.BR
p6627
F14.285714285714286
I1
tp6628
a(VNS2.LINEADNS
p6629
F20.0
I1
tp6630
a(VNS1.TATAR28
p6631
F100.0
I1
tp6632
a(VNS6482.HOSTGATOR
p6633
F20.0
I1
tp6634
a(VNS1.PRISMHOSTING.NET
p6635
F100.0
I1
tp6636
a(VNS2.HOSTMONSTA
p6637
F100.0
I1
tp6638
a(VNS2.USAREMOTE
p6639
F4.545454545454546
I1
tp6640
a(VNS13.WIXDNS.NET
p6641
F0.30864197530864196
I1
tp6642
a(VNS1.SINSPAM
p6643
F50.0
I1
tp6644
a(VNS1.FRANQUICIAGUIA
p6645
F100.0
I1
tp6646
a(VNS1.REDEYES.IN
p6647
F100.0
I1
tp6648
a(VNS.MANAGEDNAMESERVER
p6649
F11.11111111111111
I1
tp6650
a(VNS553.WEBSITEWELCOME
p6651
F50.0
I1
tp6652
a(VNS1.INETSUR33
p6653
F4.545454545454546
I1
tp6654
a(VNS01.GNGGROUP.CO.IN
p6655
F100.0
I1
tp6656
a(VNS4.NEWTONTREE
p6657
F100.0
I1
tp6658
a(VNS2.HOSTINGER.MX
p6659
F5.2631578947368425
I1
tp6660
a(VNS1.ENDLESSWEBHOST
p6661
F100.0
I1
tp6662
a(VNS2.CUSFXDEQ
p6663
F100.0
I1
tp6664
a(VNS2.MD-24.WEBHOSTBOX.NET
p6665
F33.333333333333336
I1
tp6666
a(VDNS7.RIGHTDNS
p6667
F50.0
I1
tp6668
a(VNS2.POSTALIA.MX
p6669
F100.0
I1
tp6670
a(VNS845.WEBSITEWELCOME
p6671
F100.0
I1
tp6672
a(VNS2.THEREISSOMEGOODQQ
p6673
F100.0
I1
tp6674
a(VNS1.M68.SITEGROUND.BIZ
p6675
F33.333333333333336
I1
tp6676
a(VNS3.TMDHOSTING118
p6677
F33.333333333333336
I1
tp6678
a(VNS1.AREAIT.LV
p6679
F50.0
I1
tp6680
a(VNS1.GENTEQUEPENSA.NET.BR
p6681
F50.0
I1
tp6682
a(VNS2.MAKSUCO
p6683
F100.0
I1
tp6684
a(VNS3.SIMPLY-SEO.CO.IL
p6685
F100.0
I1
tp6686
a(VNS22.HOSTCATS
p6687
F7.6923076923076925
I1
tp6688
a(VDNS1.CLOUDNS.NET
p6689
F50.0
I1
tp6690
a(VNS1.DNCHOSTING
p6691
F4.3478260869565215
I1
tp6692
a(VNS1.888DNS.NET
p6693
F0.35335689045936397
I1
tp6694
a(VNS-1071.AWSDNS-05.ORG
p6695
F8.333333333333334
I1
tp6696
a(VNS1.HOSTSERV.CO.ZA
p6697
F33.333333333333336
I1
tp6698
a(VNS1.BRIDGEICON.NET
p6699
F100.0
I1
tp6700
a(VNS1.HOSTINGER.COM.BR
p6701
F3.4482758620689653
I1
tp6702
a(VNS2.NETVOYNE
p6703
F100.0
I1
tp6704
a(VCUSTOMER.BUYDOMAINS
p6705
F10.0
I1
tp6706
a(VNS1.PIXELFLOAT.NET
p6707
F100.0
I1
tp6708
a(VNS2.PTWEBSERV.NET
p6709
F50.0
I1
tp6710
a(VNS1.SEANICWEBSITES
p6711
F100.0
I1
tp6712
a(VNS2.US12.SITEGROUND.US
p6713
F1.7857142857142858
I1
tp6714
a(VSTVL113289.MERCURY.OBOX-DNS
p6715
F20.0
I1
tp6716
a(VNS1.HPIMEDIA.NET
p6717
F100.0
I1
tp6718
a(VNS2.SOURCEVOYANCE
p6719
F100.0
I1
tp6720
a(VDNS2.IMRSL
p6721
F100.0
I1
tp6722
a(VNS2.ZPACBQGC.RU
p6723
F100.0
I1
tp6724
a(VDNS2003B.TROUBLE-FREE.NET
p6725
F100.0
I1
tp6726
a(VNS307.FASTWEBHOST
p6727
F100.0
I1
tp6728
a(VNS1386.WEBSITEWELCOME
p6729
F100.0
I1
tp6730
a(VNS1.TECNODATA.INF.BR
p6731
F100.0
I1
tp6732
a(VNS2.GRIMAX.COM.TR
p6733
F100.0
I1
tp6734
a(VNS2.ABEGHOST
p6735
F50.0
I1
tp6736
a(VNS-165.AWSDNS-20
p6737
F33.333333333333336
I1
tp6738
a(VNS307.WEBSITEWELCOME
p6739
F50.0
I1
tp6740
a(VNS1.INFIUMHOST
p6741
F100.0
I1
tp6742
a(VCDNS1.HKDNS.CO.ZA
p6743
F50.0
I1
tp6744
a(VNS1.PHASE8.NET
p6745
F0.7751937984496124
I1
tp6746
a(VNS2.MEGASIST
p6747
F50.0
I1
tp6748
a(VNS2.CODE-IST
p6749
F7.142857142857143
I1
tp6750
a(VCHRISTINA.NEOSTRADA.NL
p6751
F4.545454545454546
I1
tp6752
a(VNS1.VM165.FCOMET
p6753
F100.0
I1
tp6754
a(VNS1022.WEBSITEWELCOME
p6755
F16.666666666666668
I1
tp6756
a(VNS1.GOOYAWEB
p6757
F50.0
I1
tp6758
a(VNS3.CDMON.NET
p6759
F0.9900990099009901
I1
tp6760
a(VNS2.ETIME.BH
p6761
F100.0
I1
tp6762
a(VNS2.YOURAIDSERVICES
p6763
F100.0
I1
tp6764
a(VNS1.PINOYWEBSITE.NET
p6765
F50.0
I1
tp6766
a(VNS2.VIRTUANET.COM.BR
p6767
F100.0
I1
tp6768
a(VNS1.DNSFUN.PW
p6769
F11.11111111111111
I1
tp6770
a(VNS03.GNGGROUP.CO.IN
p6771
F100.0
I1
tp6772
a(VNS4.HOTSERVERS.NET
p6773
F100.0
I1
tp6774
a(VDAN.NS.CLOUDFLARE
p6775
F6.666666666666667
I1
tp6776
a(VNS1-ASTRA82.LEVEL-CLOUD
p6777
F20.0
I1
tp6778
a(VNS2.SIGMAWEBSOLUTIONS
p6779
F100.0
I1
tp6780
a(VNS2.WHDMS
p6781
F25.0
I1
tp6782
a(VNS1.SOLUSHOST.COM.BR
p6783
F100.0
I1
tp6784
a(VZOD.NS.CLOUDFLARE
p6785
F25.0
I1
tp6786
a(VNS4.123MEGAHOST
p6787
F50.0
I1
tp6788
a(VNS2.TYCHE.CO.TH
p6789
F100.0
I1
tp6790
a(VTEGAN.NS.CLOUDFLARE
p6791
F3.0303030303030303
I1
tp6792
a(VNS8.JOMHOSTING.NET
p6793
F100.0
I1
tp6794
a(VNS1.CARLOSP.COM.BR
p6795
F100.0
I1
tp6796
a(VSALE266643.EARTH.ORDERBOX-DNS
p6797
F100.0
I1
tp6798
a(VNS1.MDDNS.BIZ
p6799
F100.0
I1
tp6800
a(VNS.DESIGNSC.IT
p6801
F20.0
I1
tp6802
a(VGRAVITIHOSTING.EARTH.ORDERBOX-DNS
p6803
F50.0
I1
tp6804
a(VNS2.GUERILLAWEB.INFO
p6805
F14.285714285714286
I1
tp6806
a(VNS1.PIXELDESIGNLTD.NET
p6807
F100.0
I1
tp6808
a(VSHADES20.RZONE.DE
p6809
F7.142857142857143
I1
tp6810
a(VNS32.NIAGAHOSTER
p6811
F1.492537313432836
I1
tp6812
a(VNS13.BLUESPOT.IN
p6813
F100.0
I1
tp6814
a(VNS1.OTHERLAP
p6815
F100.0
I1
tp6816
a(VNS1.NETAFZARPC
p6817
F20.0
I1
tp6818
a(VNS4.YOURHOST.CO
p6819
F11.11111111111111
I1
tp6820
a(VNS6.OFFSHOREHOSTING.SPACE
p6821
F50.0
I1
tp6822
a(VSNS39.WIN.HOSTGATOR
p6823
F33.333333333333336
I1
tp6824
a(VNS3.IBETECHNOLOGY
p6825
F100.0
I1
tp6826
a(VNS1.2FREEHOSTING
p6827
F16.666666666666668
I1
tp6828
a(VNS2.SOLUSHOST.COM.BR
p6829
F100.0
I1
tp6830
a(VDNS4.BIGROCK
p6831
F12.5
I1
tp6832
a(VNS4.KEEPDOMAIN
p6833
F100.0
I1
tp6834
a(VNS1.CRIATIVAHOSPEDAGEM.COM.BR
p6835
F100.0
I1
tp6836
a(VNS4.SIMPLY-SEO.CO.IL
p6837
F100.0
I1
tp6838
a(VS3.DUMPACTION
p6839
F100.0
I1
tp6840
a(VNS142.EHOSTS
p6841
F1.2048192771084338
I1
tp6842
a(VNS1.VALA-BLEU.NET
p6843
F50.0
I1
tp6844
a(VNS4.BRIDGEICON.NET
p6845
F100.0
I1
tp6846
a(VDNS8.PARKPAGE.FOUNDATIONAPI
p6847
F0.8771929824561403
I1
tp6848
a(VDNS3.SECUREFASTSERVER
p6849
F50.0
I1
tp6850
a(VNS1.DSNTOURS
p6851
F100.0
I1
tp6852
a(VNS100.WHBDNS
p6853
F4.545454545454546
I1
tp6854
a(VNS2.WEBSITEDEVELOPER.COM.MY
p6855
F50.0
I1
tp6856
a(VNS4.HOSTINGER.MX
p6857
F5.555555555555555
I1
tp6858
a(VNS2-JUNIOR.VIVAWEBHOST
p6859
F100.0
I1
tp6860
a(VNS40.WHOGOHOST
p6861
F50.0
I1
tp6862
a(VCNS35.HOSTGATOR
p6863
F12.5
I1
tp6864
a(VNS1.MEGASIST
p6865
F50.0
I1
tp6866
a(VNS1.BLAZINHOSTING.ORG
p6867
F50.0
I1
tp6868
a(VNS4.TURKISHOST
p6869
F100.0
I1
tp6870
a(VSWAM150299.MARS.ORDERBOX-DNS
p6871
F100.0
I1
tp6872
a(VTHIS-DOMAIN-FOR-SALE
p6873
F0.13020833333333334
I1
tp6874
a(VNS1.NS4FREEHOST
p6875
F3.8461538461538463
I1
tp6876
a(VNS1.INKARED.NET
p6877
F33.333333333333336
I1
tp6878
a(VNS9.NAVYHOST.NET
p6879
F100.0
I1
tp6880
a(VNS2.MURESOURCES.NET
p6881
F100.0
I1
tp6882
a(VNS1580.HOSTGATOR
p6883
F100.0
I1
tp6884
a(VNS1.DNSHOSTSERVER.IN
p6885
F50.0
I1
tp6886
a(VDNS1.ARCHANGELSYSTEMS
p6887
F100.0
I1
tp6888
a(VNS2.ESKIZ.NET
p6889
F100.0
I1
tp6890
a(VEU.NS.X2N.COM.BR
p6891
F20.0
I1
tp6892
a(VNS2.FLAMEWEBHOSTING
p6893
F100.0
I1
tp6894
a(VNS31.WORLDNIC
p6895
F4.166666666666667
I1
tp6896
a(VNS2.COCOAESTUDIO.MX
p6897
F100.0
I1
tp6898
a(VNS2-R2-MONTREAL.SITESHOSTEDHERE
p6899
F100.0
I1
tp6900
a(VNS6224.HOSTGATOR
p6901
F10.0
I1
tp6902
a(VNS592.WEBSITEWELCOME
p6903
F14.285714285714286
I1
tp6904
a(VNS1.GUERILLAWEB.INFO
p6905
F14.285714285714286
I1
tp6906
a(VGRAVITIHOSTING.MARS.ORDERBOX-DNS
p6907
F50.0
I1
tp6908
a(VNS2.SWINE.ARVIXE
p6909
F100.0
I1
tp6910
a(VNS2.HAVANAY
p6911
F33.333333333333336
I1
tp6912
a(VNS1.SGP22.SITEGROUND.ASIA
p6913
F50.0
I1
tp6914
a(VNS1.SITEGROUND342
p6915
F1.5151515151515151
I1
tp6916
a(VNS4034.HOSTGATOR
p6917
F4.0
I1
tp6918
a(VNS6223.HOSTGATOR
p6919
F10.0
I1
tp6920
a(VNS3.TOPDNS.ME
p6921
F50.0
I1
tp6922
a(VNS482.ISTANBULHOST
p6923
F100.0
I1
tp6924
a(VNS1.HOSTON.BIZ
p6925
F100.0
I1
tp6926
a(VSAVALIYA.VENUS.ORDERBOX-DNS
p6927
F100.0
I1
tp6928
a(VNS25.PRODNS.COM.BR
p6929
F100.0
I1
tp6930
a(VNS1.DREAMZONEDESIGN
p6931
F100.0
I1
tp6932
a(VNS1.ADSCA
p6933
F100.0
I1
tp6934
a(VNS1132.WEBSITESERVERNAME
p6935
F33.333333333333336
I1
tp6936
a(VNS4201.BANAHOSTING
p6937
F50.0
I1
tp6938
a(VNS63.NAXZA
p6939
F100.0
I1
tp6940
a(VDNS1.OJSHOST.UNI5.NET
p6941
F100.0
I1
tp6942
a(VNS2.VIRLIF
p6943
F100.0
I1
tp6944
a(VNS1.VMX12171.RAPIDDNS.NET.AU
p6945
F100.0
I1
tp6946
a(VNS71.ANYSERVERS
p6947
F100.0
I1
tp6948
a(VNS1387.WEBSITEWELCOME
p6949
F100.0
I1
tp6950
a(VNS1.SVENSKA-DOMANER.SE
p6951
F50.0
I1
tp6952
a(VNS1.ALTURAWEB
p6953
F100.0
I1
tp6954
a(VNS1.NERION
p6955
F100.0
I1
tp6956
a(VNS1.TIMDNS
p6957
F100.0
I1
tp6958
a(VDNS18.OVH.NET
p6959
F0.5154639175257731
I1
tp6960
a(VNS1.TECHNOBD.INFO
p6961
F100.0
I1
tp6962
a(VNS2.DINAHOSTING
p6963
F33.333333333333336
I1
tp6964
a(VGNS13.HOSTGATOR.IN
p6965
F100.0
I1
tp6966
a(VNS2.SPECIALSAROUNDTOWN.NET
p6967
F100.0
I1
tp6968
a(VNS6048.HOSTGATOR
p6969
F50.0
I1
tp6970
a(VNS11.SEO-DNS
p6971
F5.555555555555555
I1
tp6972
a(VNS2.DNS23.HU
p6973
F100.0
I1
tp6974
a(VNS1.GFDESIGNS.COM.BR
p6975
F100.0
I1
tp6976
a(VNS1.WEBWORLD360
p6977
F100.0
I1
tp6978
a(VNS2.SI-SHELL.NET
p6979
F100.0
I1
tp6980
a(VNS2.PURVAINFOSYSTEMS.INFO
p6981
F100.0
I1
tp6982
a(VNS2.DEVARSHPATEL
p6983
F100.0
I1
tp6984
a(VNS1.SERVIDORLINUX7
p6985
F100.0
I1
tp6986
a(VNS10.HOSTMAR
p6987
F20.0
I1
tp6988
a(VNS2.BH-50.WEBHOSTBOX.NET
p6989
F50.0
I1
tp6990
a(VNS1.INMOTIONHOSTING
p6991
F2.4390243902439024
I1
tp6992
a(VNS4.DOMAIN-RESOLUTION.NET
p6993
F9.090909090909092
I1
tp6994
a(VNS2.DIVINOHOST
p6995
F100.0
I1
tp6996
a(VNS2.SWITCHCHOICE.NET
p6997
F100.0
I1
tp6998
a(VNS1CMT.NAME
p6999
F1.5151515151515151
I1
tp7000
a(VNS2.CEMPOLAT
p7001
F50.0
I1
tp7002
a(VNS2.99CLASSI
p7003
F100.0
I1
tp7004
a(VNS8036.HOSTGATOR
p7005
F100.0
I1
tp7006
a(VNS2.PLEROMX
p7007
F50.0
I1
tp7008
a(VNS11.PARSISCO.NET
p7009
F100.0
I1
tp7010
a(VUMA.NS.CLOUDFLARE
p7011
F1.2987012987012987
I1
tp7012
a(VNS1.EASY-INTERNET.CO.UK
p7013
F33.333333333333336
I1
tp7014
a(VNS8044.HOSTGATOR
p7015
F50.0
I1
tp7016
a(VGEORGE.NS.CLOUDFLARE
p7017
F5.2631578947368425
I1
tp7018
a(VNS1.XSERVER.JP
p7019
F0.3021148036253776
I1
tp7020
a(VBS11.HOSTWINDSDNS
p7021
F25.0
I1
tp7022
a(VNS1.ARDETAMEDIA
p7023
F14.285714285714286
I1
tp7024
a(VNS8.SAUDIHOST.NET
p7025
F33.333333333333336
I1
tp7026
a(VNS6166.HOSTGATOR
p7027
F33.333333333333336
I1
tp7028
a(VNS2.MARMOT.ARVIXE
p7029
F20.0
I1
tp7030
a(VNS2.BINDER.MYSITEHOSTED
p7031
F50.0
I1
tp7032
a(VNS36.ALIBABAHOST
p7033
F100.0
I1
tp7034
a(VNS1.VESTOSTNORD
p7035
F100.0
I1
tp7036
a(VVIDA.NS.CLOUDFLARE
p7037
F6.666666666666667
I1
tp7038
a(VDNS2.VPS.NET
p7039
F4.545454545454546
I1
tp7040
a(VNS-CLOUD-E4.GOOGLEDOMAINS
p7041
F1.0869565217391304
I1
tp7042
a(VHOST11.HOSTRIVERS
p7043
F100.0
I1
tp7044
a(VNS6094.HOSTGATOR
p7045
F16.666666666666668
I1
tp7046
a(VNS1.UHCLOUD
p7047
F50.0
I1
tp7048
a(VMIKI.NS.CLOUDFLARE
p7049
F16.666666666666668
I1
tp7050
a(VDNS1.AGRINET.CH
p7051
F33.333333333333336
I1
tp7052
a(VDEW1.INDONESIATOURTRAVEL
p7053
F100.0
I1
tp7054
a(VNS1082.TAMAINUT.NET
p7055
F0.8130081300813008
I1
tp7056
a(VJOBS.NS.CLOUDFLARE
p7057
F6.666666666666667
I1
tp7058
a(VNS1.WILLDESIGNFORWINE
p7059
F100.0
I1
tp7060
a(VNS1.ADVANCEDWORKTABLE
p7061
F100.0
I1
tp7062
a(VDNS3.HOSTING.SBB.RS
p7063
F50.0
I1
tp7064
a(VNS1.NIMSINT
p7065
F100.0
I1
tp7066
a(VNS14.WEBSOLSPK
p7067
F100.0
I1
tp7068
a(VNS1.ORANGEWEBSITE
p7069
F100.0
I1
tp7070
a(VNS716.HOSTGATOR.COM.BR
p7071
F9.090909090909092
I1
tp7072
a(VNS1.THESMARTVALUE
p7073
F100.0
I1
tp7074
a(VNS1.SOFNETS
p7075
F50.0
I1
tp7076
a(VNS137.WEBHOSTINGWORLD.NET
p7077
F100.0
I1
tp7078
a(VEXPDNS2.EXPDNS.NET
p7079
F0.25510204081632654
I1
tp7080
a(VNS8358.HOSTGATOR
p7081
F50.0
I1
tp7082
a(VNS1.TRADEESOURCE
p7083
F100.0
I1
tp7084
a(VNS35.EHIWEB.IT
p7085
F100.0
I1
tp7086
a(VNS7.CNOLNIC.NET
p7087
F3.5714285714285716
I1
tp7088
a(VZHORA.RECOL.NET
p7089
F100.0
I1
tp7090
a(VNS1.SWINE.ARVIXE
p7091
F100.0
I1
tp7092
a(VNS2.GLASSCOAT
p7093
F100.0
I1
tp7094
a(VNS12.AATECHDESIGN
p7095
F100.0
I1
tp7096
a(VNS1.DHYANIPATEL
p7097
F14.285714285714286
I1
tp7098
a(VNS2.ASIOSTUDIO
p7099
F100.0
I1
tp7100
a(VNS1646.ZTOMY
p7101
F0.35587188612099646
I1
tp7102
a(VNS2.BYTEBULL
p7103
F100.0
I1
tp7104
a(VSAVALIYA.EARTH.ORDERBOX-DNS
p7105
F100.0
I1
tp7106
a(VRODNEY.NS.CLOUDFLARE
p7107
F16.666666666666668
I1
tp7108
a(VNS1.ADMINVPS.RU
p7109
F100.0
I1
tp7110
a(VCNS10.HOSTGATOR
p7111
F5.882352941176471
I1
tp7112
a(VNS02.MAIL2WORLD
p7113
F100.0
I1
tp7114
a(VNS1.AUROINFO
p7115
F100.0
I1
tp7116
a(VNS2.ZEPHIA.COM.AR
p7117
F100.0
I1
tp7118
a(VNS2-SD-GOLF458.LEVEL-CLOUD
p7119
F100.0
I1
tp7120
a(VNS1.INCREDIBLENEPAL.ORG
p7121
F100.0
I1
tp7122
a(VNS1.EARSERVER.NET
p7123
F100.0
I1
tp7124
a(VNS1.WEBRADIOO.NET
p7125
F100.0
I1
tp7126
a(VDNS01.H3.PLAYNET.IT
p7127
F9.090909090909092
I1
tp7128
a(VNS1.WISHRAT
p7129
F100.0
I1
tp7130
a(VNS4.HOSTCHILLYNG
p7131
F100.0
I1
tp7132
a(VNOEL.NS.CLOUDFLARE
p7133
F11.11111111111111
I1
tp7134
a(VNS1.DUTYHOST.NET
p7135
F100.0
I1
tp7136
a(VNS1.COCOAESTUDIO.MX
p7137
F100.0
I1
tp7138
a(VNS02.GNGGROUP.CO.IN
p7139
F100.0
I1
tp7140
a(VRS138.REGISTRAR-SERVERS
p7141
F50.0
I1
tp7142
a(VNS4033.HOSTGATOR
p7143
F4.0
I1
tp7144
a(VSWAM150299.EARTH.ORDERBOX-DNS
p7145
F100.0
I1
tp7146
a(VNS8.DNS-21
p7147
F100.0
I1
tp7148
a(VNS-715.AWSDNS-25.NET
p7149
F20.0
I1
tp7150
a(VNS2.CREATIVODNS
p7151
F16.666666666666668
I1
tp7152
a(VNS2.ROUTESNROOTS
p7153
F100.0
I1
tp7154
a(VNS1.MEEBOX.NET
p7155
F33.333333333333336
I1
tp7156
a(VEXPDNS1.EXPDNS.NET
p7157
F0.25510204081632654
I1
tp7158
a(VNS1.EMMGRAFIX
p7159
F50.0
I1
tp7160
a(VNS1727.WEBSITEWELCOME
p7161
F100.0
I1
tp7162
a(VNS8027.HOSTGATOR
p7163
F25.0
I1
tp7164
a(VNS2.STREAMINGDOMINICANA.NET
p7165
F100.0
I1
tp7166
a(VNS1.THESOFTKING
p7167
F50.0
I1
tp7168
a(VNS2.POMEGRAN.CO
p7169
F100.0
I1
tp7170
a(VRACHEL.NS.CLOUDFLARE
p7171
F12.5
I1
tp7172
a(VNS2.PRIVATESITELABEL
p7173
F25.0
I1
tp7174
a(VDNS1.SERV.NET.MX
p7175
F12.5
I1
tp7176
a(VNS1.POMEGRAN.CO
p7177
F100.0
I1
tp7178
a(VNS8357.HOSTGATOR
p7179
F50.0
I1
tp7180
a(VDNS3.NEWSITEDNS2.RU
p7181
F100.0
I1
tp7182
a(VNS1.DRAMASKIDUNYA
p7183
F8.333333333333334
I1
tp7184
a(VNS2.VESTOSTNORD
p7185
F100.0
I1
tp7186
a(VDNS150.C.REGISTER
p7187
F1.0101010101010102
I1
tp7188
a(VDNS2.GUTENTAGMENLIEBE.WS
p7189
F100.0
I1
tp7190
a(VNS1.MAOJMASTI
p7191
F100.0
I1
tp7192
a(VNS4.ARDETAMEDIA
p7193
F14.285714285714286
I1
tp7194
a(VNS2.KHUSAKI
p7195
F100.0
I1
tp7196
a(VYOLANDA.NS.CLOUDFLARE
p7197
F0.5
I1
tp7198
a(VNS2.ZIONHOST.COM.BR
p7199
F100.0
I1
tp7200
a(VNS2.DESIGNWAREHOUSE.IN
p7201
F100.0
I1
tp7202
a(VDNS2.SIDENET.NET
p7203
F100.0
I1
tp7204
a(VNS2017.KVCHOSTING
p7205
F100.0
I1
tp7206
a(VNS201.01ISP.NET
p7207
F50.0
I1
tp7208
a(VATHENA.NS.CLOUDFLARE
p7209
F10.0
I1
tp7210
a(VNS2-SHOW.MYHOSTADMIN.NET
p7211
F12.5
I1
tp7212
a(VNS2.REGISTER.IT
p7213
F1.3513513513513513
I1
tp7214
a(VNS2.AZCWEBSERVICES
p7215
F50.0
I1
tp7216
a(VNS1.PARTNERCONSOLE.NET
p7217
F2.5641025641025643
I1
tp7218
a(VNS2.DEDICADOSNET.COM.BR
p7219
F100.0
I1
tp7220
a(VDNS13.PARKPAGE.FOUNDATIONAPI
p7221
F0.7299270072992701
I1
tp7222
a(VNS2.NURIHOSTING
p7223
F100.0
I1
tp7224
a(V14.SUCURIDNS
p7225
F33.333333333333336
I1
tp7226
a(VNS315389.IP-37-187-28.EU
p7227
F33.333333333333336
I1
tp7228
a(VNS1.NETISHOST
p7229
F100.0
I1
tp7230
a(VN2.JUMING
p7231
F0.16260162601626016
I1
tp7232
a(VNS3.HOSTINGER.COM.BR
p7233
F3.5714285714285716
I1
tp7234
a(VNS-CLOUD-D2.GOOGLEDOMAINS
p7235
F0.31545741324921134
I1
tp7236
a(VDNS040.B.REGISTER
p7237
F1.0101010101010102
I1
tp7238
a(VNS2.MIGMARKETING.BIZ
p7239
F50.0
I1
tp7240
a(VNS2.SOFNETS
p7241
F50.0
I1
tp7242
a(VNS2.BLANDIT.ORG
p7243
F100.0
I1
tp7244
a(VDARWIN.NS.CLOUDFLARE
p7245
F12.5
I1
tp7246
a(VBR.NS.X2N.COM.BR
p7247
F20.0
I1
tp7248
a(VNS2-FUNK.SERVERDNSPOINT
p7249
F100.0
I1
tp7250
a(VNS1.OPTIMALSECURED
p7251
F100.0
I1
tp7252
a(VDNS2.BIGROCK
p7253
F12.5
I1
tp7254
a(VNEXUS4WEB.MERCURY.ORDERBOX-DNS
p7255
F100.0
I1
tp7256
a(VNS554.WEBSITEWELCOME
p7257
F50.0
I1
tp7258
a(VNS2-LAKERS.WEBSERVERSYSTEMS
p7259
F100.0
I1
tp7260
a(VRU.HOSTER.KZ
p7261
F33.333333333333336
I1
tp7262
a(VNS50.SUPERDOMAINZONE
p7263
F33.333333333333336
I1
tp7264
a(VNS273.PHTCO
p7265
F100.0
I1
tp7266
a(VNS1.FARDAGROUP
p7267
F25.0
I1
tp7268
a(VNS310.HOSTGATOR
p7269
F100.0
I1
tp7270
a(VNS1.IPEOPLE.MY
p7271
F50.0
I1
tp7272
a(VNS1.ASCRICKET
p7273
F100.0
I1
tp7274
a(VNS1.PHEENIX
p7275
F100.0
I1
tp7276
a(VNS2.GLOBALACCESSISP
p7277
F100.0
I1
tp7278
a(VNS1.SITE4NOW.NET
p7279
F2.2222222222222223
I1
tp7280
a(VNS2.BIGCOMMERCE
p7281
F2.127659574468085
I1
tp7282
a(VALICE.NS.CLOUDFLARE
p7283
F9.090909090909092
I1
tp7284
a(VNS1.FISHFINDERS.INFO
p7285
F100.0
I1
tp7286
a(VNS1.CMZONE.CO.TH
p7287
F100.0
I1
tp7288
a(VDNS02.MUUMUU-DOMAIN
p7289
F0.45045045045045046
I1
tp7290
a(VNS2.CLIENTSWEBHOSTING
p7291
F100.0
I1
tp7292
a(VDOLLY.NS.CLOUDFLARE
p7293
F8.333333333333334
I1
tp7294
a(VNS2.PUNJABWEBHOSTING.CO.IN
p7295
F33.333333333333336
I1
tp7296
a(VDOMAIN.IDOTZ.NET
p7297
F10.0
I1
tp7298
a(VNS6015.HOSTGATOR
p7299
F33.333333333333336
I1
tp7300
a(VNS1.ALOJATE3
p7301
F100.0
I1
tp7302
a(VNS1.VEVIDA.NET
p7303
F50.0
I1
tp7304
a(VNS1.ALOJATE4
p7305
F100.0
I1
tp7306
a(VNS3.VPWEB
p7307
F0.36231884057971014
I1
tp7308
a(VNS6125.HOSTGATOR
p7309
F100.0
I1
tp7310
a(VNS14.TEPUYSERVER.NET
p7311
F100.0
I1
tp7312
a(VNS2.5DSHOST
p7313
F50.0
I1
tp7314
a(VNS2.NSALT.NET
p7315
F100.0
I1
tp7316
a(VNS1.PLAYMEDIOS
p7317
F6.666666666666667
I1
tp7318
a(VNS11.MYNIC247
p7319
F100.0
I1
tp7320
a(VNS1.HOSTING-SERVICES.NET.AU
p7321
F50.0
I1
tp7322
a(VNS2.MANAGEDNAMESERVER
p7323
F11.11111111111111
I1
tp7324
a(VNS2.OILINVEST5
p7325
F100.0
I1
tp7326
a(VSALE266643.VENUS.ORDERBOX-DNS
p7327
F100.0
I1
tp7328
a(VNS2.DATAPLUGS
p7329
F20.0
I1
tp7330
a(VNS2.WTYR0LU7CXM3
p7331
F100.0
I1
tp7332
a(VNSG1.NAMEBRIGHTDNS
p7333
F1.9607843137254901
I1
tp7334
a(VNS2.SINGAPOREHOST.SG
p7335
F33.333333333333336
I1
tp7336
a(VNS1.WESECUREHOST
p7337
F100.0
I1
tp7338
a(VNS1.MURESOURCES
p7339
F50.0
I1
tp7340
a(VNS1.SITEGROUND194
p7341
F100.0
I1
tp7342
a(VNS1.ALBUMWINDOW
p7343
F50.0
I1
tp7344
a(VNSB.BOOKMYNAME
p7345
F5.0
I1
tp7346
a(VNS1.AAMRANETWORKS
p7347
F100.0
I1
tp7348
a(VNS8390.HOSTGATOR
p7349
F33.333333333333336
I1
tp7350
a(VCNS69774.HOSTWINDSDNS
p7351
F9.090909090909092
I1
tp7352
a(VNS286.EDNS1
p7353
F100.0
I1
tp7354
a(VNS2.DARDID
p7355
F100.0
I1
tp7356
a(VNS1.NSHUN89QVGXA
p7357
F100.0
I1
tp7358
a(VNS2.WEBKRAFTKENYA
p7359
F50.0
I1
tp7360
a(VNS2.IPWEBDNS
p7361
F100.0
I1
tp7362
a(VNS1.8SSI
p7363
F14.285714285714286
I1
tp7364
a(VNS194.WEBSITEWELCOME
p7365
F100.0
I1
tp7366
a(VNS8177.HOSTGATOR
p7367
F33.333333333333336
I1
tp7368
a(VDNS8.RIGHTDNS
p7369
F50.0
I1
tp7370
a(VNS2.FASTNEXT
p7371
F50.0
I1
tp7372
a(VNS2.BRAINYDNS
p7373
F0.6666666666666666
I1
tp7374
a(VNS1.HOSTIRAN.NET
p7375
F2.272727272727273
I1
tp7376
a(VNS1.FLICKHOSTING.BIZ
p7377
F100.0
I1
tp7378
a(VNS1.NOPESOCOMSAUDE.COM.BR
p7379
F100.0
I1
tp7380
a(VNS1.MAKSUCO
p7381
F100.0
I1
tp7382
a(VNSBAK.DOTVNDNS
p7383
F16.666666666666668
I1
tp7384
a(VNS4.DNSHOSTSERVER.IN
p7385
F100.0
I1
tp7386
a(VNS1.KIRIMIZICEKET
p7387
F1.2987012987012987
I1
tp7388
a(VNORMAN.NS.CLOUDFLARE
p7389
F7.6923076923076925
I1
tp7390
a(VNS2.DOMAINS4BITCOINS-PARKING
p7391
F100.0
I1
tp7392
a(VNS105.HOSTINGLOTUS.NET
p7393
F100.0
I1
tp7394
a(VDNS2.SERV.NET.MX
p7395
F12.5
I1
tp7396
a(VNS5.HOSTNOWNOW
p7397
F0.2976190476190476
I1
tp7398
a(VNS-109.AWSDNS-13
p7399
F33.333333333333336
I1
tp7400
a(VNS3.TURKISHOST
p7401
F100.0
I1
tp7402
a(VDNS1UIO.CYBERWEB.NET.EC
p7403
F25.0
I1
tp7404
a(VNS1.WEBKRAFTKENYA
p7405
F50.0
I1
tp7406
a(VNS1381.WEBSITEWELCOME
p7407
F50.0
I1
tp7408
a(VNS1.ANTRASNITE.PW
p7409
F100.0
I1
tp7410
a(VNS2.M55.SITEGROUND.BIZ
p7411
F33.333333333333336
I1
tp7412
a(VNS2.NSRAID
p7413
F33.333333333333336
I1
tp7414
a(VNS3.NOCDIRECT.IN
p7415
F100.0
I1
tp7416
a(VLEX.NS.CLOUDFLARE
p7417
F5.555555555555555
I1
tp7418
a(VNS106.HOSTINGLOTUS.NET
p7419
F100.0
I1
tp7420
a(VNS4025.HOSTGATOR
p7421
F5.882352941176471
I1
tp7422
a(VNS2.ADVANCEDWORKTABLE
p7423
F100.0
I1
tp7424
a(VNS.KPKSOJOLSMWV
p7425
F100.0
I1
tp7426
a(VNS1.STYLEZWORLD
p7427
F50.0
I1
tp7428
a(VNS141.EHOSTS
p7429
F1.2048192771084338
I1
tp7430
a(VS1.DUMPACTION.INFO
p7431
F100.0
I1
tp7432
a(VNS5.PERSIANTOOLS
p7433
F100.0
I1
tp7434
a(VNS1.NETWORKNEWS
p7435
F100.0
I1
tp7436
a(VNS2.CONCEPTIONCLOTHING
p7437
F100.0
I1
tp7438
a(VDNS.CHERSERVER
p7439
F100.0
I1
tp7440
a(VNS2.PEARLGATEPUBLISHING
p7441
F100.0
I1
tp7442
a(VNS.OXITO
p7443
F20.0
I1
tp7444
a(VNS1.JOLLYWORKSHOSTING
p7445
F100.0
I1
tp7446
a(VNS2016.KVCHOSTING
p7447
F100.0
I1
tp7448
a(VNS2FJZ.NAME
p7449
F3.5714285714285716
I1
tp7450
a(VNS2.PUFFIN.ARVIXE
p7451
F50.0
I1
tp7452
a(VC.DNS.GANDI.NET
p7453
F0.8620689655172413
I1
tp7454
a(VNS1.WAPKAHOST.NET
p7455
F100.0
I1
tp7456
a(VNS-927.AWSDNS-51.NET
p7457
F100.0
I1
tp7458
a(VNS237.WEBSITEWELCOME
p7459
F14.285714285714286
I1
tp7460
a(VNS1.BUZINESS.NET
p7461
F100.0
I1
tp7462
a(VNS2.360WZB
p7463
F1.2048192771084338
I1
tp7464
a(VDNS2.MAYBENOTLENOVO.WS
p7465
F100.0
I1
tp7466
a(VSDNS1.VHOSTING-IT
p7467
F12.5
I1
tp7468
a(VNS1.MISERVIDOR.INFO
p7469
F33.333333333333336
I1
tp7470
a(VDNS8.AAQA.CO
p7471
F100.0
I1
tp7472
a(VNS1.ISSESOLN.NET
p7473
F100.0
I1
tp7474
a(VNS6600.HOSTGATOR
p7475
F5.2631578947368425
I1
tp7476
a(VRL5.RADOREHOSTING
p7477
F12.5
I1
tp7478
a(VNS2.SPATIU.NET
p7479
F100.0
I1
tp7480
a(VNS4014.HOSTGATOR
p7481
F4.0
I1
tp7482
a(VNS1349.WEBSITEWELCOME
p7483
F100.0
I1
tp7484
a(VNS2.THESMARTVALUE
p7485
F100.0
I1
tp7486
a(VNS1.DNATECHNOLOGIES.IN
p7487
F100.0
I1
tp7488
a(VCA.NS.X2N.COM.BR
p7489
F20.0
I1
tp7490
a(VNS2.MAILPATRIOTS.XYZ
p7491
F100.0
I1
tp7492
a(VNS2.STYLEZWORLD
p7493
F50.0
I1
tp7494
a(VNS1.ONLINEDEVHOSTING
p7495
F100.0
I1
tp7496
a(VNS3.TEPUYSERVER.NET
p7497
F100.0
I1
tp7498
a(VNS1.COLOMBIAHOSTING
p7499
F4.3478260869565215
I1
tp7500
a(VNS5.SAUDIHOST.NET
p7501
F50.0
I1
tp7502
a(VNS1.EAGENT.IN
p7503
F100.0
I1
tp7504
a(VNS1.BISWASIT
p7505
F100.0
I1
tp7506
a(VNS2.DNSFREEDOM.NET
p7507
F50.0
I1
tp7508
a(VNS2.ADSCRIBEINDIA
p7509
F100.0
I1
tp7510
a(VNEXUS4WEB.EARTH.ORDERBOX-DNS
p7511
F100.0
I1
tp7512
a(VNS1.AAAHOST
p7513
F100.0
I1
tp7514
a(VDNS04.GIGAS
p7515
F50.0
I1
tp7516
a(VNS3.RESOLVE-PAYMENT
p7517
F100.0
I1
tp7518
a(VNS1.WTYR0LU7CXM3
p7519
F100.0
I1
tp7520
a(VVIP2.ALIDNS
p7521
F2.3255813953488373
I1
tp7522
a(VNS2.DIGIPALHOST
p7523
F100.0
I1
tp7524
a(VNS3.CONCEPTIONCLOTHING
p7525
F100.0
I1
tp7526
a(VNS1.CENTAURO-SAMPAHOSTING
p7527
F100.0
I1
tp7528
a(VNS12.SEO-DNS
p7529
F5.555555555555555
I1
tp7530
a(VNS2.INCREDIBLECANADA
p7531
F100.0
I1
tp7532
a(VNS4.NETSONS
p7533
F0.03115264797507788
I1
tp7534
a(VRL3.RADOREHOSTING
p7535
F100.0
I1
tp7536
a(VNS1.ELSERVER
p7537
F6.25
I1
tp7538
a(VNS2.SUPERHEROHOSTING.CA
p7539
F100.0
I1
tp7540
a(VNS21611914296.A2DNS
p7541
F100.0
I1
tp7542
a(VNS1.KTTHOSTING
p7543
F50.0
I1
tp7544
a(VNS11.CRYSTALREGISTRY
p7545
F20.0
I1
tp7546
a(VSWAM150299.MERCURY.ORDERBOX-DNS
p7547
F100.0
I1
tp7548
a(VNS25.BRASILWEBHOST.COM.BR
p7549
F100.0
I1
tp7550
a(VNS1.VM232.FCOMET
p7551
F100.0
I1
tp7552
a(VNS75.MULTISERVER.GR
p7553
F50.0
I1
tp7554
a(VNS1.M28.SITEGROUND.BIZ
p7555
F100.0
I1
tp7556
a(VNS1.WEBHOSTMACHINE
p7557
F100.0
I1
tp7558
a(VNS2.KISLIY
p7559
F100.0
I1
tp7560
a(VNS2.RESOLVE-PAYMENT
p7561
F100.0
I1
tp7562
a(VNS1.AIOP-HOSTING
p7563
F50.0
I1
tp7564
a(VNS.BUYDOMAINS
p7565
F0.12004801920768307
I1
tp7566
a(VDNS2.UJAJAJGOGO.WS
p7567
F100.0
I1
tp7568
a(VDNS03.GIGAS
p7569
F50.0
I1
tp7570
a(VNS2.VENTRAIP.NET.AU
p7571
F10.0
I1
tp7572
a(VNS1.DOMAINS4BITCOINS-PARKING
p7573
F100.0
I1
tp7574
a(VNS1.JURASPALD.PW
p7575
F33.333333333333336
I1
tp7576
a(VNEXUS4WEB.MARS.ORDERBOX-DNS
p7577
F100.0
I1
tp7578
a(VNS3.MAXDOMINIOS
p7579
F100.0
I1
tp7580
a(VNS2-HOST.HOSTJINNI.NET
p7581
F50.0
I1
tp7582
a(VNS2237.HOSTGATOR
p7583
F50.0
I1
tp7584
a(VNS1.CLOUDAPPSERVERS
p7585
F20.0
I1
tp7586
a(VNS1.XTRAORBIT
p7587
F50.0
I1
tp7588
a(VNS2.DOMAIN-RESOLUTION.NET
p7589
F9.090909090909092
I1
tp7590
a(VNS-702.AWSDNS-23.NET
p7591
F10.0
I1
tp7592
a(VNS1.ARABWAN
p7593
F100.0
I1
tp7594
a(VNS1.MYBDWEB.NET
p7595
F100.0
I1
tp7596
a(VNS1.MYBBSE.NET
p7597
F100.0
I1
tp7598
a(VNS68.WORLDNIC
p7599
F3.7037037037037037
I1
tp7600
a(VNS2.MUGLATASARIM
p7601
F6.666666666666667
I1
tp7602
a(VNS1-SHOW.MYHOSTADMIN.NET
p7603
F12.5
I1
tp7604
a(VNS1388.WEBSITEWELCOME
p7605
F100.0
I1
tp7606
a(VNS1.CSOFTS.NET
p7607
F100.0
I1
tp7608
a(VNS1.TOPHOSTINGSERVERS.BIZ
p7609
F100.0
I1
tp7610
a(VNS2.SOOOOZ
p7611
F100.0
I1
tp7612
a(VNS2.GENDNS
p7613
F100.0
I1
tp7614
a(VDNS6.PARKPAGE.FOUNDATIONAPI
p7615
F1.3333333333333333
I1
tp7616
a(VNS1.OXIO.INFO
p7617
F100.0
I1
tp7618
a(VNS2.MD-IN-42.WEBHOSTBOX.NET
p7619
F33.333333333333336
I1
tp7620
a(VNS1-INTREPID.IWEBSOUL
p7621
F50.0
I1
tp7622
a(VNS2.KTTHOSTING
p7623
F50.0
I1
tp7624
a(VNS2.INTERPLANET.COM.MX
p7625
F4.166666666666667
I1
tp7626
a(VNS1.KARNAVATI.CO.IN
p7627
F9.090909090909092
I1
tp7628
a(VNS8.CNOLNIC.NET
p7629
F3.5714285714285716
I1
tp7630
a(VNS1.FLAMEWEBHOSTING
p7631
F100.0
I1
tp7632
a(VNS3325.HOSTGATOR
p7633
F100.0
I1
tp7634
a(VNS3326.HOSTGATOR
p7635
F100.0
I1
tp7636
a(VNS1.DNSMADEEASY
p7637
F1.2048192771084338
I1
tp7638
a(VNS55.INTER-SERVER.NET
p7639
F100.0
I1
tp7640
a(VNS1679.WEBSITEWELCOME
p7641
F25.0
I1
tp7642
a(VNS1.WPGATEWAYSERVER
p7643
F33.333333333333336
I1
tp7644
a(VNSP3.REGISTRATIONTEK
p7645
F25.0
I1
tp7646
a(VNS1.JOGJAHOST.CO.ID
p7647
F50.0
I1
tp7648
a(VNS4.JOGJAHOST.CO.ID
p7649
F50.0
I1
tp7650
a(VNS2541.ZTOMY
p7651
F14.285714285714286
I1
tp7652
a(VNS2-CLOUD-167806.VALA-BLEU
p7653
F100.0
I1
tp7654
a(VNS1-LEADER.VIVAWEBHOST
p7655
F20.0
I1
tp7656
a(VNS1.SWITCHCHOICE.NET
p7657
F100.0
I1
tp7658
a(VNS112.WEBSITEWELCOME
p7659
F100.0
I1
tp7660
a(VNS1.MORFFEGROUP
p7661
F16.666666666666668
I1
tp7662
a(VIPRO1.MARS.ORDERBOX-DNS
p7663
F100.0
I1
tp7664
a(VNS8306.HOSTGATOR
p7665
F33.333333333333336
I1
tp7666
a(VNS5.ELSERVER
p7667
F7.6923076923076925
I1
tp7668
a(VVNS2.NOCDIRECT
p7669
F14.285714285714286
I1
tp7670
a(VNS2082.IFASTNET
p7671
F50.0
I1
tp7672
a(VNS2.SGCLOUD2U
p7673
F100.0
I1
tp7674
a(VNS2.KARUNEEGAR
p7675
F100.0
I1
tp7676
a(VNS6.SERVERBD.NET
p7677
F100.0
I1
tp7678
a(VDNS10.IPSERVERCR
p7679
F100.0
I1
tp7680
a(VNS1.ALLINONETECH.NET
p7681
F100.0
I1
tp7682
a(VNS6.PERSIANTOOLS
p7683
F100.0
I1
tp7684
a(VNS1-R10.NSWEBHOST
p7685
F100.0
I1
tp7686
a(VNS2.C16561.SGVPS.NET
p7687
F100.0
I1
tp7688
a(VNS2.CUBEABOUT
p7689
F100.0
I1
tp7690
a(VNS1.CEMPOLAT
p7691
F50.0
I1
tp7692
a(VNS11.TECHNOLOGYLEADER.COMPANY
p7693
F50.0
I1
tp7694
a(VNS2.NAMESERVER.NET.AU
p7695
F2.7777777777777777
I1
tp7696
a(VNS2.LOGICIELSINFO
p7697
F100.0
I1
tp7698
a(VBWANA.KENYAONLINE
p7699
F100.0
I1
tp7700
a(VNS1021.WEBSITEWELCOME
p7701
F16.666666666666668
I1
tp7702
a(VNS1.SITEGROUND216
p7703
F33.333333333333336
I1
tp7704
a(VNS272.PHTCO
p7705
F100.0
I1
tp7706
a(VNS2.FORBESTHOSTING
p7707
F100.0
I1
tp7708
a(VNS2.ISTANAHOSTING
p7709
F33.333333333333336
I1
tp7710
a(VNS9.HOSTMAR
p7711
F20.0
I1
tp7712
a(VDNS4.HOSTING.SBB.RS
p7713
F50.0
I1
tp7714
a(VNS3.UMIYAJI
p7715
F25.0
I1
tp7716
a(VNS242.WEBSITEWELCOME
p7717
F100.0
I1
tp7718
a(VNS-CLOUD-B1.GOOGLEDOMAINS
p7719
F0.15723270440251572
I1
tp7720
a(VNS1.VIPFIXSOCCER
p7721
F7.142857142857143
I1
tp7722
a(VNS1.EBONYLIFETV
p7723
F20.0
I1
tp7724
a(VNS3.HOTSERVERS.NET
p7725
F100.0
I1
tp7726
a(VNS1.ULTRAHOST.US
p7727
F50.0
I1
tp7728
a(VNS2.NARUKIN.RU
p7729
F100.0
I1
tp7730
a(VNS2.MDIN-PP-WB1.WEBHOSTBOX.NET
p7731
F100.0
I1
tp7732
a(VNS1.CLOUDUSSERVER
p7733
F11.11111111111111
I1
tp7734
a(VNS200.01ISP
p7735
F50.0
I1
tp7736
a(VNS-997.AWSDNS-60.NET
p7737
F50.0
I1
tp7738
a(VNS2.UUNETWORKING
p7739
F50.0
I1
tp7740
a(VNS1.YLGVODNS
p7741
F100.0
I1
tp7742
a(VNS2.US9.SITEGROUND.US
p7743
F0.7194244604316546
I1
tp7744
a(VNS1.ZIONHOST.COM.BR
p7745
F100.0
I1
tp7746
a(VJUSTIN.NS.CLOUDFLARE
p7747
F7.6923076923076925
I1
tp7748
a(VNBWEB.EARTH.ORDERBOX-DNS
p7749
F50.0
I1
tp7750
a(VNS1.HOSTHUNTSVILLE
p7751
F100.0
I1
tp7752
a(VH2.SUPORTED-INTERN
p7753
F100.0
I1
tp7754
a(VNS41.PTWEBSITE
p7755
F100.0
I1
tp7756
a(VNS2.DONWEB
p7757
F10.0
I1
tp7758
a(VNS25.WEBSITEWELCOME
p7759
F100.0
I1
tp7760
a(VNS.WEBKOLAY.NET
p7761
F100.0
I1
tp7762
a(VNS1.SUPERCLOUDAPPS
p7763
F50.0
I1
tp7764
a(VNS2.IPOWER
p7765
F2.2222222222222223
I1
tp7766
a(VDNS761-2.NEXCESS.NET
p7767
F100.0
I1
tp7768
a(VNS4.IRCITYSERVER
p7769
F100.0
I1
tp7770
a(VNS7.OFFSHOREHOSTING.SPACE
p7771
F50.0
I1
tp7772
a(VNS2.EGVIP.NET
p7773
F100.0
I1
tp7774
a(VNS522.WEBSITEWELCOME
p7775
F33.333333333333336
I1
tp7776
a(VNSS52476.DNS-PRIVADAS.ES
p7777
F14.285714285714286
I1
tp7778
a(VNS2.SERVERS800
p7779
F33.333333333333336
I1
tp7780
a(VBUY.INTERNETTRAFFIC
p7781
F0.006933370311308327
I1
tp7782
a(VNS1001.CYBERNETHOST
p7783
F100.0
I1
tp7784
a(VHOSTINGSRV5NS2.HOSTINGFLAME.ORG
p7785
F50.0
I1
tp7786
a(VNS4.BOLDHOSTS
p7787
F33.333333333333336
I1
tp7788
a(VNS2.DIGITALSYNAPSEBD
p7789
F100.0
I1
tp7790
a(VCNS97.HOSTGATOR
p7791
F50.0
I1
tp7792
a(VNS1.KRIWEB
p7793
F5.882352941176471
I1
tp7794
a(VHR1.ACQUAHOST.COM.BR
p7795
F100.0
I1
tp7796
a(VNS-1037.AWSDNS-01.ORG
p7797
F33.333333333333336
I1
tp7798
a(VNS2.CRAYON.MYSITEHOSTED
p7799
F50.0
I1
tp7800
a(VNS1.CLOUDLINUX-HOSTING
p7801
F100.0
I1
tp7802
a(VNS5.DNSDUN
p7803
F0.28169014084507044
I1
tp7804
a(VNS2.888DNS.NET
p7805
F0.3546099290780142
I1
tp7806
a(VNS14.DNS.COM.CN
p7807
F0.5952380952380952
I1
tp7808
a(VNS2.LIVEHOSTSUPPORT
p7809
F100.0
I1
tp7810
a(VNS2.ECHOHOST.COM.BR
p7811
F100.0
I1
tp7812
a(VSUPERDOMINIOS.MARS.ORDERBOX-DNS
p7813
F2.857142857142857
I1
tp7814
a(VNS3.IRCITYSERVER
p7815
F100.0
I1
tp7816
a(VNS1.MERGECREATION.NET
p7817
F100.0
I1
tp7818
a(VN393.NS.YUNJIASU
p7819
F100.0
I1
tp7820
a(VNS2.WEBWORLD360
p7821
F100.0
I1
tp7822
a(VNS2.MYWEB-SERVICE
p7823
F100.0
I1
tp7824
a(VPARK1.LIVEDNS.CO.IL
p7825
F8.333333333333334
I1
tp7826
a(VNS1017.WEBSITEWELCOME
p7827
F100.0
I1
tp7828
a(VNS2.COASTALVINEYARDS
p7829
F100.0
I1
tp7830
a(VNS1.S2.FCOMET
p7831
F50.0
I1
tp7832
a(VNS3.PROHOST.KG
p7833
F100.0
I1
tp7834
a(VNS10.TECHNOLOGYLEADER.COMPANY
p7835
F50.0
I1
tp7836
a(VWNS1.VINING.IN
p7837
F100.0
I1
tp7838
a(VNS2.2FREEHOSTING
p7839
F16.666666666666668
I1
tp7840
a(VNS2.CAREERHUNTS.CA
p7841
F100.0
I1
tp7842
a(VNS1.ADAGRUPWEBTASARIM
p7843
F4.761904761904762
I1
tp7844
a(VNS125.EHOSTS
p7845
F100.0
I1
tp7846
a(VNS2.SAMETULUTURK.NET
p7847
F100.0
I1
tp7848
a(VNS2.PARSPLAN.IR
p7849
F100.0
I1
tp7850
a(VBELLA.NS.CLOUDFLARE
p7851
F14.285714285714286
I1
tp7852
a(VNS2.AXSPACE
p7853
F100.0
I1
tp7854
a(VNS1.BH-66.WEBHOSTBOX.NET
p7855
F16.666666666666668
I1
tp7856
a(VNS2.AIOP-HOSTING
p7857
F50.0
I1
tp7858
a(VNS1.GOPREMADE
p7859
F50.0
I1
tp7860
a(VNS182.ABSTRACTDNS
p7861
F100.0
I1
tp7862
a(VCNS109.HOSTGATOR
p7863
F8.333333333333334
I1
tp7864
a(VKAGA491021.MARS.ORDERBOX-DNS
p7865
F100.0
I1
tp7866
a(VNS4.DINAHOSTING
p7867
F33.333333333333336
I1
tp7868
a(VNS1350.WEBSITEWELCOME
p7869
F100.0
I1
tp7870
a(VNS1.MAANIHOSTING
p7871
F100.0
I1
tp7872
a(VNS2.LNHI.NET
p7873
F14.285714285714286
I1
tp7874
a(VNS2.OTHERLAP
p7875
F100.0
I1
tp7876
a(VCNS34.HOSTGATOR
p7877
F16.666666666666668
I1
tp7878
a(VNS21.HOSTCATS
p7879
F7.6923076923076925
I1
tp7880
a(VNS1.DNS.NET.VN
p7881
F10.0
I1
tp7882
a(VNS2.ASPHOSTSERVER.NET
p7883
F50.0
I1
tp7884
a(V34751.VENUS.ORDERBOX-DNS
p7885
F100.0
I1
tp7886
a(VNS2.WEBFUNDAMENT
p7887
F100.0
I1
tp7888
a(VNS2.JAKAPONG
p7889
F100.0
I1
tp7890
a(VNS1.HOSPITALNEST
p7891
F100.0
I1
tp7892
a(VNS8074.HOSTGATOR
p7893
F50.0
I1
tp7894
a(VNS1.HOBOHOST
p7895
F33.333333333333336
I1
tp7896
a(VNS4.GIGAHOST.DK
p7897
F16.666666666666668
I1
tp7898
a(VNS1.M55.SITEGROUND.BIZ
p7899
F33.333333333333336
I1
tp7900
a(VNS3.ACCELERHOSTING
p7901
F100.0
I1
tp7902
a(VNS1.HOSTPHOENIX.ORG
p7903
F100.0
I1
tp7904
a(VNS1.ZEPHIA.COM.AR
p7905
F100.0
I1
tp7906
a(VNS6.EZDNSCENTER
p7907
F0.2544529262086514
I1
tp7908
a(VNS8350.HOSTGATOR
p7909
F20.0
I1
tp7910
a(VDNS1.IMRSL
p7911
F100.0
I1
tp7912
a(VNS2.BANYANBYTES
p7913
F100.0
I1
tp7914
a(VNS1.VIRLIF
p7915
F100.0
I1
tp7916
a(VNS2.PHASE8.NET
p7917
F0.78125
I1
tp7918
a(VNS4.VIPRESELLER13.NET
p7919
F100.0
I1
tp7920
a(VNS3QTX.NAME
p7921
F2.0
I1
tp7922
a(VNS5.APPVZ
p7923
F100.0
I1
tp7924
a(VNS1.HOSTBRAGA.COM.BR
p7925
F50.0
I1
tp7926
a(VNS6434.HOSTGATOR
p7927
F100.0
I1
tp7928
a(VNSP23.SECUREHOSTDNS
p7929
F100.0
I1
tp7930
a(VNS2.HITSBD
p7931
F50.0
I1
tp7932
a(VNS1.EASYHOSTGHANA
p7933
F50.0
I1
tp7934
a(VNS1.NSRESPONSE
p7935
F3.8461538461538463
I1
tp7936
a(VNS1.DIGITALSYNAPSEBD
p7937
F100.0
I1
tp7938
a(VNS6.HOSTPRIMERA
p7939
F100.0
I1
tp7940
a(VNS5.NIXCONTROLPANEL
p7941
F50.0
I1
tp7942
a(VNS3.PARTNERCONSOLE.NET
p7943
F2.9411764705882355
I1
tp7944
a(VNS2.WAPKAHOSTING
p7945
F100.0
I1
tp7946
a(VNS2706.HOSTGATOR
p7947
F50.0
I1
tp7948
a(VMEERA.NS.CLOUDFLARE
p7949
F5.2631578947368425
I1
tp7950
a(VNS1.AFRASERVER
p7951
F50.0
I1
tp7952
a(VNS1.LIVEHOSTING.BIZ
p7953
F100.0
I1
tp7954
a(VNS15.IXWEBHOSTING
p7955
F8.333333333333334
I1
tp7956
a.