(lp0
(dp1
S'bad'
p2
I0
sS'good'
p3
I1
sS'registrar_name'
p4
VNamePal.com #8027 Inc.
p5
sa(dp6
g2
I0
sg3
I2
sg4
VNamePal.com #8028
p7
sa(dp8
g2
I0
sg3
I4
sg4
VENOM1008, INC.
p9
sa(dp10
g2
I0
sg3
I2
sg4
VNamePal.com #8028 Inc.
p11
sa(dp12
g2
I0
sg3
I4
sg4
VENOM1009, INC.
p13
sa(dp14
g2
I0
sg3
I7
sg4
VDEUTCHDOMAINS, LLC
p15
sa(dp16
g2
I0
sg3
I1
sg4
VDEUTSCHE TELEKOM AG
p17
sa(dp18
g2
I0
sg3
I8
sg4
VSIBERNAME INTERNET AND SOFTWARE TECHNOLOGIES INC.
p19
sa(dp20
g2
I0
sg3
I3
sg4
VENOM1010, INC.
p21
sa(dp22
g2
I0
sg3
I10
sg4
VIgnitela, Inc
p23
sa(dp24
g2
I0
sg3
I10
sg4
Vwww.domainprocessor.com
p25
sa(dp26
g2
I0
sg3
I15
sg4
VDROPCATCH.COM 857 LLC
p27
sa(dp28
g2
I0
sg3
I5
sg4
VENOM1012, INC.
p29
sa(dp30
g2
I0
sg3
I10
sg4
VSICHERREGISTER, INCORPORATED
p31
sa(dp32
g2
I0
sg3
I6
sg4
VIlait AB
p33
sa(dp34
g2
I0
sg3
I17
sg4
VDROPCATCH.COM 510 LLC
p35
sa(dp36
g2
I2
sg3
I2
sg4
VSILICONHOUSE.NET PVT LTD.
p37
sa(dp38
g2
I0
sg3
I8
sg4
VENOM1013, INC.
p39
sa(dp40
g2
I0
sg3
I15
sg4
VDROPCATCH.COM 858 LLC
p41
sa(dp42
g2
I0
sg3
I9
sg4
VImminentdomains.net LLC
p43
sa(dp44
g2
I0
sg3
I11
sg4
VDROPCATCH.COM 511 LLC
p45
sa(dp46
g2
I0
sg3
I8
sg4
VENOM1014, INC.
p47
sa(dp48
g2
I0
sg3
I7
sg4
VENOM1033, INC.
p49
sa(dp50
g2
I0
sg3
I13
sg4
VDROPCATCH.COM 859 LLC
p51
sa(dp52
g2
I0
sg3
I5
sg4
VENOM1034, INC.
p53
sa(dp54
g2
I0
sg3
I21
sg4
VImperial Registrations, Inc
p55
sa(dp56
g2
I1
sg3
I20
sg4
VDROPCATCH.COM 512 LLC
p57
sa(dp58
g2
I0
sg3
I9
sg4
VENOM1035, INC.
p59
sa(dp60
g2
I0
sg3
I4
sg4
VENOM1036, INC.
p61
sa(dp62
g2
I0
sg3
I17
sg4
VDROPCATCH.COM 860 LLC
p63
sa(dp64
g2
I0
sg3
I5
sg4
VENOM1037, INC.
p65
sa(dp66
g2
I0
sg3
I64
sg4
VDropCatch.com 694 LLC
p67
sa(dp68
g2
I0
sg3
I6
sg4
VENOM1038, INC.
p69
sa(dp70
g2
I0
sg3
I23
sg4
VDROPCATCH.COM 513 LLC
p71
sa(dp72
g2
I0
sg3
I71
sg4
VDropCatch.com 347 LLC
p73
sa(dp74
g2
I4
sg3
I69
sg4
VNamePal.com, LLC
p75
sa(dp76
g2
I0
sg3
I21
sg4
VDROPCATCH.COM 861 LLC
p77
sa(dp78
g2
I5
sg3
I14
sg4
VENOM1040, INC.
p79
sa(dp80
g2
I0
sg3
I15
sg4
VDROPCATCH.COM 514 LLC
p81
sa(dp82
g2
I0
sg3
I3
sg4
VENOM2 INC.
p83
sa(dp84
g2
I0
sg3
I14
sg4
VDROPCATCH.COM 862 LLC
p85
sa(dp86
g2
I0
sg3
I14
sg4
VDROPCATCH.COM 515 LLC
p87
sa(dp88
g2
I0
sg3
I12
sg4
VENOM3 INC.
p89
sa(dp90
g2
I0
sg3
I100
sg4
V! #1 HOST AUSTRALIA, INC.
p91
sa(dp92
g2
I0
sg3
I81
sg4
VSILVER DOMAIN NAMES LLC
p93
sa(dp94
g2
I0
sg3
I6
sg4
VENOM371 INCORPORATED
p95
sa(dp96
g2
I0
sg3
I9
sg4
VDROPCATCH.COM 516 LLC
p97
sa(dp98
g2
I0
sg3
I6
sg4
VENOM373 INCORPORATED
p99
sa(dp100
g2
I0
sg3
I23
sg4
VDROPCATCH.COM 863 LLC
p101
sa(dp102
g2
I0
sg3
I6
sg4
VENOM375 INCORPORATED
p103
sa(dp104
g2
I0
sg3
I6
sg4
VENOM377 INCORPORATED
p105
sa(dp106
g2
I0
sg3
I18
sg4
VDROPCATCH.COM 517 LLC
p107
sa(dp108
g2
I0
sg3
I53
sg4
VDropCatch.com 348 LLC
p109
sa(dp110
g2
I0
sg3
I13
sg4
VDROPCATCH.COM 864 LLC
p111
sa(dp112
g2
I0
sg3
I4
sg4
VENOM379 INCORPORATED
p113
sa(dp114
g2
I0
sg3
I3
sg4
VENOM381 INCORPORATED
p115
sa(dp116
g2
I0
sg3
I68
sg4
VDropCatch.com 695 LLC
p117
sa(dp118
g2
I0
sg3
I9
sg4
VDROPCATCH.COM 865 LLC
p119
sa(dp120
g2
I0
sg3
I10
sg4
VENOM383 INCORPORATED
p121
sa(dp122
g2
I0
sg3
I18
sg4
VDROPCATCH.COM 518 LLC
p123
sa(dp124
g2
I0
sg3
I7
sg4
VENOM385 INCORPORATED
p125
sa(dp126
g2
I2
sg3
I139
sg4
VDEVILDOGDOMAINS.COM, LLC
p127
sa(dp128
g2
I0
sg3
I16
sg4
VDROPCATCH.COM 866 LLC
p129
sa(dp130
g2
I0
sg3
I6
sg4
VENOM387 INCORPORATED
p131
sa(dp132
g2
I0
sg3
I12
sg4
VDROPCATCH.COM 519 LLC
p133
sa(dp134
g2
I0
sg3
I5
sg4
VENOM389 INCORPORATED
p135
sa(dp136
g2
I0
sg3
I13
sg4
VDROPCATCH.COM 867 LLC
p137
sa(dp138
g2
I0
sg3
I6
sg4
VENOM391 INCORPORATED
p139
sa(dp140
g2
I0
sg3
I6
sg4
VDROPCATCH.COM 868 LLC
p141
sa(dp142
g2
I0
sg3
I13
sg4
VDROPCATCH.COM 520 LLC
p143
sa(dp144
g2
I0
sg3
I7
sg4
VENOM393 INCORPORATED
p145
sa(dp146
g2
I0
sg3
I7
sg4
VENOM395 INCORPORATED
p147
sa(dp148
g2
I0
sg3
I53
sg4
VDropCatch.com 349 LLC
p149
sa(dp150
g2
I0
sg3
I16
sg4
VDROPCATCH.COM 869 LLC
p151
sa(dp152
g2
I0
sg3
I18
sg4
VDROPCATCH.COM 521 LLC
p153
sa(dp154
g2
I0
sg3
I8
sg4
VENOM397 INCORPORATED
p155
sa(dp156
g2
I0
sg3
I58
sg4
VDropCatch.com 696 LLC
p157
sa(dp158
g2
I0
sg3
I7
sg4
VENOM399 INCORPORATED
p159
sa(dp160
g2
I0
sg3
I9
sg4
VDROPCATCH.COM 522 LLC
p161
sa(dp162
g2
I0
sg3
I5
sg4
VENOM4 INC.
p163
sa(dp164
g2
I0
sg3
I15
sg4
VDROPCATCH.COM 870 LLC
p165
sa(dp166
g2
I0
sg3
I5
sg4
VENOM403 INCORPORATED
p167
sa(dp168
g2
I0
sg3
I10
sg4
VDROPCATCH.COM 523 LLC
p169
sa(dp170
g2
I0
sg3
I4
sg4
VENOM405 INCORPORATED
p171
sa(dp172
g2
I0
sg3
I11
sg4
VDROPCATCH.COM 524 LLC
p173
sa(dp174
g2
I1
sg3
I107
sg4
V! #1 HOST CANADA, INC.
p175
sa(dp176
g2
I0
sg3
I8
sg4
VENOM407 INCORPORATED
p177
sa(dp178
g2
I0
sg3
I21
sg4
VDROPCATCH.COM 871 LLC
p179
sa(dp180
g2
I0
sg3
I9
sg4
VENOM409 INCORPORATED
p181
sa(dp182
g2
I0
sg3
I5
sg4
VENOM411 INCORPORATED
p183
sa(dp184
g2
I0
sg3
I15
sg4
VDROPCATCH.COM 525 LLC
p185
sa(dp186
g2
I0
sg3
I12
sg4
VDROPCATCH.COM 872 LLC
p187
sa(dp188
g2
I0
sg3
I4
sg4
VENOM413 INCORPORATED
p189
sa(dp190
g2
I0
sg3
I6
sg4
VENOM415 INCORPORATED
p191
sa(dp192
g2
I0
sg3
I45
sg4
VDropCatch.com 697 LLC
p193
sa(dp194
g2
I0
sg3
I8
sg4
VDROPCATCH.COM 873 LLC
p195
sa(dp196
g2
I1
sg3
I145
sg4
VSILVERBACKDOMAINS.COM LLC
p197
sa(dp198
g2
I0
sg3
I6
sg4
VENOM417 INCORPORATED
p199
sa(dp200
g2
I0
sg3
I17
sg4
VDROPCATCH.COM 526 LLC
p201
sa(dp202
g2
I0
sg3
I5
sg4
VENOM419 INCORPORATED
p203
sa(dp204
g2
I0
sg3
I5
sg4
VENOM421 INCORPORATED
p205
sa(dp206
g2
I0
sg3
I2
sg4
VENOM423 INCORPORATED
p207
sa(dp208
g2
I0
sg3
I75
sg4
VDropCatch.com 350 LLC
p209
sa(dp210
g2
I0
sg3
I15
sg4
VDROPCATCH.COM 527 LLC
p211
sa(dp212
g2
I0
sg3
I5
sg4
VENOM425 INCORPORATED
p213
sa(dp214
g2
I0
sg3
I21
sg4
VDROPCATCH.COM 874 LLC
p215
sa(dp216
g2
I0
sg3
I4
sg4
VENOM427 INCORPORATED
p217
sa(dp218
g2
I0
sg3
I5
sg4
VENOM429 INCORPORATED
p219
sa(dp220
g2
I5
sg3
I220
sg4
VIn2net Network Inc.
p221
sa(dp222
g2
I0
sg3
I14
sg4
VDROPCATCH.COM 528 LLC
p223
sa(dp224
g2
I0
sg3
I6
sg4
VENOM431 INCORPORATED
p225
sa(dp226
g2
I0
sg3
I9
sg4
VInland Domains LLC
p227
sa(dp228
g2
I0
sg3
I18
sg4
VDROPCATCH.COM 875 LLC
p229
sa(dp230
g2
I0
sg3
I6
sg4
VENOM433 INCORPORATED
p231
sa(dp232
g2
I0
sg3
I8
sg4
VDROPCATCH.COM 529 LLC
p233
sa(dp234
g2
I0
sg3
I43
sg4
VDropCatch.com 698 LLC
p235
sa(dp236
g2
I0
sg3
I5
sg4
VENOM435 INCORPORATED
p237
sa(dp238
g2
I0
sg3
I4
sg4
VENOM437 INCORPORATED
p239
sa(dp240
g2
I0
sg3
I10
sg4
VDROPCATCH.COM 530 LLC
p241
sa(dp242
g2
I0
sg3
I12
sg4
VDROPCATCH.COM 876 LLC
p243
sa(dp244
g2
I1
sg3
I143
sg4
VDIAMATRIX C.C.
p245
sa(dp246
g2
I0
sg3
I3
sg4
VDIGGITYDOT, LLC
p247
sa(dp248
g2
I0
sg3
I9
sg4
VENOM439 INCORPORATED
p249
sa(dp250
g2
I0
sg3
I15
sg4
VDROPCATCH.COM 531 LLC
p251
sa(dp252
g2
I0
sg3
I8
sg4
VENOM441 INCORPORATED
p253
sa(dp254
g2
I0
sg3
I15
sg4
VDINAHOSTING SL
p255
sa(dp256
g2
I0
sg3
I56
sg4
VDropCatch.com 351 LLC
p257
sa(dp258
g2
I0
sg3
I23
sg4
VDROPCATCH.COM 877 LLC
p259
sa(dp260
g2
I0
sg3
I10
sg4
VENOM443 INCORPORATED
p261
sa(dp262
g2
I0
sg3
I6
sg4
VDISCOUNTDOMAINSERVICES, LLC
p263
sa(dp264
g2
I0
sg3
I8
sg4
VENOM445 INCORPORATED
p265
sa(dp266
g2
I0
sg3
I10
sg4
VDROPCATCH.COM 878 LLC
p267
sa(dp268
g2
I0
sg3
I19
sg4
VDROPCATCH.COM 532 LLC
p269
sa(dp270
g2
I0
sg3
I109
sg4
V! #1 HOST CHINA, INC.
p271
sa(dp272
g2
I0
sg3
I8
sg4
VENOM447 INCORPORATED
p273
sa(dp274
g2
I0
sg3
I8
sg4
VENOM449 INCORPORATED
p275
sa(dp276
g2
I0
sg3
I58
sg4
VDropCatch.com 699 LLC
p277
sa(dp278
g2
I0
sg3
I15
sg4
VDROPCATCH.COM 879 LLC
p279
sa(dp280
g2
I0
sg3
I18
sg4
VDROPCATCH.COM 533 LLC
p281
sa(dp282
g2
I0
sg3
I10
sg4
VENOM451 INCORPORATED
p283
sa(dp284
g2
I0
sg3
I11
sg4
VDROPCATCH.COM 880 LLC
p285
sa(dp286
g2
I0
sg3
I4
sg4
VENOM453 INCORPORATED
p287
sa(dp288
g2
I0
sg3
I110
sg4
VSITEFRENZY.COM LLC
p289
sa(dp290
g2
I0
sg3
I7
sg4
VENOM455 INCORPORATED
p291
sa(dp292
g2
I0
sg3
I17
sg4
VDROPCATCH.COM 534 LLC
p293
sa(dp294
g2
I0
sg3
I4
sg4
VENOM457 INCORPORATED
p295
sa(dp296
g2
I0
sg3
I54
sg4
VDropCatch.com 352 LLC
p297
sa(dp298
g2
I0
sg3
I12
sg4
VDROPCATCH.COM 881 LLC
p299
sa(dp300
g2
I0
sg3
I6
sg4
VENOM459 INCORPORATED
p301
sa(dp302
g2
I0
sg3
I9
sg4
VDROPCATCH.COM 535 LLC
p303
sa(dp304
g2
I0
sg3
I9
sg4
VENOM461 INCORPORATED
p305
sa(dp306
g2
I0
sg3
I44
sg4
VDropCatch.com 700 LLC
p307
sa(dp308
g2
I0
sg3
I6
sg4
VENOM463 INCORPORATED
p309
sa(dp310
g2
I0
sg3
I22
sg4
VDROPCATCH.COM 882 LLC
p311
sa(dp312
g2
I0
sg3
I17
sg4
VDROPCATCH.COM 536 LLC
p313
sa(dp314
g2
I0
sg3
I4
sg4
VENOM465 INCORPORATED
p315
sa(dp316
g2
I0
sg3
I3
sg4
VENOM467 INCORPORATED
p317
sa(dp318
g2
I0
sg3
I11
sg4
VDROPCATCH.COM 883 LLC
p319
sa(dp320
g2
I0
sg3
I47
sg4
VSITENAME.COM LLC
p321
sa(dp322
g2
I0
sg3
I7
sg4
VENOM469 INCORPORATED
p323
sa(dp324
g2
I0
sg3
I17
sg4
VDROPCATCH.COM 537 LLC
p325
sa(dp326
g2
I0
sg3
I6
sg4
VENOM5, INC
p327
sa(dp328
g2
I0
sg3
I7
sg4
VENOM635, INC
p329
sa(dp330
g2
I0
sg3
I18
sg4
VDROPCATCH.COM 884 LLC
p331
sa(dp332
g2
I0
sg3
I6
sg4
VENOM646, INC.
p333
sa(dp334
g2
I0
sg3
I2
sg4
VENOM647, INC.
p335
sa(dp336
g2
I0
sg3
I20
sg4
VDROPCATCH.COM 538 LLC
p337
sa(dp338
g2
I0
sg3
I9
sg4
VENOM650, INC.
p339
sa(dp340
g2
I0
sg3
I16
sg4
VDROPCATCH.COM 885 LLC
p341
sa(dp342
g2
I0
sg3
I3
sg4
VENOM652, INC.
p343
sa(dp344
g2
I0
sg3
I9
sg4
VDROPCATCH.COM 539 LLC
p345
sa(dp346
g2
I0
sg3
I52
sg4
VDropCatch.com 701 LLC
p347
sa(dp348
g2
I0
sg3
I115
sg4
V! #1 HOST GERMANY, INC.
p349
sa(dp350
g2
I0
sg3
I8
sg4
VENOM654, INC.
p351
sa(dp352
g2
I0
sg3
I5
sg4
VENOM655, INC.
p353
sa(dp354
g2
I0
sg3
I14
sg4
VDROPCATCH.COM 886 LLC
p355
sa(dp356
g2
I0
sg3
I6
sg4
VENOM656, INC.
p357
sa(dp358
g2
I0
sg3
I20
sg4
VDROPCATCH.COM 540 LLC
p359
sa(dp360
g2
I0
sg3
I11
sg4
VDROPCATCH.COM 887 LLC
p361
sa(dp362
g2
I1
sg3
I84
sg4
VDropCatch.com 353 LLC
p363
sa(dp364
g2
I0
sg3
I7
sg4
VENOM659, INC.
p365
sa(dp366
g2
I0
sg3
I5
sg4
VDROPCATCH.COM 888 LLC
p367
sa(dp368
g2
I0
sg3
I7
sg4
VENOM661, INC.
p369
sa(dp370
g2
I0
sg3
I10
sg4
VDROPCATCH.COM 541 LLC
p371
sa(dp372
g2
I0
sg3
I3
sg4
VENOM662, INC.
p373
sa(dp374
g2
I0
sg3
I12
sg4
VDROPCATCH.COM 542 LLC
p375
sa(dp376
g2
I0
sg3
I13
sg4
VDROPCATCH.COM 889 LLC
p377
sa(dp378
g2
I0
sg3
I10
sg4
VENOM663, INC.
p379
sa(dp380
g2
I0
sg3
I6
sg4
VDROPCATCH.COM 543 LLC
p381
sa(dp382
g2
I0
sg3
I11
sg4
VDROPCATCH.COM 890 LLC
p383
sa(dp384
g2
I0
sg3
I12
sg4
VENOM666, INC.
p385
sa(dp386
g2
I1
sg3
I52
sg4
VDropCatch.com 702 LLC
p387
sa(dp388
g2
I0
sg3
I5
sg4
VENOM672, INC.
p389
sa(dp390
g2
I0
sg3
I11
sg4
VDROPCATCH.COM 544 LLC
p391
sa(dp392
g2
I0
sg3
I6
sg4
VENOMA1 INC
p393
sa(dp394
g2
I0
sg3
I16
sg4
VDROPCATCH.COM 891 LLC
p395
sa(dp396
g2
I0
sg3
I6
sg4
VENOMATE INC
p397
sa(dp398
g2
I0
sg3
I13
sg4
VDROPCATCH.COM 545 LLC
p399
sa(dp400
g2
I0
sg3
I7
sg4
VENOMAU INC.
p401
sa(dp402
g2
I0
sg3
I4
sg4
VENOMBRE CORPORATION
p403
sa(dp404
g2
I0
sg3
I12
sg4
VDROPCATCH.COM 892 LLC
p405
sa(dp406
g2
I0
sg3
I3
sg4
VENOMEU INC.
p407
sa(dp408
g2
I0
sg3
I4
sg4
VENOMFOR INC
p409
sa(dp410
g2
I0
sg3
I14
sg4
VDROPCATCH.COM 546 LLC
p411
sa(dp412
g2
I0
sg3
I5
sg4
VENOMMX INC.
p413
sa(dp414
g2
I0
sg3
I14
sg4
VDROPCATCH.COM 893 LLC
p415
sa(dp416
g2
I0
sg3
I5
sg4
VENOMNZ INC
p417
sa(dp418
g2
I0
sg3
I137
sg4
VSKYKOMISHDOMAINS.COM LLC
p419
sa(dp420
g2
I0
sg3
I3
sg4
VENOMSKY INC.
p421
sa(dp422
g2
I0
sg3
I48
sg4
VDropCatch.com 703 LLC
p423
sa(dp424
g2
I0
sg3
I77
sg4
VDropCatch.com 354 LLC
p425
sa(dp426
g2
I0
sg3
I23
sg4
VDROPCATCH.COM 547 LLC
p427
sa(dp428
g2
I0
sg3
I14
sg4
VDROPCATCH.COM 894 LLC
p429
sa(dp430
g2
I1
sg3
I228
sg4
VDNC HOLDINGS, INC.
p431
sa(dp432
g2
I0
sg3
I8
sg4
VENOMTEN INC.
p433
sa(dp434
g2
I0
sg3
I5
sg4
VENOMTOO INC
p435
sa(dp436
g2
I0
sg3
I3
sg4
VENOMV INC.
p437
sa(dp438
g2
I0
sg3
I10
sg4
VDROPCATCH.COM 895 LLC
p439
sa(dp440
g2
I0
sg3
I6
sg4
VENOMX INC.
p441
sa(dp442
g2
I0
sg3
I9
sg4
VDROPCATCH.COM 896 LLC
p443
sa(dp444
g2
I0
sg3
I22
sg4
VDROPCATCH.COM 548 LLC
p445
sa(dp446
g2
I0
sg3
I11
sg4
VENTERTAINMENT NAMES, INCORPORATED
p447
sa(dp448
g2
I0
sg3
I3
sg4
VENTORNO DIGITAL, S.A.
p449
sa(dp450
g2
I1
sg3
I12
sg4
VDROPCATCH.COM 549 LLC
p451
sa(dp452
g2
I0
sg3
I21
sg4
VDROPCATCH.COM 897 LLC
p453
sa(dp454
g2
I0
sg3
I47
sg4
VDropCatch.com 355 LLC
p455
sa(dp456
g2
I0
sg3
I17
sg4
VDROPCATCH.COM 550 LLC
p457
sa(dp458
g2
I0
sg3
I50
sg4
VDropCatch.com 704 LLC
p459
sa(dp460
g2
I0
sg3
I9
sg4
VDROPCATCH.COM 898 LLC
p461
sa(dp462
g2
I0
sg3
I10
sg4
VDROPCATCH.COM 551 LLC
p463
sa(dp464
g2
I0
sg3
I16
sg4
VDROPCATCH.COM 899 LLC
p465
sa(dp466
g2
I0
sg3
I73
sg4
VSLAMDUNK DOMAINS LLC
p467
sa(dp468
g2
I0
sg3
I16
sg4
VDROPCATCH.COM 552 LLC
p469
sa(dp470
g2
I0
sg3
I14
sg4
VDROPCATCH.COM 900 LLC
p471
sa(dp472
g2
I0
sg3
I15
sg4
VDROPCATCH.COM 553 LLC
p473
sa(dp474
g2
I0
sg3
I17
sg4
VDROPCATCH.COM 901 LLC
p475
sa(dp476
g2
I0
sg3
I45
sg4
VDropCatch.com 705 LLC
p477
sa(dp478
g2
I0
sg3
I16
sg4
VDROPCATCH.COM 554 LLC
p479
sa(dp480
g2
I0
sg3
I13
sg4
VDROPCATCH.COM 902 LLC
p481
sa(dp482
g2
I0
sg3
I10
sg4
VDROPCATCH.COM 903 LLC
p483
sa(dp484
g2
I0
sg3
I14
sg4
VDROPCATCH.COM 555 LLC
p485
sa(dp486
g2
I0
sg3
I14
sg4
VDROPCATCH.COM 904 LLC
p487
sa(dp488
g2
I0
sg3
I15
sg4
VDROPCATCH.COM 556 LLC
p489
sa(dp490
g2
I0
sg3
I105
sg4
VENTRUST DOMAINS, LLC
p491
sa(dp492
g2
I0
sg3
I92
sg4
VDropCatch.com 356 LLC
p493
sa(dp494
g2
I0
sg3
I54
sg4
VDropCatch.com 706 LLC
p495
sa(dp496
g2
I0
sg3
I15
sg4
VDROPCATCH.COM 905 LLC
p497
sa(dp498
g2
I0
sg3
I9
sg4
VEPAG DOMAINSERVICES GMBH
p499
sa(dp500
g2
I0
sg3
I18
sg4
VDROPCATCH.COM 557 LLC
p501
sa(dp502
g2
I0
sg3
I11
sg4
VDROPCATCH.COM 906 LLC
p503
sa(dp504
g2
I0
sg3
I16
sg4
VDROPCATCH.COM 558 LLC
p505
sa(dp506
g2
I0
sg3
I100
sg4
VSLICEOFHEAVEN DOMAINS, LLC
p507
sa(dp508
g2
I0
sg3
I10
sg4
VDROPCATCH.COM 907 LLC
p509
sa(dp510
g2
I0
sg3
I11
sg4
VDROPCATCH.COM 559 LLC
p511
sa(dp512
g2
I0
sg3
I16
sg4
VDROPCATCH.COM 908 LLC
p513
sa(dp514
g2
I0
sg3
I17
sg4
VDROPCATCH.COM 560 LLC
p515
sa(dp516
g2
I0
sg3
I13
sg4
VDROPCATCH.COM 909 LLC
p517
sa(dp518
g2
I0
sg3
I14
sg4
VDROPCATCH.COM 561 LLC
p519
sa(dp520
g2
I0
sg3
I10
sg4
VDROPCATCH.COM 910 LLC
p521
sa(dp522
g2
I0
sg3
I60
sg4
VDropCatch.com 707 LLC
p523
sa(dp524
g2
I1
sg3
I79
sg4
VDropCatch.com 357 LLC
p525
sa(dp526
g2
I0
sg3
I9
sg4
VDROPCATCH.COM 562 LLC
p527
sa(dp528
g2
I2
sg3
I471
sg4
VInsaneNames LLC
p529
sa(dp530
g2
I0
sg3
I5
sg4
VInstinct Solutions, Inc
p531
sa(dp532
g2
I0
sg3
I21
sg4
VDROPCATCH.COM 911 LLC
p533
sa(dp534
g2
I0
sg3
I13
sg4
VDROPCATCH.COM 563 LLC
p535
sa(dp536
g2
I0
sg3
I13
sg4
VDROPCATCH.COM 564 LLC
p537
sa(dp538
g2
I0
sg3
I17
sg4
VDROPCATCH.COM 912 LLC
p539
sa(dp540
g2
I0
sg3
I85
sg4
VSLOW MOTION DOMAINS LLC
p541
sa(dp542
g2
I0
sg3
I9
sg4
VDROPCATCH.COM 913 LLC
p543
sa(dp544
g2
I0
sg3
I40
sg4
VDropCatch.com 708 LLC
p545
sa(dp546
g2
I1
sg3
I12
sg4
VDROPCATCH.COM 565 LLC
p547
sa(dp548
g2
I0
sg3
I18
sg4
VDROPCATCH.COM 914 LLC
p549
sa(dp550
g2
I0
sg3
I18
sg4
VDROPCATCH.COM 566 LLC
p551
sa(dp552
g2
I0
sg3
I15
sg4
VDROPCATCH.COM 915 LLC
p553
sa(dp554
g2
I0
sg3
I66
sg4
VDropCatch.com 358 LLC
p555
sa(dp556
g2
I0
sg3
I16
sg4
VDROPCATCH.COM 567 LLC
p557
sa(dp558
g2
I0
sg3
I38
sg4
VDropCatch.com 709 LLC
p559
sa(dp560
g2
I0
sg3
I14
sg4
VDROPCATCH.COM 568 LLC
p561
sa(dp562
g2
I0
sg3
I21
sg4
VDROPCATCH.COM 916 LLC
p563
sa(dp564
g2
I2
sg3
I403
sg4
V! #1 HOST ISRAEL, INC.
p565
sa(dp566
g2
I0
sg3
I16
sg4
VDROPCATCH.COM 569 LLC
p567
sa(dp568
g2
I0
sg3
I19
sg4
VDROPCATCH.COM 917 LLC
p569
sa(dp570
g2
I0
sg3
I77
sg4
VSLOW PUTT DOMAINS LLC
p571
sa(dp572
g2
I0
sg3
I14
sg4
VDROPCATCH.COM 570 LLC
p573
sa(dp574
g2
I0
sg3
I12
sg4
VDROPCATCH.COM 918 LLC
p575
sa(dp576
g2
I0
sg3
I5
sg4
VDROPCATCH.COM 571 LLC
p577
sa(dp578
g2
I0
sg3
I6
sg4
VSMALL BUSINESS NAMES AND CERTS, INCORPORATED.
p579
sa(dp580
g2
I0
sg3
I50
sg4
VDropCatch.com 710 LLC
p581
sa(dp582
g2
I0
sg3
I14
sg4
VDROPCATCH.COM 919 LLC
p583
sa(dp584
g2
I0
sg3
I18
sg4
VDROPCATCH.COM 572 LLC
p585
sa(dp586
g2
I0
sg3
I13
sg4
VDROPCATCH.COM 573 LLC
p587
sa(dp588
g2
I0
sg3
I20
sg4
VDROPCATCH.COM 920 LLC
p589
sa(dp590
g2
I0
sg3
I80
sg4
VDropCatch.com 359 LLC
p591
sa(dp592
g2
I0
sg3
I12
sg4
VDROPCATCH.COM 921 LLC
p593
sa(dp594
g2
I0
sg3
I17
sg4
VDROPCATCH.COM 574 LLC
p595
sa(dp596
g2
I0
sg3
I13
sg4
VDROPCATCH.COM 575 LLC
p597
sa(dp598
g2
I0
sg3
I18
sg4
VDROPCATCH.COM 922 LLC
p599
sa(dp600
g2
I0
sg3
I71
sg4
VSNAG YOUR NAME LLC
p601
sa(dp602
g2
I0
sg3
I9
sg4
VDROPCATCH.COM 923 LLC
p603
sa(dp604
g2
I0
sg3
I66
sg4
VDropCatch.com 711 LLC
p605
sa(dp606
g2
I0
sg3
I16
sg4
VDROPCATCH.COM 576 LLC
p607
sa(dp608
g2
I0
sg3
I11
sg4
VDROPCATCH.COM 924 LLC
p609
sa(dp610
g2
I0
sg3
I15
sg4
VDROPCATCH.COM 577 LLC
p611
sa(dp612
g2
I0
sg3
I15
sg4
VDROPCATCH.COM 925 LLC
p613
sa(dp614
g2
I0
sg3
I130
sg4
V! #1 HOST JAPAN, INC.
p615
sa(dp616
g2
I0
sg3
I70
sg4
VDropCatch.com 360 LLC
p617
sa(dp618
g2
I0
sg3
I6
sg4
VDROPCATCH.COM 926 LLC
p619
sa(dp620
g2
I0
sg3
I16
sg4
VDROPCATCH.COM 578 LLC
p621
sa(dp622
g2
I0
sg3
I12
sg4
VDROPCATCH.COM 927 LLC
p623
sa(dp624
g2
I0
sg3
I47
sg4
VDropCatch.com 712 LLC
p625
sa(dp626
g2
I5
sg3
I892
sg4
VNameSay LLC
p627
sa(dp628
g2
I0
sg3
I13
sg4
VDROPCATCH.COM 928 LLC
p629
sa(dp630
g2
I0
sg3
I14
sg4
VDROPCATCH.COM 579 LLC
p631
sa(dp632
g2
I0
sg3
I11
sg4
VDROPCATCH.COM 580 LLC
p633
sa(dp634
g2
I0
sg3
I20
sg4
VDROPCATCH.COM 929 LLC
p635
sa(dp636
g2
I0
sg3
I17
sg4
VDROPCATCH.COM 581 LLC
p637
sa(dp638
g2
I0
sg3
I38
sg4
VDropCatch.com 713 LLC
p639
sa(dp640
g2
I0
sg3
I15
sg4
VDROPCATCH.COM 930 LLC
p641
sa(dp642
g2
I0
sg3
I16
sg4
VDROPCATCH.COM 582 LLC
p643
sa(dp644
g2
I0
sg3
I17
sg4
VDROPCATCH.COM 931 LLC
p645
sa(dp646
g2
I1
sg3
I15
sg4
VDROPCATCH.COM 583 LLC
p647
sa(dp648
g2
I0
sg3
I86
sg4
VDropCatch.com 361 LLC
p649
sa(dp650
g2
I0
sg3
I15
sg4
VDROPCATCH.COM 932 LLC
p651
sa(dp652
g2
I1
sg3
I120
sg4
VSNAPPYREGISTRAR.COM LLC
p653
sa(dp654
g2
I0
sg3
I44
sg4
VDropCatch.com 714 LLC
p655
sa(dp656
g2
I0
sg3
I21
sg4
VDROPCATCH.COM 584 LLC
p657
sa(dp658
g2
I0
sg3
I15
sg4
VDROPCATCH.COM 933 LLC
p659
sa(dp660
g2
I0
sg3
I118
sg4
V! #1 HOST KOREA, INC.
p661
sa(dp662
g2
I0
sg3
I13
sg4
VDROPCATCH.COM 934 LLC
p663
sa(dp664
g2
I0
sg3
I19
sg4
VDROPCATCH.COM 585 LLC
p665
sa(dp666
g2
I0
sg3
I5
sg4
V! #1 Host Australia, Inc.
p667
sa(dp668
g2
I0
sg3
I14
sg4
VDROPCATCH.COM 935 LLC
p669
sa(dp670
g2
I0
sg3
I10
sg4
V! #1 Host Canada, Inc.
p671
sa(dp672
g2
I0
sg3
I4
sg4
V! #1 Host China, Inc.
p673
sa(dp674
g2
I0
sg3
I41
sg4
VDropCatch.com 715 LLC
p675
sa(dp676
g2
I0
sg3
I19
sg4
VDROPCATCH.COM 586 LLC
p677
sa(dp678
g2
I0
sg3
I7
sg4
V! #1 Host Germany, Inc.
p679
sa(dp680
g2
I0
sg3
I17
sg4
VDROPCATCH.COM 936 LLC
p681
sa(dp682
g2
I0
sg3
I7
sg4
V! #1 Host Israel, Inc.
p683
sa(dp684
g2
I1
sg3
I67
sg4
VDropCatch.com 362 LLC
p685
sa(dp686
g2
I0
sg3
I16
sg4
VDROPCATCH.COM 587 LLC
p687
sa(dp688
g2
I0
sg3
I5
sg4
V! #1 Host Japan, Inc.
p689
sa(dp690
g2
I1
sg3
I69
sg4
VSNAPSOURCE LLC
p691
sa(dp692
g2
I0
sg3
I10
sg4
V! #1 Host Korea, Inc.
p693
sa(dp694
g2
I0
sg3
I16
sg4
VDROPCATCH.COM 588 LLC
p695
sa(dp696
g2
I0
sg3
I21
sg4
VDROPCATCH.COM 937 LLC
p697
sa(dp698
g2
I0
sg3
I10
sg4
VDROPCATCH.COM 938 LLC
p699
sa(dp700
g2
I0
sg3
I21
sg4
VDROPCATCH.COM 589 LLC
p701
sa(dp702
g2
I1
sg3
I54
sg4
VDropCatch.com 716 LLC
p703
sa(dp704
g2
I0
sg3
I28
sg4
V!# NO1 REGISTRAR, LLC
p705
sa(dp706
g2
I0
sg3
I15
sg4
VDROPCATCH.COM 939 LLC
p707
sa(dp708
g2
I0
sg3
I19
sg4
VDROPCATCH.COM 590 LLC
p709
sa(dp710
g2
I0
sg3
I14
sg4
VDROPCATCH.COM 940 LLC
p711
sa(dp712
g2
I3
sg3
I64
sg4
VDropCatch.com 363 LLC
p713
sa(dp714
g2
I0
sg3
I14
sg4
VDROPCATCH.COM 591 LLC
p715
sa(dp716
g2
I0
sg3
I11
sg4
VDROPCATCH.COM 941 LLC
p717
sa(dp718
g2
I0
sg3
I27
sg4
V!#No1Registrar LLC
p719
sa(dp720
g2
I1
sg3
I7
sg4
V#1 Internet services International, Inc. DBA (1isi)
p721
sa(dp722
g2
I0
sg3
I3
sg4
V$$$ PRIVATE LABEL INTERNET SERVICE KIOSK, INC. .DBA PLISK.COM
p723
sa(dp724
g2
I0
sg3
I13
sg4
VDROPCATCH.COM 942 LLC
p725
sa(dp726
g2
I0
sg3
I13
sg4
VDROPCATCH.COM 592 LLC
p727
sa(dp728
g2
I0
sg3
I48
sg4
VDropCatch.com 717 LLC
p729
sa(dp730
g2
I1
sg3
I16
sg4
V$$$ Private Label Internet Service Kiosk Inc DBA plisk.com
p731
sa(dp732
g2
I0
sg3
I16
sg4
VDROPCATCH.COM 593 LLC
p733
sa(dp734
g2
I0
sg3
I18
sg4
VDROPCATCH.COM 943 LLC
p735
sa(dp736
g2
I0
sg3
I11
sg4
VDROPCATCH.COM 944 LLC
p737
sa(dp738
g2
I0
sg3
I17
sg4
VDROPCATCH.COM 594 LLC
p739
sa(dp740
g2
I0
sg3
I8
sg4
VDROPCATCH.COM 945 LLC
p741
sa(dp742
g2
I0
sg3
I114
sg4
VSNOQULAMIEDOMAINS.COM LLC
p743
sa(dp744
g2
I0
sg3
I10
sg4
VDROPCATCH.COM 946 LLC
p745
sa(dp746
g2
I0
sg3
I15
sg4
VDROPCATCH.COM 595 LLC
p747
sa(dp748
g2
I0
sg3
I48
sg4
VDropCatch.com 718 LLC
p749
sa(dp750
g2
I0
sg3
I10
sg4
VDROPCATCH.COM 947 LLC
p751
sa(dp752
g2
I2
sg3
I72
sg4
VDropCatch.com 364 LLC
p753
sa(dp754
g2
I0
sg3
I8
sg4
VDROPCATCH.COM 948 LLC
p755
sa(dp756
g2
I0
sg3
I21
sg4
VDROPCATCH.COM 596 LLC
p757
sa(dp758
g2
I0
sg3
I17
sg4
VDROPCATCH.COM 597 LLC
p759
sa(dp760
g2
I0
sg3
I23
sg4
VDROPCATCH.COM 949 LLC
p761
sa(dp762
g2
I17
sg3
I77
sg4
V007NAMES INC.
p763
sa(dp764
g2
I1
sg3
I1
sg4
V007NAMES, INC.
p765
sa(dp766
g2
I0
sg3
I48
sg4
VDropCatch.com 719 LLC
p767
sa(dp768
g2
I0
sg3
I1
sg4
V0101 INTERNET, INC.
p769
sa(dp770
g2
I0
sg3
I12
sg4
VDROPCATCH.COM 950 LLC
p771
sa(dp772
g2
I0
sg3
I20
sg4
VDROPCATCH.COM 598 LLC
p773
sa(dp774
g2
I0
sg3
I12
sg4
VDROPCATCH.COM 951 LLC
p775
sa(dp776
g2
I0
sg3
I12
sg4
VDROPCATCH.COM 599 LLC
p777
sa(dp778
g2
I0
sg3
I12
sg4
VDROPCATCH.COM 952 LLC
p779
sa(dp780
g2
I0
sg3
I14
sg4
VDROPCATCH.COM 600 LLC
p781
sa(dp782
g2
I2
sg3
I94
sg4
VSOARING EAGLE DOMAINS, LLC
p783
sa(dp784
g2
I0
sg3
I77
sg4
VDropCatch.com 365 LLC
p785
sa(dp786
g2
I1
sg3
I15
sg4
VDROPCATCH.COM 953 LLC
p787
sa(dp788
g2
I0
sg3
I16
sg4
VDROPCATCH.COM 601 LLC
p789
sa(dp790
g2
I0
sg3
I18
sg4
VDROPCATCH.COM 954 LLC
p791
sa(dp792
g2
I0
sg3
I58
sg4
VDropCatch.com 720 LLC
p793
sa(dp794
g2
I0
sg3
I14
sg4
VDROPCATCH.COM 602 LLC
p795
sa(dp796
g2
I0
sg3
I11
sg4
VDROPCATCH.COM 955 LLC
p797
sa(dp798
g2
I0
sg3
I13
sg4
VDROPCATCH.COM 956 LLC
p799
sa(dp800
g2
I0
sg3
I30
sg4
VDROPCATCH.COM 603 LLC
p801
sa(dp802
g2
I0
sg3
I15
sg4
VDROPCATCH.COM 957 LLC
p803
sa(dp804
g2
I0
sg3
I71
sg4
VDropCatch.com 366 LLC
p805
sa(dp806
g2
I0
sg3
I13
sg4
VDROPCATCH.COM 604 LLC
p807
sa(dp808
g2
I0
sg3
I74
sg4
VSOLDIEROFONEDOMAINS.COM, LLC
p809
sa(dp810
g2
I0
sg3
I2
sg4
VSOLUCIONES CORPORATIVAS IP, SL
p811
sa(dp812
g2
I0
sg3
I13
sg4
VDROPCATCH.COM 958 LLC
p813
sa(dp814
g2
I1
sg3
I54
sg4
VDropCatch.com 721 LLC
p815
sa(dp816
g2
I0
sg3
I18
sg4
VDROPCATCH.COM 605 LLC
p817
sa(dp818
g2
I0
sg3
I13
sg4
VDROPCATCH.COM 959 LLC
p819
sa(dp820
g2
I0
sg3
I15
sg4
VDROPCATCH.COM 606 LLC
p821
sa(dp822
g2
I0
sg3
I15
sg4
VDROPCATCH.COM 960 LLC
p823
sa(dp824
g2
I0
sg3
I8
sg4
VDROPCATCH.COM 961 LLC
p825
sa(dp826
g2
I0
sg3
I17
sg4
VDROPCATCH.COM 607 LLC
p827
sa(dp828
g2
I0
sg3
I15
sg4
VDROPCATCH.COM 962 LLC
p829
sa(dp830
g2
I0
sg3
I62
sg4
VDropCatch.com 722 LLC
p831
sa(dp832
g2
I0
sg3
I16
sg4
VDROPCATCH.COM 608 LLC
p833
sa(dp834
g2
I0
sg3
I74
sg4
VDropCatch.com 367 LLC
p835
sa(dp836
g2
I3
sg3
I815
sg4
VEPAG Domainservices GmbH
p837
sa(dp838
g2
I0
sg3
I10
sg4
VDROPCATCH.COM 609 LLC
p839
sa(dp840
g2
I0
sg3
I18
sg4
VDROPCATCH.COM 963 LLC
p841
sa(dp842
g2
I0
sg3
I11
sg4
VDROPCATCH.COM 610 LLC
p843
sa(dp844
g2
I0
sg3
I13
sg4
VDROPCATCH.COM 964 LLC
p845
sa(dp846
g2
I0
sg3
I13
sg4
VDROPCATCH.COM 611 LLC
p847
sa(dp848
g2
I1
sg3
I96
sg4
VSOURCED DOMAINS, LLC
p849
sa(dp850
g2
I1
sg3
I16
sg4
VDROPCATCH.COM 965 LLC
p851
sa(dp852
g2
I0
sg3
I50
sg4
VDropCatch.com 723 LLC
p853
sa(dp854
g2
I0
sg3
I19
sg4
VDROPCATCH.COM 612 LLC
p855
sa(dp856
g2
I0
sg3
I15
sg4
VDROPCATCH.COM 966 LLC
p857
sa(dp858
g2
I0
sg3
I55
sg4
VDropCatch.com 368 LLC
p859
sa(dp860
g2
I0
sg3
I11
sg4
VDROPCATCH.COM 967 LLC
p861
sa(dp862
g2
I0
sg3
I6
sg4
VDROPCATCH.COM 968 LLC
p863
sa(dp864
g2
I0
sg3
I26
sg4
VDROPCATCH.COM 613 LLC
p865
sa(dp866
g2
I0
sg3
I14
sg4
VDROPCATCH.COM 969 LLC
p867
sa(dp868
g2
I0
sg3
I17
sg4
VDROPCATCH.COM 614 LLC
p869
sa(dp870
g2
I1
sg3
I49
sg4
VDropCatch.com 724 LLC
p871
sa(dp872
g2
I0
sg3
I20
sg4
VDROPCATCH.COM 970 LLC
p873
sa(dp874
g2
I0
sg3
I74
sg4
VSOUTHNAMES INC.
p875
sa(dp876
g2
I0
sg3
I22
sg4
VDROPCATCH.COM 615 LLC
p877
sa(dp878
g2
I0
sg3
I22
sg4
VDROPCATCH.COM 971 LLC
p879
sa(dp880
g2
I0
sg3
I11
sg4
VDROPCATCH.COM 616 LLC
p881
sa(dp882
g2
I1
sg3
I70
sg4
VDropCatch.com 369 LLC
p883
sa(dp884
g2
I0
sg3
I11
sg4
VDROPCATCH.COM 617 LLC
p885
sa(dp886
g2
I0
sg3
I15
sg4
VDROPCATCH.COM 972 LLC
p887
sa(dp888
g2
I0
sg3
I46
sg4
VDropCatch.com 725 LLC
p889
sa(dp890
g2
I0
sg3
I19
sg4
VDROPCATCH.COM 618 LLC
p891
sa(dp892
g2
I0
sg3
I21
sg4
VDROPCATCH.COM 973 LLC
p893
sa(dp894
g2
I0
sg3
I10
sg4
VDROPCATCH.COM 974 LLC
p895
sa(dp896
g2
I0
sg3
I22
sg4
VDROPCATCH.COM 619 LLC
p897
sa(dp898
g2
I0
sg3
I11
sg4
VDROPCATCH.COM 975 LLC
p899
sa(dp900
g2
I0
sg3
I41
sg4
VDropCatch.com 726 LLC
p901
sa(dp902
g2
I0
sg3
I60
sg4
VDropCatch.com 370 LLC
p903
sa(dp904
g2
I20
sg3
I906
sg4
VInstra Corporation Pty Ltd.
p905
sa(dp906
g2
I0
sg3
I10
sg4
VDROPCATCH.COM 976 LLC
p907
sa(dp908
g2
I0
sg3
I18
sg4
VDROPCATCH.COM 620 LLC
p909
sa(dp910
g2
I1
sg3
I11
sg4
VDROPCATCH.COM 977 LLC
p911
sa(dp912
g2
I0
sg3
I15
sg4
VDROPCATCH.COM 621 LLC
p913
sa(dp914
g2
I0
sg3
I21
sg4
VDROPCATCH.COM 978 LLC
p915
sa(dp916
g2
I0
sg3
I18
sg4
VDROPCATCH.COM 622 LLC
p917
sa(dp918
g2
I0
sg3
I134
sg4
VSOYOUWANTADOMAIN.COM LLC
p919
sa(dp920
g2
I1
sg3
I51
sg4
VDropCatch.com 727 LLC
p921
sa(dp922
g2
I0
sg3
I11
sg4
VDROPCATCH.COM 979 LLC
p923
sa(dp924
g2
I0
sg3
I14
sg4
VDROPCATCH.COM 623 LLC
p925
sa(dp926
g2
I0
sg3
I9
sg4
VDROPCATCH.COM 980 LLC
p927
sa(dp928
g2
I0
sg3
I12
sg4
VDROPCATCH.COM 624 LLC
p929
sa(dp930
g2
I0
sg3
I73
sg4
VDropCatch.com 371 LLC
p931
sa(dp932
g2
I0
sg3
I20
sg4
VDROPCATCH.COM 981 LLC
p933
sa(dp934
g2
I0
sg3
I12
sg4
VDROPCATCH.COM 625 LLC
p935
sa(dp936
g2
I0
sg3
I10
sg4
VDROPCATCH.COM 626 LLC
p937
sa(dp938
g2
I0
sg3
I17
sg4
VDROPCATCH.COM 982 LLC
p939
sa(dp940
g2
I0
sg3
I50
sg4
VDropCatch.com 728 LLC
p941
sa(dp942
g2
I0
sg3
I20
sg4
VDROPCATCH.COM 627 LLC
p943
sa(dp944
g2
I0
sg3
I13
sg4
VDROPCATCH.COM 983 LLC
p945
sa(dp946
g2
I0
sg3
I11
sg4
VDROPCATCH.COM 628 LLC
p947
sa(dp948
g2
I1
sg3
I9
sg4
VDROPCATCH.COM 984 LLC
p949
sa(dp950
g2
I0
sg3
I60
sg4
VDropCatch.com 372 LLC
p951
sa(dp952
g2
I1
sg3
I12
sg4
VDROPCATCH.COM 985 LLC
p953
sa(dp954
g2
I0
sg3
I20
sg4
VDROPCATCH.COM 629 LLC
p955
sa(dp956
g2
I0
sg3
I10
sg4
VDROPCATCH.COM 986 LLC
p957
sa(dp958
g2
I1
sg3
I98
sg4
VSQUIDSAILERDOMAINS.COM, LLC
p959
sa(dp960
g2
I1
sg3
I15
sg4
VDROPCATCH.COM 630 LLC
p961
sa(dp962
g2
I0
sg3
I7
sg4
VSSSASSS, INCORPORATED
p963
sa(dp964
g2
I0
sg3
I14
sg4
VDROPCATCH.COM 987 LLC
p965
sa(dp966
g2
I0
sg3
I65
sg4
VDropCatch.com 729 LLC
p967
sa(dp968
g2
I0
sg3
I14
sg4
VDROPCATCH.COM 631 LLC
p969
sa(dp970
g2
I0
sg3
I19
sg4
VDROPCATCH.COM 988 LLC
p971
sa(dp972
g2
I0
sg3
I11
sg4
VDROPCATCH.COM 632 LLC
p973
sa(dp974
g2
I0
sg3
I10
sg4
VDROPCATCH.COM 989 LLC
p975
sa(dp976
g2
I0
sg3
I14
sg4
VDROPCATCH.COM 633 LLC
p977
sa(dp978
g2
I0
sg3
I8
sg4
VDROPCATCH.COM 990 LLC
p979
sa(dp980
g2
I0
sg3
I62
sg4
VDropCatch.com 373 LLC
p981
sa(dp982
g2
I2
sg3
I193
sg4
VInterdominios, Inc.
p983
sa(dp984
g2
I0
sg3
I8
sg4
VDROPCATCH.COM 991 LLC
p985
sa(dp986
g2
I7
sg3
I876
sg4
VNameSector LLC
p987
sa(dp988
g2
I1
sg3
I8
sg4
VInterlakenames.com LLC
p989
sa(dp990
g2
I0
sg3
I49
sg4
VDropCatch.com 730 LLC
p991
sa(dp992
g2
I0
sg3
I16
sg4
VDROPCATCH.COM 634 LLC
p993
sa(dp994
g2
I0
sg3
I11
sg4
VDROPCATCH.COM 992 LLC
p995
sa(dp996
g2
I0
sg3
I5
sg4
VInterlink Co., Ltd.
p997
sa(dp998
g2
I0
sg3
I78
sg4
VSTERLING DOMAINS LLC
p999
sa(dp1000
g2
I0
sg3
I15
sg4
VDROPCATCH.COM 635 LLC
p1001
sa(dp1002
g2
I0
sg3
I6
sg4
VSTORK REGISTRY INC.
p1003
sa(dp1004
g2
I0
sg3
I18
sg4
VDROPCATCH.COM 993 LLC
p1005
sa(dp1006
g2
I0
sg3
I7
sg4
VDROPCATCH.COM 636 LLC
p1007
sa(dp1008
g2
I0
sg3
I10
sg4
VDROPCATCH.COM 637 LLC
p1009
sa(dp1010
g2
I0
sg3
I21
sg4
VDROPCATCH.COM 994 LLC
p1011
sa(dp1012
g2
I1
sg3
I63
sg4
VDropCatch.com 374 LLC
p1013
sa(dp1014
g2
I0
sg3
I17
sg4
VDROPCATCH.COM 638 LLC
p1015
sa(dp1016
g2
I0
sg3
I54
sg4
VDropCatch.com 731 LLC
p1017
sa(dp1018
g2
I0
sg3
I17
sg4
VDROPCATCH.COM 995 LLC
p1019
sa(dp1020
g2
I0
sg3
I16
sg4
VDROPCATCH.COM 639 LLC
p1021
sa(dp1022
g2
I0
sg3
I14
sg4
VDROPCATCH.COM 996 LLC
p1023
sa(dp1024
g2
I0
sg3
I19
sg4
VDROPCATCH.COM 640 LLC
p1025
sa(dp1026
g2
I0
sg3
I17
sg4
VDROPCATCH.COM 997 LLC
p1027
sa(dp1028
g2
I0
sg3
I17
sg4
VDROPCATCH.COM 641 LLC
p1029
sa(dp1030
g2
I0
sg3
I84
sg4
VSTRAIGHT 8 DOMAINS, LLC
p1031
sa(dp1032
g2
I0
sg3
I20
sg4
VDROPCATCH.COM 998 LLC
p1033
sa(dp1034
g2
I0
sg3
I16
sg4
VDROPCATCH.COM 642 LLC
p1035
sa(dp1036
g2
I0
sg3
I66
sg4
VDropCatch.com 375 LLC
p1037
sa(dp1038
g2
I0
sg3
I65
sg4
VDropCatch.com 732 LLC
p1039
sa(dp1040
g2
I0
sg3
I15
sg4
VDROPCATCH.COM 643 LLC
p1041
sa(dp1042
g2
I0
sg3
I13
sg4
VDROPCATCH.COM 999 LLC
p1043
sa(dp1044
g2
I0
sg3
I20
sg4
VDROPCATCH.COM 644 LLC
p1045
sa(dp1046
g2
I0
sg3
I12
sg4
VDROPCATCH.COM 645 LLC
p1047
sa(dp1048
g2
I0
sg3
I19
sg4
VDROPCATCH.COM 646 LLC
p1049
sa(dp1050
g2
I0
sg3
I64
sg4
VDropCatch.com 733 LLC
p1051
sa(dp1052
g2
I0
sg3
I72
sg4
VDropCatch.com 376 LLC
p1053
sa(dp1054
g2
I0
sg3
I15
sg4
VDROPCATCH.COM 647 LLC
p1055
sa(dp1056
g2
I0
sg3
I100
sg4
VSTREAMLINE DOMAINS, LLC
p1057
sa(dp1058
g2
I0
sg3
I16
sg4
VDROPCATCH.COM 648 LLC
p1059
sa(dp1060
g2
I0
sg3
I99
sg4
VDROPCATCHING NAMES LLC
p1061
sa(dp1062
g2
I0
sg3
I10
sg4
VDROPCATCH.COM 649 LLC
p1063
sa(dp1064
g2
I0
sg3
I54
sg4
VDropCatch.com 734 LLC
p1065
sa(dp1066
g2
I0
sg3
I15
sg4
VDROPCATCH.COM 650 LLC
p1067
sa(dp1068
g2
I0
sg3
I65
sg4
VDropCatch.com 377 LLC
p1069
sa(dp1070
g2
I0
sg3
I23
sg4
VDROPCATCH.COM 651 LLC
p1071
sa(dp1072
g2
I0
sg3
I16
sg4
VDROPCATCH.COM 652 LLC
p1073
sa(dp1074
g2
I0
sg3
I59
sg4
VDROPEXTRA.COM INC
p1075
sa(dp1076
g2
I0
sg3
I16
sg4
VDROPCATCH.COM 653 LLC
p1077
sa(dp1078
g2
I0
sg3
I87
sg4
VSUGAR CUBE DOMAINS, LLC
p1079
sa(dp1080
g2
I0
sg3
I2
sg4
VSUPER REGISTRY INC.
p1081
sa(dp1082
g2
I0
sg3
I72
sg4
VDropCatch.com 735 LLC
p1083
sa(dp1084
g2
I0
sg3
I18
sg4
VDROPCATCH.COM 654 LLC
p1085
sa(dp1086
g2
I0
sg3
I74
sg4
VDropCatch.com 378 LLC
p1087
sa(dp1088
g2
I0
sg3
I17
sg4
VDROPCATCH.COM 655 LLC
p1089
sa(dp1090
g2
I0
sg3
I34
sg4
VSW HOSTING & COMMUNICATIONS TECHNOLOGIES, S.L.
p1091
sa(dp1092
g2
I0
sg3
I57
sg4
VDROPFALL.COM INC
p1093
sa(dp1094
g2
I0
sg3
I10
sg4
VDROPCATCH.COM 656 LLC
p1095
sa(dp1096
g2
I0
sg3
I49
sg4
VDropCatch.com 736 LLC
p1097
sa(dp1098
g2
I0
sg3
I13
sg4
VDROPCATCH.COM 657 LLC
p1099
sa(dp1100
g2
I0
sg3
I14
sg4
VDROPCATCH.COM 658 LLC
p1101
sa(dp1102
g2
I15
sg3
I367
sg4
VInternet Domain Service BS Corp.
p1103
sa(dp1104
g2
I1
sg3
I13
sg4
VDROPCATCH.COM 659 LLC
p1105
sa(dp1106
g2
I0
sg3
I54
sg4
VDROPHUB.COM INC.
p1107
sa(dp1108
g2
I0
sg3
I16
sg4
VDROPCATCH.COM 660 LLC
p1109
sa(dp1110
g2
I0
sg3
I8
sg4
VDROPCATCH.COM 661 LLC
p1111
sa(dp1112
g2
I0
sg3
I89
sg4
VDropCatch.com 379 LLC
p1113
sa(dp1114
g2
I0
sg3
I57
sg4
VDropCatch.com 737 LLC
p1115
sa(dp1116
g2
I0
sg3
I89
sg4
VSWORDFISH DOMAINS LLC
p1117
sa(dp1118
g2
I0
sg3
I19
sg4
VDROPCATCH.COM 662 LLC
p1119
sa(dp1120
g2
I0
sg3
I15
sg4
VDROPCATCH.COM 663 LLC
p1121
sa(dp1122
g2
I0
sg3
I62
sg4
VDROPJUMP.COM INC.
p1123
sa(dp1124
g2
I0
sg3
I15
sg4
VDROPCATCH.COM 664 LLC
p1125
sa(dp1126
g2
I0
sg3
I3
sg4
VDROPOUTLET, INCORPORATED
p1127
sa(dp1128
g2
I0
sg3
I11
sg4
VDROPCATCH.COM 665 LLC
p1129
sa(dp1130
g2
I0
sg3
I61
sg4
VDropCatch.com 738 LLC
p1131
sa(dp1132
g2
I0
sg3
I66
sg4
VDropCatch.com 380 LLC
p1133
sa(dp1134
g2
I0
sg3
I14
sg4
VDROPCATCH.COM 666 LLC
p1135
sa(dp1136
g2
I0
sg3
I13
sg4
VDROPCATCH.COM 667 LLC
p1137
sa(dp1138
g2
I0
sg3
I16
sg4
VDROPCATCH.COM 668 LLC
p1139
sa(dp1140
g2
I0
sg3
I68
sg4
VDROPSAVE.COM INC
p1141
sa(dp1142
g2
I0
sg3
I58
sg4
VDropCatch.com 739 LLC
p1143
sa(dp1144
g2
I0
sg3
I22
sg4
VDROPCATCH.COM 669 LLC
p1145
sa(dp1146
g2
I0
sg3
I13
sg4
VDROPCATCH.COM 670 LLC
p1147
sa(dp1148
g2
I0
sg3
I81
sg4
VDropCatch.com 381 LLC
p1149
sa(dp1150
g2
I0
sg3
I22
sg4
VDROPCATCH.COM 671 LLC
p1151
sa(dp1152
g2
I0
sg3
I16
sg4
VDROPCATCH.COM 672 LLC
p1153
sa(dp1154
g2
I1
sg3
I60
sg4
VDropCatch.com 740 LLC
p1155
sa(dp1156
g2
I0
sg3
I14
sg4
VDROPCATCH.COM 673 LLC
p1157
sa(dp1158
g2
I0
sg3
I11
sg4
VDROPCATCH.COM 674 LLC
p1159
sa(dp1160
g2
I1
sg3
I63
sg4
VDropCatch.com 382 LLC
p1161
sa(dp1162
g2
I0
sg3
I11
sg4
VDROPCATCH.COM 675 LLC
p1163
sa(dp1164
g2
I0
sg3
I17
sg4
VDROPCATCH.COM 676 LLC
p1165
sa(dp1166
g2
I1
sg3
I116
sg4
VDROPWALK.COM INC.
p1167
sa(dp1168
g2
I1
sg3
I56
sg4
VDropCatch.com 741 LLC
p1169
sa(dp1170
g2
I0
sg3
I18
sg4
VDROPCATCH.COM 677 LLC
p1171
sa(dp1172
g2
I0
sg3
I10
sg4
VDROPCATCH.COM 678 LLC
p1173
sa(dp1174
g2
I0
sg3
I12
sg4
VDROPCATCH.COM 679 LLC
p1175
sa(dp1176
g2
I0
sg3
I70
sg4
VDropCatch.com 383 LLC
p1177
sa(dp1178
g2
I0
sg3
I11
sg4
VDROPCATCH.COM 680 LLC
p1179
sa(dp1180
g2
I0
sg3
I13
sg4
VDROPCATCH.COM 681 LLC
p1181
sa(dp1182
g2
I0
sg3
I70
sg4
VDropCatch.com 742 LLC
p1183
sa(dp1184
g2
I0
sg3
I19
sg4
VDROPCATCH.COM 682 LLC
p1185
sa(dp1186
g2
I0
sg3
I15
sg4
VDROPCATCH.COM 683 LLC
p1187
sa(dp1188
g2
I0
sg3
I100
sg4
VDROPWEEK.COM
p1189
sa(dp1190
g2
I0
sg3
I16
sg4
VDROPCATCH.COM 684 LLC
p1191
sa(dp1192
g2
I0
sg3
I66
sg4
VDropCatch.com 384 LLC
p1193
sa(dp1194
g2
I8
sg3
I374
sg4
VInternet Invest, Ltd. dba Imena.ua
p1195
sa(dp1196
g2
I0
sg3
I16
sg4
VDROPCATCH.COM 685 LLC
p1197
sa(dp1198
g2
I0
sg3
I16
sg4
VInternetters Ltd
p1199
sa(dp1200
g2
I0
sg3
I10
sg4
VIntersolved-Fl.Com, Inc.
p1201
sa(dp1202
g2
I0
sg3
I72
sg4
VDropCatch.com 743 LLC
p1203
sa(dp1204
g2
I0
sg3
I9
sg4
VIntersolved-Hi.Com, Inc.
p1205
sa(dp1206
g2
I0
sg3
I19
sg4
VDROPCATCH.COM 686 LLC
p1207
sa(dp1208
g2
I0
sg3
I11
sg4
VIntersolved-Tn.Com, Inc.
p1209
sa(dp1210
g2
I0
sg3
I13
sg4
VDROPCATCH.COM 687 LLC
p1211
sa(dp1212
g2
I0
sg3
I11
sg4
VDROPCATCH.COM 688 LLC
p1213
sa(dp1214
g2
I0
sg3
I16
sg4
VIntersolved-Tx.Com Inc.
p1215
sa(dp1216
g2
I0
sg3
I11
sg4
VIntersolved-Wa.Com Inc.
p1217
sa(dp1218
g2
I1
sg3
I77
sg4
VDropCatch.com 385 LLC
p1219
sa(dp1220
g2
I0
sg3
I19
sg4
VDROPCATCH.COM 689 LLC
p1221
sa(dp1222
g2
I0
sg3
I10
sg4
VIsaac Newton, LLC
p1223
sa(dp1224
g2
I0
sg3
I9
sg4
VIsoroku Yamamoto, LLC
p1225
sa(dp1226
g2
I0
sg3
I16
sg4
VDROPCATCH.COM 690 LLC
p1227
sa(dp1228
g2
I0
sg3
I67
sg4
VDropCatch.com 744 LLC
p1229
sa(dp1230
g2
I0
sg3
I11
sg4
VDROPCATCH.COM 691 LLC
p1231
sa(dp1232
g2
I0
sg3
I7
sg4
VDROPCATCH.COM 692 LLC
p1233
sa(dp1234
g2
I0
sg3
I127
sg4
VDUCKBILLEDDOMAINS.COM LLC
p1235
sa(dp1236
g2
I0
sg3
I2
sg4
VDWIGHT D. EISENHOWER, LLC
p1237
sa(dp1238
g2
I0
sg3
I20
sg4
VDROPCATCH.COM 693 LLC
p1239
sa(dp1240
g2
I0
sg3
I62
sg4
VDropCatch.com 386 LLC
p1241
sa(dp1242
g2
I0
sg3
I10
sg4
VDROPCATCH.COM 694 LLC
p1243
sa(dp1244
g2
I2
sg3
I496
sg4
VSYNERGY WHOLESALE PTY LTD
p1245
sa(dp1246
g2
I0
sg3
I18
sg4
VDROPCATCH.COM 695 LLC
p1247
sa(dp1248
g2
I0
sg3
I69
sg4
VDropCatch.com 745 LLC
p1249
sa(dp1250
g2
I0
sg3
I13
sg4
VDROPCATCH.COM 696 LLC
p1251
sa(dp1252
g2
I0
sg3
I16
sg4
VDROPCATCH.COM 697 LLC
p1253
sa(dp1254
g2
I0
sg3
I114
sg4
VJARHEADDOMAINS.COM, LLC
p1255
sa(dp1256
g2
I0
sg3
I15
sg4
VDROPCATCH.COM 698 LLC
p1257
sa(dp1258
g2
I0
sg3
I46
sg4
VDropCatch.com 746 LLC
p1259
sa(dp1260
g2
I0
sg3
I69
sg4
VDropCatch.com 387 LLC
p1261
sa(dp1262
g2
I0
sg3
I15
sg4
VDROPCATCH.COM 699 LLC
p1263
sa(dp1264
g2
I0
sg3
I16
sg4
VDROPCATCH.COM 700 LLC
p1265
sa(dp1266
g2
I0
sg3
I14
sg4
VDROPCATCH.COM 701 LLC
p1267
sa(dp1268
g2
I0
sg3
I11
sg4
VDROPCATCH.COM 702 LLC
p1269
sa(dp1270
g2
I0
sg3
I55
sg4
VDropCatch.com 747 LLC
p1271
sa(dp1272
g2
I0
sg3
I15
sg4
VDROPCATCH.COM 703 LLC
p1273
sa(dp1274
g2
I25
sg3
I139
sg4
VDYNADOT LLC
p1275
sa(dp1276
g2
I0
sg3
I78
sg4
VDropCatch.com 388 LLC
p1277
sa(dp1278
g2
I0
sg3
I19
sg4
VDROPCATCH.COM 704 LLC
p1279
sa(dp1280
g2
I0
sg3
I11
sg4
VDROPCATCH.COM 705 LLC
p1281
sa(dp1282
g2
I0
sg3
I42
sg4
VDropCatch.com 748 LLC
p1283
sa(dp1284
g2
I0
sg3
I9
sg4
VDROPCATCH.COM 706 LLC
p1285
sa(dp1286
g2
I0
sg3
I20
sg4
VDROPCATCH.COM 707 LLC
p1287
sa(dp1288
g2
I0
sg3
I17
sg4
VDROPCATCH.COM 708 LLC
p1289
sa(dp1290
g2
I0
sg3
I49
sg4
VDropCatch.com 749 LLC
p1291
sa(dp1292
g2
I0
sg3
I13
sg4
VDROPCATCH.COM 709 LLC
p1293
sa(dp1294
g2
I1
sg3
I74
sg4
VDropCatch.com 389 LLC
p1295
sa(dp1296
g2
I0
sg3
I16
sg4
VDROPCATCH.COM 710 LLC
p1297
sa(dp1298
g2
I0
sg3
I10
sg4
VDROPCATCH.COM 711 LLC
p1299
sa(dp1300
g2
I0
sg3
I9
sg4
VDROPCATCH.COM 712 LLC
p1301
sa(dp1302
g2
I0
sg3
I40
sg4
VDropCatch.com 750 LLC
p1303
sa(dp1304
g2
I0
sg3
I13
sg4
VDROPCATCH.COM 713 LLC
p1305
sa(dp1306
g2
I0
sg3
I17
sg4
VDROPCATCH.COM 714 LLC
p1307
sa(dp1308
g2
I0
sg3
I10
sg4
VDROPCATCH.COM 715 LLC
p1309
sa(dp1310
g2
I0
sg3
I66
sg4
VDropCatch.com 390 LLC
p1311
sa(dp1312
g2
I0
sg3
I15
sg4
VDROPCATCH.COM 716 LLC
p1313
sa(dp1314
g2
I0
sg3
I60
sg4
VDropCatch.com 751 LLC
p1315
sa(dp1316
g2
I0
sg3
I16
sg4
VDROPCATCH.COM 717 LLC
p1317
sa(dp1318
g2
I0
sg3
I17
sg4
VDROPCATCH.COM 718 LLC
p1319
sa(dp1320
g2
I0
sg3
I9
sg4
VDROPCATCH.COM 719 LLC
p1321
sa(dp1322
g2
I1
sg3
I70
sg4
VDropCatch.com 391 LLC
p1323
sa(dp1324
g2
I0
sg3
I46
sg4
VDropCatch.com 752 LLC
p1325
sa(dp1326
g2
I0
sg3
I17
sg4
VDROPCATCH.COM 720 LLC
p1327
sa(dp1328
g2
I1
sg3
I16
sg4
VDROPCATCH.COM 721 LLC
p1329
sa(dp1330
g2
I0
sg3
I14
sg4
VDROPCATCH.COM 722 LLC
p1331
sa(dp1332
g2
I0
sg3
I50
sg4
VDropCatch.com 753 LLC
p1333
sa(dp1334
g2
I0
sg3
I18
sg4
VDROPCATCH.COM 723 LLC
p1335
sa(dp1336
g2
I7
sg3
I415
sg4
VSafenames Ltd
p1337
sa(dp1338
g2
I0
sg3
I17
sg4
VDROPCATCH.COM 724 LLC
p1339
sa(dp1340
g2
I1
sg3
I79
sg4
VDropCatch.com 392 LLC
p1341
sa(dp1342
g2
I0
sg3
I9
sg4
VSammamishdomains.com LLC
p1343
sa(dp1344
g2
I0
sg3
I7
sg4
VSantiamdomains.com LLC
p1345
sa(dp1346
g2
I5
sg3
I1948
sg4
V1 API GMBH
p1347
sa(dp1348
g2
I0
sg3
I1
sg4
V1 Domain Source Ltd. dba Domain One Source, Inc.
p1349
sa(dp1350
g2
I0
sg3
I8
sg4
VSavethename.com LLC
p1351
sa(dp1352
g2
I0
sg3
I20
sg4
VDROPCATCH.COM 725 LLC
p1353
sa(dp1354
g2
I0
sg3
I51
sg4
VDropCatch.com 754 LLC
p1355
sa(dp1356
g2
I0
sg3
I11
sg4
VScipio Africanus, LLC
p1357
sa(dp1358
g2
I0
sg3
I14
sg4
VDROPCATCH.COM 726 LLC
p1359
sa(dp1360
g2
I0
sg3
I7
sg4
VSecondround Names LLC
p1361
sa(dp1362
g2
I0
sg3
I1
sg4
VSecura GmbH
p1363
sa(dp1364
g2
I0
sg3
I1
sg4
VService Development Center of the State Commission for Public Sector Reform
p1365
sa(dp1366
g2
I0
sg3
I21
sg4
VDROPCATCH.COM 727 LLC
p1367
sa(dp1368
g2
I0
sg3
I18
sg4
VDROPCATCH.COM 728 LLC
p1369
sa(dp1370
g2
I0
sg3
I49
sg4
VDropCatch.com 755 LLC
p1371
sa(dp1372
g2
I0
sg3
I78
sg4
VDropCatch.com 393 LLC
p1373
sa(dp1374
g2
I0
sg3
I15
sg4
VDROPCATCH.COM 729 LLC
p1375
sa(dp1376
g2
I0
sg3
I15
sg4
VDROPCATCH.COM 730 LLC
p1377
sa(dp1378
g2
I0
sg3
I42
sg4
VDropCatch.com 756 LLC
p1379
sa(dp1380
g2
I0
sg3
I16
sg4
VDROPCATCH.COM 731 LLC
p1381
sa(dp1382
g2
I0
sg3
I11
sg4
VDROPCATCH.COM 732 LLC
p1383
sa(dp1384
g2
I0
sg3
I12
sg4
VDROPCATCH.COM 733 LLC
p1385
sa(dp1386
g2
I0
sg3
I73
sg4
VDropCatch.com 394 LLC
p1387
sa(dp1388
g2
I0
sg3
I17
sg4
VDROPCATCH.COM 734 LLC
p1389
sa(dp1390
g2
I0
sg3
I56
sg4
VDropCatch.com 757 LLC
p1391
sa(dp1392
g2
I0
sg3
I13
sg4
VDROPCATCH.COM 735 LLC
p1393
sa(dp1394
g2
I0
sg3
I21
sg4
VDROPCATCH.COM 736 LLC
p1395
sa(dp1396
g2
I0
sg3
I20
sg4
VDROPCATCH.COM 737 LLC
p1397
sa(dp1398
g2
I0
sg3
I70
sg4
VDropCatch.com 395 LLC
p1399
sa(dp1400
g2
I0
sg3
I57
sg4
VDropCatch.com 758 LLC
p1401
sa(dp1402
g2
I0
sg3
I19
sg4
VDROPCATCH.COM 738 LLC
p1403
sa(dp1404
g2
I0
sg3
I21
sg4
VDROPCATCH.COM 739 LLC
p1405
sa(dp1406
g2
I0
sg3
I15
sg4
VDROPCATCH.COM 740 LLC
p1407
sa(dp1408
g2
I0
sg3
I11
sg4
VDROPCATCH.COM 741 LLC
p1409
sa(dp1410
g2
I0
sg3
I57
sg4
VDropCatch.com 759 LLC
p1411
sa(dp1412
g2
I0
sg3
I69
sg4
VDropCatch.com 396 LLC
p1413
sa(dp1414
g2
I0
sg3
I20
sg4
VDROPCATCH.COM 742 LLC
p1415
sa(dp1416
g2
I0
sg3
I21
sg4
VDROPCATCH.COM 743 LLC
p1417
sa(dp1418
g2
I0
sg3
I59
sg4
VDropCatch.com 760 LLC
p1419
sa(dp1420
g2
I0
sg3
I18
sg4
VDROPCATCH.COM 744 LLC
p1421
sa(dp1422
g2
I47
sg3
I1641
sg4
VNameSilo, LLC
p1423
sa(dp1424
g2
I0
sg3
I4
sg4
VNameSnapper LLC
p1425
sa(dp1426
g2
I0
sg3
I58
sg4
VDropCatch.com 397 LLC
p1427
sa(dp1428
g2
I0
sg3
I13
sg4
VDROPCATCH.COM 745 LLC
p1429
sa(dp1430
g2
I0
sg3
I13
sg4
VDROPCATCH.COM 746 LLC
p1431
sa(dp1432
g2
I1
sg3
I19
sg4
VDROPCATCH.COM 747 LLC
p1433
sa(dp1434
g2
I0
sg3
I57
sg4
VDropCatch.com 761 LLC
p1435
sa(dp1436
g2
I0
sg3
I20
sg4
VDROPCATCH.COM 748 LLC
p1437
sa(dp1438
g2
I0
sg3
I56
sg4
VDropCatch.com 398 LLC
p1439
sa(dp1440
g2
I0
sg3
I10
sg4
VDROPCATCH.COM 749 LLC
p1441
sa(dp1442
g2
I0
sg3
I16
sg4
VDROPCATCH.COM 750 LLC
p1443
sa(dp1444
g2
I0
sg3
I12
sg4
VDROPCATCH.COM 751 LLC
p1445
sa(dp1446
g2
I0
sg3
I11
sg4
VDROPCATCH.COM 752 LLC
p1447
sa(dp1448
g2
I0
sg3
I47
sg4
VDropCatch.com 762 LLC
p1449
sa(dp1450
g2
I0
sg3
I12
sg4
VDROPCATCH.COM 753 LLC
p1451
sa(dp1452
g2
I0
sg3
I11
sg4
VDROPCATCH.COM 754 LLC
p1453
sa(dp1454
g2
I1
sg3
I70
sg4
VDropCatch.com 399 LLC
p1455
sa(dp1456
g2
I0
sg3
I9
sg4
VDROPCATCH.COM 755 LLC
p1457
sa(dp1458
g2
I0
sg3
I9
sg4
VDROPCATCH.COM 756 LLC
p1459
sa(dp1460
g2
I0
sg3
I52
sg4
VDropCatch.com 763 LLC
p1461
sa(dp1462
g2
I0
sg3
I16
sg4
VDROPCATCH.COM 757 LLC
p1463
sa(dp1464
g2
I1
sg3
I49
sg4
VDropCatch.com 400 LLC
p1465
sa(dp1466
g2
I0
sg3
I13
sg4
VDROPCATCH.COM 758 LLC
p1467
sa(dp1468
g2
I0
sg3
I16
sg4
VDROPCATCH.COM 759 LLC
p1469
sa(dp1470
g2
I1
sg3
I45
sg4
VDropCatch.com 764 LLC
p1471
sa(dp1472
g2
I0
sg3
I11
sg4
VDROPCATCH.COM 760 LLC
p1473
sa(dp1474
g2
I0
sg3
I12
sg4
VDROPCATCH.COM 761 LLC
p1475
sa(dp1476
g2
I0
sg3
I13
sg4
VDROPCATCH.COM 762 LLC
p1477
sa(dp1478
g2
I0
sg3
I60
sg4
VDropCatch.com 401 LLC
p1479
sa(dp1480
g2
I0
sg3
I8
sg4
VDROPCATCH.COM 763 LLC
p1481
sa(dp1482
g2
I0
sg3
I45
sg4
VDropCatch.com 765 LLC
p1483
sa(dp1484
g2
I0
sg3
I11
sg4
VDROPCATCH.COM 764 LLC
p1485
sa(dp1486
g2
I0
sg3
I17
sg4
VDROPCATCH.COM 765 LLC
p1487
sa(dp1488
g2
I0
sg3
I14
sg4
VDROPCATCH.COM 766 LLC
p1489
sa(dp1490
g2
I0
sg3
I23
sg4
VDROPCATCH.COM 767 LLC
p1491
sa(dp1492
g2
I1
sg3
I57
sg4
VDropCatch.com 766 LLC
p1493
sa(dp1494
g2
I0
sg3
I76
sg4
VDropCatch.com 402 LLC
p1495
sa(dp1496
g2
I0
sg3
I15
sg4
VDROPCATCH.COM 768 LLC
p1497
sa(dp1498
g2
I0
sg3
I10
sg4
VDROPCATCH.COM 769 LLC
p1499
sa(dp1500
g2
I0
sg3
I15
sg4
VDROPCATCH.COM 770 LLC
p1501
sa(dp1502
g2
I0
sg3
I10
sg4
VDROPCATCH.COM 771 LLC
p1503
sa(dp1504
g2
I1
sg3
I47
sg4
VDropCatch.com 767 LLC
p1505
sa(dp1506
g2
I0
sg3
I60
sg4
VDropCatch.com 403 LLC
p1507
sa(dp1508
g2
I0
sg3
I18
sg4
VDROPCATCH.COM 772 LLC
p1509
sa(dp1510
g2
I0
sg3
I15
sg4
VDROPCATCH.COM 773 LLC
p1511
sa(dp1512
g2
I0
sg3
I9
sg4
VDROPCATCH.COM 774 LLC
p1513
sa(dp1514
g2
I0
sg3
I17
sg4
VDROPCATCH.COM 775 LLC
p1515
sa(dp1516
g2
I0
sg3
I65
sg4
VDropCatch.com 768 LLC
p1517
sa(dp1518
g2
I0
sg3
I14
sg4
VDROPCATCH.COM 776 LLC
p1519
sa(dp1520
g2
I0
sg3
I58
sg4
VDropCatch.com 404 LLC
p1521
sa(dp1522
g2
I0
sg3
I14
sg4
VDROPCATCH.COM 777 LLC
p1523
sa(dp1524
g2
I1
sg3
I15
sg4
VDROPCATCH.COM 778 LLC
p1525
sa(dp1526
g2
I0
sg3
I11
sg4
VDROPCATCH.COM 779 LLC
p1527
sa(dp1528
g2
I0
sg3
I49
sg4
VDropCatch.com 769 LLC
p1529
sa(dp1530
g2
I0
sg3
I15
sg4
VDROPCATCH.COM 780 LLC
p1531
sa(dp1532
g2
I0
sg3
I11
sg4
VDROPCATCH.COM 781 LLC
p1533
sa(dp1534
g2
I0
sg3
I12
sg4
VDROPCATCH.COM 782 LLC
p1535
sa(dp1536
g2
I0
sg3
I72
sg4
VDropCatch.com 405 LLC
p1537
sa(dp1538
g2
I0
sg3
I16
sg4
VDROPCATCH.COM 783 LLC
p1539
sa(dp1540
g2
I1
sg3
I52
sg4
VDropCatch.com 770 LLC
p1541
sa(dp1542
g2
I0
sg3
I18
sg4
VDROPCATCH.COM 784 LLC
p1543
sa(dp1544
g2
I0
sg3
I15
sg4
VDROPCATCH.COM 785 LLC
p1545
sa(dp1546
g2
I0
sg3
I10
sg4
VDROPCATCH.COM 786 LLC
p1547
sa(dp1548
g2
I0
sg3
I11
sg4
VDROPCATCH.COM 787 LLC
p1549
sa(dp1550
g2
I0
sg3
I48
sg4
VDropCatch.com 771 LLC
p1551
sa(dp1552
g2
I1
sg3
I73
sg4
VDropCatch.com 406 LLC
p1553
sa(dp1554
g2
I0
sg3
I30
sg4
VDROPCATCH.COM 788 LLC
p1555
sa(dp1556
g2
I0
sg3
I15
sg4
VDROPCATCH.COM 789 LLC
p1557
sa(dp1558
g2
I1
sg3
I44
sg4
VDropCatch.com 772 LLC
p1559
sa(dp1560
g2
I0
sg3
I18
sg4
VDROPCATCH.COM 790 LLC
p1561
sa(dp1562
g2
I0
sg3
I49
sg4
VDropCatch.com 407 LLC
p1563
sa(dp1564
g2
I3
sg3
I930
sg4
VShanghai Yovole Networks, Inc.
p1565
sa(dp1566
g2
I0
sg3
I5
sg4
VSharkweek Domains  LLC
p1567
sa(dp1568
g2
I0
sg3
I17
sg4
VDROPCATCH.COM 791 LLC
p1569
sa(dp1570
g2
I0
sg3
I10
sg4
VDROPCATCH.COM 792 LLC
p1571
sa(dp1572
g2
I0
sg3
I47
sg4
VDropCatch.com 773 LLC
p1573
sa(dp1574
g2
I0
sg3
I11
sg4
VDROPCATCH.COM 793 LLC
p1575
sa(dp1576
g2
I0
sg3
I14
sg4
VDROPCATCH.COM 794 LLC
p1577
sa(dp1578
g2
I0
sg3
I14
sg4
VDROPCATCH.COM 795 LLC
p1579
sa(dp1580
g2
I0
sg3
I68
sg4
VDropCatch.com 408 LLC
p1581
sa(dp1582
g2
I0
sg3
I44
sg4
VDropCatch.com 774 LLC
p1583
sa(dp1584
g2
I0
sg3
I13
sg4
VDROPCATCH.COM 796 LLC
p1585
sa(dp1586
g2
I7
sg3
I79
sg4
VShenzhen HuLianXianFeng Technology Co.,LTD
p1587
sa(dp1588
g2
I0
sg3
I14
sg4
VDROPCATCH.COM 797 LLC
p1589
sa(dp1590
g2
I0
sg3
I24
sg4
VDROPCATCH.COM 798 LLC
p1591
sa(dp1592
g2
I0
sg3
I53
sg4
VDropCatch.com 775 LLC
p1593
sa(dp1594
g2
I0
sg3
I9
sg4
VDROPCATCH.COM 799 LLC
p1595
sa(dp1596
g2
I0
sg3
I68
sg4
VDropCatch.com 409 LLC
p1597
sa(dp1598
g2
I0
sg3
I16
sg4
VDROPCATCH.COM 800 LLC
p1599
sa(dp1600
g2
I0
sg3
I22
sg4
VDROPCATCH.COM 801 LLC
p1601
sa(dp1602
g2
I0
sg3
I52
sg4
VDropCatch.com 776 LLC
p1603
sa(dp1604
g2
I0
sg3
I15
sg4
VDROPCATCH.COM 802 LLC
p1605
sa(dp1606
g2
I32
sg3
I3830
sg4
VDNC Holdings, Inc.
p1607
sa(dp1608
g2
I0
sg3
I5
sg4
VDNS:NET Internet Service GmbH
p1609
sa(dp1610
g2
I3
sg3
I95
sg4
VShenzhen Internet Works Online Technology Co.,Ltd.( 62.com)
p1611
sa(dp1612
g2
I0
sg3
I1
sg4
VShining Star Domains, LLC
p1613
sa(dp1614
g2
I0
sg3
I13
sg4
VDROPCATCH.COM 803 LLC
p1615
sa(dp1616
g2
I0
sg3
I15
sg4
VDROPCATCH.COM 804 LLC
p1617
sa(dp1618
g2
I0
sg3
I30
sg4
VDNSPOD, INC.
p1619
sa(dp1620
g2
I2
sg3
I71
sg4
VDropCatch.com 410 LLC
p1621
sa(dp1622
g2
I0
sg3
I12
sg4
VDROPCATCH.COM 805 LLC
p1623
sa(dp1624
g2
I1
sg3
I51
sg4
VDropCatch.com 777 LLC
p1625
sa(dp1626
g2
I0
sg3
I16
sg4
VDROPCATCH.COM 806 LLC
p1627
sa(dp1628
g2
I0
sg3
I12
sg4
VDROPCATCH.COM 807 LLC
p1629
sa(dp1630
g2
I0
sg3
I15
sg4
VDROPCATCH.COM 808 LLC
p1631
sa(dp1632
g2
I0
sg3
I17
sg4
VDROPCATCH.COM 809 LLC
p1633
sa(dp1634
g2
I0
sg3
I60
sg4
VDropCatch.com 778 LLC
p1635
sa(dp1636
g2
I0
sg3
I14
sg4
VDROPCATCH.COM 810 LLC
p1637
sa(dp1638
g2
I0
sg3
I92
sg4
VDropCatch.com 411 LLC
p1639
sa(dp1640
g2
I0
sg3
I16
sg4
VDROPCATCH.COM 811 LLC
p1641
sa(dp1642
g2
I0
sg3
I18
sg4
VDROPCATCH.COM 812 LLC
p1643
sa(dp1644
g2
I2
sg3
I938
sg4
VNameStrategies LLC
p1645
sa(dp1646
g2
I0
sg3
I17
sg4
VDROPCATCH.COM 813 LLC
p1647
sa(dp1648
g2
I0
sg3
I66
sg4
VDropCatch.com 779 LLC
p1649
sa(dp1650
g2
I0
sg3
I13
sg4
VDROPCATCH.COM 814 LLC
p1651
sa(dp1652
g2
I1
sg3
I55
sg4
VDropCatch.com 412 LLC
p1653
sa(dp1654
g2
I14
sg3
I171
sg4
VShinjiru MSC Sdn Bhd
p1655
sa(dp1656
g2
I0
sg3
I152
sg4
VDNSPod, Inc.
p1657
sa(dp1658
g2
I0
sg3
I12
sg4
VDROPCATCH.COM 815 LLC
p1659
sa(dp1660
g2
I0
sg3
I15
sg4
VDROPCATCH.COM 816 LLC
p1661
sa(dp1662
g2
I0
sg3
I45
sg4
VDropCatch.com 780 LLC
p1663
sa(dp1664
g2
I0
sg3
I15
sg4
VDROPCATCH.COM 817 LLC
p1665
sa(dp1666
g2
I0
sg3
I15
sg4
VDROPCATCH.COM 818 LLC
p1667
sa(dp1668
g2
I19
sg3
I3068
sg4
VEPIK, INC.
p1669
sa(dp1670
g2
I0
sg3
I15
sg4
VDROPCATCH.COM 819 LLC
p1671
sa(dp1672
g2
I2
sg3
I71
sg4
VDropCatch.com 413 LLC
p1673
sa(dp1674
g2
I0
sg3
I17
sg4
VDROPCATCH.COM 820 LLC
p1675
sa(dp1676
g2
I0
sg3
I50
sg4
VDropCatch.com 781 LLC
p1677
sa(dp1678
g2
I0
sg3
I14
sg4
VDROPCATCH.COM 821 LLC
p1679
sa(dp1680
g2
I0
sg3
I8
sg4
VDROPCATCH.COM 822 LLC
p1681
sa(dp1682
g2
I0
sg3
I102
sg4
VDOMAIN ALA CARTE, LLC
p1683
sa(dp1684
g2
I0
sg3
I15
sg4
VDROPCATCH.COM 823 LLC
p1685
sa(dp1686
g2
I0
sg3
I16
sg4
VDROPCATCH.COM 824 LLC
p1687
sa(dp1688
g2
I0
sg3
I68
sg4
VDropCatch.com 414 LLC
p1689
sa(dp1690
g2
I0
sg3
I10
sg4
VDROPCATCH.COM 825 LLC
p1691
sa(dp1692
g2
I0
sg3
I57
sg4
VDropCatch.com 782 LLC
p1693
sa(dp1694
g2
I63
sg3
I57
sg4
VERANET INTERNATIONAL LIMITED
p1695
sa(dp1696
g2
I0
sg3
I17
sg4
VDROPCATCH.COM 826 LLC
p1697
sa(dp1698
g2
I1
sg3
I16
sg4
VDROPCATCH.COM 827 LLC
p1699
sa(dp1700
g2
I0
sg3
I73
sg4
VDOMAIN BAZAAR LLC
p1701
sa(dp1702
g2
I0
sg3
I4
sg4
VDOMAIN CENTRAL AUSTRALIA PTY LTD.
p1703
sa(dp1704
g2
I0
sg3
I48
sg4
VDropCatch.com 783 LLC
p1705
sa(dp1706
g2
I0
sg3
I19
sg4
VDROPCATCH.COM 828 LLC
p1707
sa(dp1708
g2
I0
sg3
I15
sg4
VDROPCATCH.COM 829 LLC
p1709
sa(dp1710
g2
I0
sg3
I78
sg4
VDropCatch.com 415 LLC
p1711
sa(dp1712
g2
I0
sg3
I11
sg4
VDROPCATCH.COM 830 LLC
p1713
sa(dp1714
g2
I16
sg3
I234
sg4
VSibername Internet and Software Technologies Inc
p1715
sa(dp1716
g2
I0
sg3
I14
sg4
VDROPCATCH.COM 831 LLC
p1717
sa(dp1718
g2
I0
sg3
I92
sg4
VETHOS DOMAINS, LLC
p1719
sa(dp1720
g2
I0
sg3
I1
sg4
VEU TECHNOLOGY (HK) LIMITED
p1721
sa(dp1722
g2
I0
sg3
I20
sg4
VDROPCATCH.COM 832 LLC
p1723
sa(dp1724
g2
I1
sg3
I57
sg4
VDropCatch.com 784 LLC
p1725
sa(dp1726
g2
I0
sg3
I13
sg4
VDROPCATCH.COM 833 LLC
p1727
sa(dp1728
g2
I0
sg3
I66
sg4
VDropCatch.com 416 LLC
p1729
sa(dp1730
g2
I0
sg3
I18
sg4
VDROPCATCH.COM 834 LLC
p1731
sa(dp1732
g2
I1
sg3
I42
sg4
VDropCatch.com 785 LLC
p1733
sa(dp1734
g2
I0
sg3
I25
sg4
VDROPCATCH.COM 835 LLC
p1735
sa(dp1736
g2
I0
sg3
I129
sg4
VDOMAIN COLLAGE, LLC
p1737
sa(dp1738
g2
I0
sg3
I14
sg4
VDROPCATCH.COM 836 LLC
p1739
sa(dp1740
g2
I0
sg3
I63
sg4
VDropCatch.com 417 LLC
p1741
sa(dp1742
g2
I0
sg3
I44
sg4
VDropCatch.com 786 LLC
p1743
sa(dp1744
g2
I0
sg3
I15
sg4
VDROPCATCH.COM 837 LLC
p1745
sa(dp1746
g2
I0
sg3
I109
sg4
VEUNAMEFLOOD.COM LLC
p1747
sa(dp1748
g2
I0
sg3
I17
sg4
VDROPCATCH.COM 838 LLC
p1749
sa(dp1750
g2
I0
sg3
I6
sg4
VDROPCATCH.COM 839 LLC
p1751
sa(dp1752
g2
I0
sg3
I11
sg4
VDROPCATCH.COM 840 LLC
p1753
sa(dp1754
g2
I0
sg3
I13
sg4
VDROPCATCH.COM 841 LLC
p1755
sa(dp1756
g2
I0
sg3
I5
sg4
VDROPCATCH.COM 842 LLC
p1757
sa(dp1758
g2
I0
sg3
I54
sg4
VDropCatch.com 787 LLC
p1759
sa(dp1760
g2
I0
sg3
I67
sg4
VDropCatch.com 418 LLC
p1761
sa(dp1762
g2
I0
sg3
I10
sg4
VDROPCATCH.COM 843 LLC
p1763
sa(dp1764
g2
I0
sg3
I17
sg4
VDROPCATCH.COM 844 LLC
p1765
sa(dp1766
g2
I1
sg3
I115
sg4
VDOMAIN ESTA AQUI, LLC
p1767
sa(dp1768
g2
I0
sg3
I10
sg4
VDROPCATCH.COM 845 LLC
p1769
sa(dp1770
g2
I0
sg3
I15
sg4
VDROPCATCH.COM 846 LLC
p1771
sa(dp1772
g2
I0
sg3
I52
sg4
VDropCatch.com 788 LLC
p1773
sa(dp1774
g2
I0
sg3
I117
sg4
VEUNAMESOREGON.COM LLC
p1775
sa(dp1776
g2
I0
sg3
I18
sg4
VDROPCATCH.COM 847 LLC
p1777
sa(dp1778
g2
I0
sg3
I9
sg4
VEUNameFlood.com LLC
p1779
sa(dp1780
g2
I0
sg3
I5
sg4
VEURODNS S.A
p1781
sa(dp1782
g2
I0
sg3
I15
sg4
VDROPCATCH.COM 848 LLC
p1783
sa(dp1784
g2
I0
sg3
I73
sg4
VDropCatch.com 419 LLC
p1785
sa(dp1786
g2
I0
sg3
I19
sg4
VDROPCATCH.COM 849 LLC
p1787
sa(dp1788
g2
I0
sg3
I82
sg4
VDOMAIN GOLD ZONE LLC
p1789
sa(dp1790
g2
I0
sg3
I19
sg4
VDROPCATCH.COM 850 LLC
p1791
sa(dp1792
g2
I0
sg3
I61
sg4
VDropCatch.com 789 LLC
p1793
sa(dp1794
g2
I0
sg3
I16
sg4
VDROPCATCH.COM 851 LLC
p1795
sa(dp1796
g2
I0
sg3
I70
sg4
VDropCatch.com 420 LLC
p1797
sa(dp1798
g2
I0
sg3
I23
sg4
VDROPCATCH.COM 852 LLC
p1799
sa(dp1800
g2
I0
sg3
I15
sg4
VDROPCATCH.COM 853 LLC
p1801
sa(dp1802
g2
I0
sg3
I52
sg4
VDropCatch.com 790 LLC
p1803
sa(dp1804
g2
I0
sg3
I13
sg4
VDROPCATCH.COM 854 LLC
p1805
sa(dp1806
g2
I1
sg3
I108
sg4
VEUROPEANCONNECTIONONLINE.COM LLC
p1807
sa(dp1808
g2
I1
sg3
I78
sg4
VDOMAIN GRABBER LLC
p1809
sa(dp1810
g2
I0
sg3
I1
sg4
VDOMAIN JAMBOREE, LLC
p1811
sa(dp1812
g2
I0
sg3
I21
sg4
VDROPCATCH.COM 855 LLC
p1813
sa(dp1814
g2
I0
sg3
I10
sg4
VDROPCATCH.COM 856 LLC
p1815
sa(dp1816
g2
I18
sg3
I378
sg4
VSiliconHouse.Net Pvt. Ltd.
p1817
sa(dp1818
g2
I1
sg3
I48
sg4
VDropCatch.com 791 LLC
p1819
sa(dp1820
g2
I0
sg3
I8
sg4
VSilver Domain Names LLC
p1821
sa(dp1822
g2
I0
sg3
I72
sg4
VDropCatch.com 421 LLC
p1823
sa(dp1824
g2
I0
sg3
I14
sg4
VSilverbackdomains.com LLC
p1825
sa(dp1826
g2
I0
sg3
I11
sg4
VSir Lancelot du Lac, LLC
p1827
sa(dp1828
g2
I0
sg3
I4
sg4
VSitefrenzy.com LLC
p1829
sa(dp1830
g2
I0
sg3
I42
sg4
VDropCatch.com 792 LLC
p1831
sa(dp1832
g2
I0
sg3
I84
sg4
VDOMAIN LANDING ZONE LLC
p1833
sa(dp1834
g2
I0
sg3
I76
sg4
VDropCatch.com 422 LLC
p1835
sa(dp1836
g2
I0
sg3
I47
sg4
VSitename Ltd
p1837
sa(dp1838
g2
I0
sg3
I11
sg4
VSkykomishdomains.com LLC
p1839
sa(dp1840
g2
I0
sg3
I60
sg4
VDropCatch.com 793 LLC
p1841
sa(dp1842
g2
I0
sg3
I7
sg4
VSlamdunk Domains LLC
p1843
sa(dp1844
g2
I1
sg3
I131
sg4
VEUROTRASHNAMES.COM LLC
p1845
sa(dp1846
g2
I0
sg3
I3
sg4
VSliceofheaven Domains, LLC
p1847
sa(dp1848
g2
I0
sg3
I6
sg4
VSlow Motion Domains LLC
p1849
sa(dp1850
g2
I0
sg3
I3
sg4
VSlow Putt Domains LLC
p1851
sa(dp1852
g2
I0
sg3
I3
sg4
VSnag Your Name LLC
p1853
sa(dp1854
g2
I0
sg3
I9
sg4
VSnappyregistrar.com LLC
p1855
sa(dp1856
g2
I0
sg3
I9
sg4
VSnapsource LLC
p1857
sa(dp1858
g2
I0
sg3
I9
sg4
VSnoqulamiedomains.com LLC
p1859
sa(dp1860
g2
I0
sg3
I52
sg4
VDropCatch.com 794 LLC
p1861
sa(dp1862
g2
I1
sg3
I9
sg4
VSoaring Eagle Domains, LLC
p1863
sa(dp1864
g2
I0
sg3
I76
sg4
VDropCatch.com 423 LLC
p1865
sa(dp1866
g2
I0
sg3
I10
sg4
VSocrates 888, LLC
p1867
sa(dp1868
g2
I0
sg3
I1
sg4
VSoftLayer Technologies, Inc.
p1869
sa(dp1870
g2
I0
sg3
I4
sg4
VSoldierofonedomains.com, LLC
p1871
sa(dp1872
g2
I2
sg3
I2
sg4
VSourced Domains, LLC
p1873
sa(dp1874
g2
I0
sg3
I1
sg4
VSouthNames Inc.
p1875
sa(dp1876
g2
I0
sg3
I119
sg4
VDOMAIN LIFESTYLE, LLC
p1877
sa(dp1878
g2
I0
sg3
I7
sg4
VSoyouwantadomain.com LLC
p1879
sa(dp1880
g2
I0
sg3
I15
sg4
VSpartacus, LLC
p1881
sa(dp1882
g2
I0
sg3
I1
sg4
VSterling Domains LLC
p1883
sa(dp1884
g2
I1
sg3
I49
sg4
VDropCatch.com 795 LLC
p1885
sa(dp1886
g2
I0
sg3
I13
sg4
VStormbringer, LLC
p1887
sa(dp1888
g2
I0
sg3
I5
sg4
VStraight 8 Domains, LLC
p1889
sa(dp1890
g2
I0
sg3
I2
sg4
VStreamline Domains, LLC
p1891
sa(dp1892
g2
I0
sg3
I2
sg4
VSugar Cube Domains, LLC
p1893
sa(dp1894
g2
I0
sg3
I15
sg4
VSun Tzu 888, LLC
p1895
sa(dp1896
g2
I0
sg3
I7
sg4
VSwordfish Domains LLC
p1897
sa(dp1898
g2
I0
sg3
I47
sg4
VDropCatch.com 796 LLC
p1899
sa(dp1900
g2
I1
sg3
I144
sg4
VEUTURBO.COM LLC
p1901
sa(dp1902
g2
I1
sg3
I95
sg4
VDropCatch.com 424 LLC
p1903
sa(dp1904
g2
I0
sg3
I9
sg4
VEUTurbo.com LLC
p1905
sa(dp1906
g2
I0
sg3
I108
sg4
VDOMAIN LOCALE, LLC
p1907
sa(dp1908
g2
I0
sg3
I1
sg4
VDOMAIN MANTRA, INC
p1909
sa(dp1910
g2
I1
sg3
I52
sg4
VDropCatch.com 797 LLC
p1911
sa(dp1912
g2
I0
sg3
I72
sg4
VDropCatch.com 425 LLC
p1913
sa(dp1914
g2
I0
sg3
I46
sg4
VDropCatch.com 798 LLC
p1915
sa(dp1916
g2
I0
sg3
I48
sg4
VDropCatch.com 799 LLC
p1917
sa(dp1918
g2
I1
sg3
I78
sg4
VDropCatch.com 426 LLC
p1919
sa(dp1920
g2
I5
sg3
I1055
sg4
VNameTell.com LLC
p1921
sa(dp1922
g2
I11
sg3
I191
sg4
VSynergy Wholesale
p1923
sa(dp1924
g2
I0
sg3
I2
sg4
VTAN TRAN, LLC
p1925
sa(dp1926
g2
I0
sg3
I61
sg4
VDropCatch.com 800 LLC
p1927
sa(dp1928
g2
I1
sg3
I59
sg4
VDropCatch.com 427 LLC
p1929
sa(dp1930
g2
I0
sg3
I47
sg4
VDropCatch.com 801 LLC
p1931
sa(dp1932
g2
I0
sg3
I62
sg4
VDropCatch.com 428 LLC
p1933
sa(dp1934
g2
I0
sg3
I84
sg4
VTARGETED DROP CATCH LLC
p1935
sa(dp1936
g2
I0
sg3
I1
sg4
VTECH TYRANTS, INC.
p1937
sa(dp1938
g2
I1
sg3
I44
sg4
VDropCatch.com 802 LLC
p1939
sa(dp1940
g2
I0
sg3
I23
sg4
VTECNOCRATICA CENTRO DE DATOS, S.L.
p1941
sa(dp1942
g2
I0
sg3
I49
sg4
VDropCatch.com 803 LLC
p1943
sa(dp1944
g2
I0
sg3
I29
sg4
VTECNOLOGIA, DESARROLLO Y MERCADO S. DE R.L. DE C.V.
p1945
sa(dp1946
g2
I1
sg3
I72
sg4
VDropCatch.com 429 LLC
p1947
sa(dp1948
g2
I0
sg3
I52
sg4
VDropCatch.com 804 LLC
p1949
sa(dp1950
g2
I0
sg3
I80
sg4
VTHE DOMAINS LLC
p1951
sa(dp1952
g2
I0
sg3
I40
sg4
VDropCatch.com 805 LLC
p1953
sa(dp1954
g2
I0
sg3
I79
sg4
VDropCatch.com 430 LLC
p1955
sa(dp1956
g2
I1
sg3
I400
sg4
VDOMAIN NAME NETWORK PTY LTD
p1957
sa(dp1958
g2
I0
sg3
I52
sg4
VDropCatch.com 806 LLC
p1959
sa(dp1960
g2
I0
sg3
I57
sg4
VDropCatch.com 431 LLC
p1961
sa(dp1962
g2
I0
sg3
I63
sg4
VDropCatch.com 807 LLC
p1963
sa(dp1964
g2
I1
sg3
I544
sg4
VEVERYONES INTERNET, LTD. DBA SOFTLAYER
p1965
sa(dp1966
g2
I0
sg3
I108
sg4
VDOMAIN NAME ORIGIN, LLC
p1967
sa(dp1968
g2
I5
sg3
I129
sg4
VTHE NAME IT CORPORATION DBA NAMESERVICES.NET
p1969
sa(dp1970
g2
I0
sg3
I2
sg4
VTHE REGISTRAR COMPANY B.V.
p1971
sa(dp1972
g2
I0
sg3
I75
sg4
VDropCatch.com 432 LLC
p1973
sa(dp1974
g2
I0
sg3
I45
sg4
VDropCatch.com 808 LLC
p1975
sa(dp1976
g2
I1
sg3
I45
sg4
VDropCatch.com 809 LLC
p1977
sa(dp1978
g2
I0
sg3
I74
sg4
VDropCatch.com 433 LLC
p1979
sa(dp1980
g2
I0
sg3
I106
sg4
VDOMAIN NAME ROOT, LLC
p1981
sa(dp1982
g2
I1
sg3
I47
sg4
VDropCatch.com 810 LLC
p1983
sa(dp1984
g2
I0
sg3
I62
sg4
VDropCatch.com 434 LLC
p1985
sa(dp1986
g2
I0
sg3
I55
sg4
VDropCatch.com 811 LLC
p1987
sa(dp1988
g2
I0
sg3
I76
sg4
VDropCatch.com 435 LLC
p1989
sa(dp1990
g2
I0
sg3
I121
sg4
VDOMAIN ORIGINAL, LLC
p1991
sa(dp1992
g2
I0
sg3
I55
sg4
VDropCatch.com 812 LLC
p1993
sa(dp1994
g2
I1
sg3
I42
sg4
VDropCatch.com 813 LLC
p1995
sa(dp1996
g2
I0
sg3
I65
sg4
VDropCatch.com 436 LLC
p1997
sa(dp1998
g2
I0
sg3
I83
sg4
VDOMAIN PICKUP LLC
p1999
sa(dp2000
g2
I0
sg3
I5
sg4
VDOMAIN PRO, LLC
p2001
sa(dp2002
g2
I0
sg3
I1
sg4
VDOMAIN REGISTRATION SERVICES INC. DBA DOTEARTH.COM
p2003
sa(dp2004
g2
I0
sg3
I68
sg4
VDropCatch.com 814 LLC
p2005
sa(dp2006
g2
I0
sg3
I61
sg4
VDropCatch.com 437 LLC
p2007
sa(dp2008
g2
I0
sg3
I38
sg4
VDOMAIN REGISTRATION SERVICES, INC DBA DOTEARTH.COM
p2009
sa(dp2010
g2
I13
sg3
I341
sg4
VTHE REGISTRY AT INFO AVENUE
p2011
sa(dp2012
g2
I0
sg3
I7
sg4
VDOMAIN ROUGE INC
p2013
sa(dp2014
g2
I0
sg3
I7
sg4
VTHE REGISTRY AT INFO AVENUE, LLC D/B/A SPIRIT COMMUNICATIONS
p2015
sa(dp2016
g2
I0
sg3
I49
sg4
VDropCatch.com 815 LLC
p2017
sa(dp2018
g2
I0
sg3
I77
sg4
VDropCatch.com 438 LLC
p2019
sa(dp2020
g2
I0
sg3
I58
sg4
VDropCatch.com 816 LLC
p2021
sa(dp2022
g2
I0
sg3
I100
sg4
VDOMAIN SECURE LLC
p2023
sa(dp2024
g2
I0
sg3
I29
sg4
VDropCatch.com 817 LLC
p2025
sa(dp2026
g2
I0
sg3
I52
sg4
VDropCatch.com 439 LLC
p2027
sa(dp2028
g2
I0
sg3
I52
sg4
VDropCatch.com 818 LLC
p2029
sa(dp2030
g2
I0
sg3
I58
sg4
VDropCatch.com 440 LLC
p2031
sa(dp2032
g2
I0
sg3
I86
sg4
VDOMAIN SOURCE LLC
p2033
sa(dp2034
g2
I0
sg3
I53
sg4
VDropCatch.com 819 LLC
p2035
sa(dp2036
g2
I0
sg3
I56
sg4
VDropCatch.com 441 LLC
p2037
sa(dp2038
g2
I0
sg3
I66
sg4
VDropCatch.com 820 LLC
p2039
sa(dp2040
g2
I0
sg3
I99
sg4
VDOMAIN STOPOVER LLC
p2041
sa(dp2042
g2
I0
sg3
I67
sg4
VDropCatch.com 442 LLC
p2043
sa(dp2044
g2
I10
sg3
I3415
sg4
V1&1 INTERNET SE
p2045
sa(dp2046
g2
I2
sg3
I301
sg4
VTHENAMECO LLC
p2047
sa(dp2048
g2
I0
sg3
I49
sg4
VDropCatch.com 821 LLC
p2049
sa(dp2050
g2
I0
sg3
I50
sg4
VDropCatch.com 443 LLC
p2051
sa(dp2052
g2
I0
sg3
I73
sg4
VDOMAIN SUCCESS LLC
p2053
sa(dp2054
g2
I1
sg3
I9
sg4
VDOMAIN THE NET TECHNOLOGIES LTD.
p2055
sa(dp2056
g2
I0
sg3
I1
sg4
VDOMAIN-A-GO-GO, LLC
p2057
sa(dp2058
g2
I0
sg3
I50
sg4
VDropCatch.com 822 LLC
p2059
sa(dp2060
g2
I7
sg3
I1100
sg4
VNameTurn LLC
p2061
sa(dp2062
g2
I0
sg3
I76
sg4
VDropCatch.com 444 LLC
p2063
sa(dp2064
g2
I0
sg3
I59
sg4
VDropCatch.com 823 LLC
p2065
sa(dp2066
g2
I1
sg3
I116
sg4
VTHIRDFLOORDNS.COM LLC
p2067
sa(dp2068
g2
I0
sg3
I46
sg4
VDropCatch.com 824 LLC
p2069
sa(dp2070
g2
I0
sg3
I105
sg4
VDOMAIN-IT, INC.
p2071
sa(dp2072
g2
I0
sg3
I71
sg4
VDropCatch.com 445 LLC
p2073
sa(dp2074
g2
I0
sg3
I36
sg4
VDropCatch.com 825 LLC
p2075
sa(dp2076
g2
I0
sg3
I75
sg4
VTHIRDROUNDNAMES LLC
p2077
sa(dp2078
g2
I1
sg3
I52
sg4
VDropCatch.com 446 LLC
p2079
sa(dp2080
g2
I0
sg3
I69
sg4
VDropCatch.com 826 LLC
p2081
sa(dp2082
g2
I13
sg3
I967
sg4
VEVOPLUS LTD
p2083
sa(dp2084
g2
I0
sg3
I42
sg4
VDropCatch.com 447 LLC
p2085
sa(dp2086
g2
I1
sg3
I194
sg4
VNameWeb BVBA
p2087
sa(dp2088
g2
I0
sg3
I9
sg4
VNamearsenal.com LLC
p2089
sa(dp2090
g2
I0
sg3
I7
sg4
VNamecatch LLC
p2091
sa(dp2092
g2
I0
sg3
I4
sg4
VNamecroc.com LLC
p2093
sa(dp2094
g2
I0
sg3
I52
sg4
VDropCatch.com 827 LLC
p2095
sa(dp2096
g2
I1
sg3
I5
sg4
VNameemperor.com LLC
p2097
sa(dp2098
g2
I0
sg3
I2
sg4
VNamefinger.com LLC
p2099
sa(dp2100
g2
I0
sg3
I44
sg4
VDropCatch.com 448 LLC
p2101
sa(dp2102
g2
I0
sg3
I13
sg4
VNamegrab LLC
p2103
sa(dp2104
g2
I0
sg3
I54
sg4
VDropCatch.com 828 LLC
p2105
sa(dp2106
g2
I0
sg3
I44
sg4
VDropCatch.com 449 LLC
p2107
sa(dp2108
g2
I0
sg3
I92
sg4
VEXCLUSIVE DOMAIN FIND LLC
p2109
sa(dp2110
g2
I0
sg3
I1
sg4
VEXTEND NAMES, INC.
p2111
sa(dp2112
g2
I0
sg3
I3
sg4
VEXTRA THREADS CORPORATION
p2113
sa(dp2114
g2
I0
sg3
I46
sg4
VDropCatch.com 450 LLC
p2115
sa(dp2116
g2
I0
sg3
I67
sg4
VDropCatch.com 829 LLC
p2117
sa(dp2118
g2
I0
sg3
I42
sg4
VDropCatch.com 830 LLC
p2119
sa(dp2120
g2
I1
sg3
I59
sg4
VDropCatch.com 451 LLC
p2121
sa(dp2122
g2
I1
sg3
I129
sg4
VEZ TIMES DOMAINS, LLC
p2123
sa(dp2124
g2
I0
sg3
I3
sg4
VEZ Times Domains, LLC
p2125
sa(dp2126
g2
I1
sg3
I3
sg4
VEagle Eye Domains, LLC
p2127
sa(dp2128
g2
I0
sg3
I41
sg4
VDropCatch.com 452 LLC
p2129
sa(dp2130
g2
I0
sg3
I53
sg4
VDropCatch.com 831 LLC
p2131
sa(dp2132
g2
I0
sg3
I15
sg4
VEastEnd Domains LLC
p2133
sa(dp2134
g2
I0
sg3
I3
sg4
VEasy Street Domains, LLC
p2135
sa(dp2136
g2
I2
sg3
I40
sg4
VDropCatch.com 453 LLC
p2137
sa(dp2138
g2
I0
sg3
I65
sg4
VDropCatch.com 832 LLC
p2139
sa(dp2140
g2
I0
sg3
I39
sg4
VDropCatch.com 454 LLC
p2141
sa(dp2142
g2
I0
sg3
I416
sg4
VTHREADAGENT.COM, INC.
p2143
sa(dp2144
g2
I0
sg3
I55
sg4
VDropCatch.com 833 LLC
p2145
sa(dp2146
g2
I0
sg3
I46
sg4
VDropCatch.com 455 LLC
p2147
sa(dp2148
g2
I0
sg3
I77
sg4
VTHREEPOINT DOMAINS LLC
p2149
sa(dp2150
g2
I0
sg3
I1
sg4
VTIANJIN ZHUIRI SCIENCE AND TECHNOLOGY DEVELOPMENT CO LTD.
p2151
sa(dp2152
g2
I0
sg3
I4
sg4
VTIERRANET INC. D/B/A DOMAINDISCOVER
p2153
sa(dp2154
g2
I0
sg3
I50
sg4
VDropCatch.com 834 LLC
p2155
sa(dp2156
g2
I0
sg3
I52
sg4
VDropCatch.com 456 LLC
p2157
sa(dp2158
g2
I0
sg3
I48
sg4
VDropCatch.com 457 LLC
p2159
sa(dp2160
g2
I5
sg3
I217
sg4
VEasyspace Ltd.
p2161
sa(dp2162
g2
I0
sg3
I61
sg4
VDropCatch.com 835 LLC
p2163
sa(dp2164
g2
I0
sg3
I58
sg4
VDropCatch.com 458 LLC
p2165
sa(dp2166
g2
I0
sg3
I52
sg4
VDropCatch.com 836 LLC
p2167
sa(dp2168
g2
I0
sg3
I48
sg4
VDropCatch.com 459 LLC
p2169
sa(dp2170
g2
I0
sg3
I47
sg4
VDropCatch.com 837 LLC
p2171
sa(dp2172
g2
I0
sg3
I42
sg4
VDropCatch.com 460 LLC
p2173
sa(dp2174
g2
I0
sg3
I57
sg4
VDropCatch.com 838 LLC
p2175
sa(dp2176
g2
I0
sg3
I57
sg4
VDropCatch.com 461 LLC
p2177
sa(dp2178
g2
I0
sg3
I51
sg4
VDropCatch.com 839 LLC
p2179
sa(dp2180
g2
I0
sg3
I45
sg4
VDropCatch.com 462 LLC
p2181
sa(dp2182
g2
I0
sg3
I59
sg4
VDropCatch.com 840 LLC
p2183
sa(dp2184
g2
I0
sg3
I51
sg4
VDropCatch.com 463 LLC
p2185
sa(dp2186
g2
I0
sg3
I64
sg4
VDropCatch.com 841 LLC
p2187
sa(dp2188
g2
I1
sg3
I50
sg4
VDropCatch.com 464 LLC
p2189
sa(dp2190
g2
I1
sg3
I370
sg4
VEchoDomain LLC
p2191
sa(dp2192
g2
I0
sg3
I2
sg4
VEdnit Software Private Limited
p2193
sa(dp2194
g2
I0
sg3
I42
sg4
VDropCatch.com 842 LLC
p2195
sa(dp2196
g2
I0
sg3
I9
sg4
VEkados Inc , d/b/a groundregistry.com
p2197
sa(dp2198
g2
I0
sg3
I2
sg4
VEmerald Registrar Limited
p2199
sa(dp2200
g2
I0
sg3
I48
sg4
VDropCatch.com 465 LLC
p2201
sa(dp2202
g2
I1
sg3
I27
sg4
VEmirates Telecommunications Corporation - Etisalat
p2203
sa(dp2204
g2
I0
sg3
I1
sg4
VEmpireStateDomains Inc
p2205
sa(dp2206
g2
I0
sg3
I4
sg4
VEmpireStateDomains Inc.
p2207
sa(dp2208
g2
I0
sg3
I52
sg4
VDropCatch.com 843 LLC
p2209
sa(dp2210
g2
I0
sg3
I29
sg4
VEncirca, Inc.
p2211
sa(dp2212
g2
I0
sg3
I2
sg4
VEndeavourDomains, LLC
p2213
sa(dp2214
g2
I0
sg3
I49
sg4
VDropCatch.com 466 LLC
p2215
sa(dp2216
g2
I0
sg3
I59
sg4
VDropCatch.com 844 LLC
p2217
sa(dp2218
g2
I0
sg3
I65
sg4
VDropCatch.com 467 LLC
p2219
sa(dp2220
g2
I2
sg3
I83
sg4
VEnetica Pty Ltd
p2221
sa(dp2222
g2
I0
sg3
I2
sg4
VEntertainment Names, Incorporated
p2223
sa(dp2224
g2
I0
sg3
I43
sg4
VDropCatch.com 845 LLC
p2225
sa(dp2226
g2
I0
sg3
I27
sg4
VEntorno Digital, S.A.
p2227
sa(dp2228
g2
I0
sg3
I7
sg4
VEntrust Domains, LLC
p2229
sa(dp2230
g2
I0
sg3
I50
sg4
VDropCatch.com 468 LLC
p2231
sa(dp2232
g2
I0
sg3
I9
sg4
VEric the Red, LLC
p2233
sa(dp2234
g2
I0
sg3
I9
sg4
VErwin Rommel, LLC
p2235
sa(dp2236
g2
I1
sg3
I51
sg4
VDropCatch.com 846 LLC
p2237
sa(dp2238
g2
I0
sg3
I46
sg4
VDropCatch.com 469 LLC
p2239
sa(dp2240
g2
I0
sg3
I65
sg4
VDropCatch.com 847 LLC
p2241
sa(dp2242
g2
I0
sg3
I56
sg4
VDropCatch.com 470 LLC
p2243
sa(dp2244
g2
I1
sg3
I61
sg4
VDropCatch.com 848 LLC
p2245
sa(dp2246
g2
I9
sg3
I1126
sg4
VNameling.com LLC
p2247
sa(dp2248
g2
I0
sg3
I6
sg4
VNamemaster RC GmbH
p2249
sa(dp2250
g2
I0
sg3
I58
sg4
VDropCatch.com 471 LLC
p2251
sa(dp2252
g2
I0
sg3
I10
sg4
VNamepanther.com LLC
p2253
sa(dp2254
g2
I0
sg3
I5
sg4
VNames Express LLC
p2255
sa(dp2256
g2
I0
sg3
I9
sg4
VNames In Motion, Inc.
p2257
sa(dp2258
g2
I0
sg3
I4
sg4
VNames On The Drop LLC
p2259
sa(dp2260
g2
I0
sg3
I7
sg4
VNames Stop Here LLC
p2261
sa(dp2262
g2
I0
sg3
I59
sg4
VDropCatch.com 849 LLC
p2263
sa(dp2264
g2
I0
sg3
I56
sg4
VDropCatch.com 472 LLC
p2265
sa(dp2266
g2
I0
sg3
I62
sg4
VDropCatch.com 850 LLC
p2267
sa(dp2268
g2
I1
sg3
I44
sg4
VDropCatch.com 473 LLC
p2269
sa(dp2270
g2
I0
sg3
I49
sg4
VDropCatch.com 851 LLC
p2271
sa(dp2272
g2
I1
sg3
I55
sg4
VDropCatch.com 474 LLC
p2273
sa(dp2274
g2
I0
sg3
I52
sg4
VDropCatch.com 475 LLC
p2275
sa(dp2276
g2
I0
sg3
I58
sg4
VDropCatch.com 852 LLC
p2277
sa(dp2278
g2
I0
sg3
I57
sg4
VDropCatch.com 476 LLC
p2279
sa(dp2280
g2
I0
sg3
I59
sg4
VDropCatch.com 853 LLC
p2281
sa(dp2282
g2
I0
sg3
I59
sg4
VDropCatch.com 477 LLC
p2283
sa(dp2284
g2
I1
sg3
I54
sg4
VDropCatch.com 854 LLC
p2285
sa(dp2286
g2
I0
sg3
I42
sg4
VDropCatch.com 855 LLC
p2287
sa(dp2288
g2
I1
sg3
I54
sg4
VDropCatch.com 478 LLC
p2289
sa(dp2290
g2
I0
sg3
I57
sg4
VDropCatch.com 479 LLC
p2291
sa(dp2292
g2
I0
sg3
I55
sg4
VDropCatch.com 856 LLC
p2293
sa(dp2294
g2
I0
sg3
I55
sg4
VDropCatch.com 480 LLC
p2295
sa(dp2296
g2
I0
sg3
I56
sg4
VDropCatch.com 857 LLC
p2297
sa(dp2298
g2
I0
sg3
I64
sg4
VDropCatch.com 481 LLC
p2299
sa(dp2300
g2
I0
sg3
I63
sg4
VDropCatch.com 858 LLC
p2301
sa(dp2302
g2
I0
sg3
I54
sg4
VDropCatch.com 482 LLC
p2303
sa(dp2304
g2
I0
sg3
I55
sg4
VDropCatch.com 859 LLC
p2305
sa(dp2306
g2
I0
sg3
I60
sg4
VDropCatch.com 483 LLC
p2307
sa(dp2308
g2
I1
sg3
I53
sg4
VDropCatch.com 860 LLC
p2309
sa(dp2310
g2
I0
sg3
I59
sg4
VDropCatch.com 861 LLC
p2311
sa(dp2312
g2
I0
sg3
I66
sg4
VDropCatch.com 484 LLC
p2313
sa(dp2314
g2
I1
sg3
I45
sg4
VDropCatch.com 485 LLC
p2315
sa(dp2316
g2
I0
sg3
I61
sg4
VDropCatch.com 862 LLC
p2317
sa(dp2318
g2
I0
sg3
I50
sg4
VDropCatch.com 486 LLC
p2319
sa(dp2320
g2
I1
sg3
I53
sg4
VDropCatch.com 863 LLC
p2321
sa(dp2322
g2
I0
sg3
I54
sg4
VDropCatch.com 487 LLC
p2323
sa(dp2324
g2
I0
sg3
I44
sg4
VDropCatch.com 864 LLC
p2325
sa(dp2326
g2
I7
sg3
I824
sg4
VNamesHere LLC
p2327
sa(dp2328
g2
I31
sg3
I1027
sg4
VEstrategias WebSite S.L.
p2329
sa(dp2330
g2
I0
sg3
I5
sg4
VEthos Domains, LLC
p2331
sa(dp2332
g2
I0
sg3
I11
sg4
VNamesalacarte.com LLC
p2333
sa(dp2334
g2
I0
sg3
I6
sg4
VEunamesOregon.com LLC
p2335
sa(dp2336
g2
I0
sg3
I8
sg4
VNamesaplenty LLC
p2337
sa(dp2338
g2
I0
sg3
I3
sg4
VNamescout.com
p2339
sa(dp2340
g2
I0
sg3
I2
sg4
VNameselite, LLC
p2341
sa(dp2342
g2
I0
sg3
I5
sg4
VNamesnap  LLC
p2343
sa(dp2344
g2
I0
sg3
I55
sg4
VDropCatch.com 488 LLC
p2345
sa(dp2346
g2
I0
sg3
I4
sg4
VNamesource LLC
p2347
sa(dp2348
g2
I0
sg3
I1
sg4
VNamesourcedomains, LLC
p2349
sa(dp2350
g2
I0
sg3
I63
sg4
VDropCatch.com 865 LLC
p2351
sa(dp2352
g2
I0
sg3
I51
sg4
VDropCatch.com 489 LLC
p2353
sa(dp2354
g2
I0
sg3
I51
sg4
VDropCatch.com 866 LLC
p2355
sa(dp2356
g2
I0
sg3
I45
sg4
VDropCatch.com 490 LLC
p2357
sa(dp2358
g2
I1
sg3
I51
sg4
VDropCatch.com 867 LLC
p2359
sa(dp2360
g2
I21
sg3
I1821
sg4
VTIERRANET INC. DBA DOMAINDISCOVER
p2361
sa(dp2362
g2
I0
sg3
I52
sg4
VDropCatch.com 491 LLC
p2363
sa(dp2364
g2
I0
sg3
I51
sg4
VDropCatch.com 868 LLC
p2365
sa(dp2366
g2
I0
sg3
I76
sg4
VTIGER SHARK DOMAINS, LLC
p2367
sa(dp2368
g2
I0
sg3
I52
sg4
VDropCatch.com 492 LLC
p2369
sa(dp2370
g2
I0
sg3
I3
sg4
VTIRUPATI DOMAINS AND HOSTING PRIVATE LIMITED
p2371
sa(dp2372
g2
I0
sg3
I36
sg4
VDropCatch.com 869 LLC
p2373
sa(dp2374
g2
I0
sg3
I57
sg4
VDropCatch.com 493 LLC
p2375
sa(dp2376
g2
I0
sg3
I46
sg4
VDropCatch.com 870 LLC
p2377
sa(dp2378
g2
I1
sg3
I48
sg4
VDropCatch.com 494 LLC
p2379
sa(dp2380
g2
I1
sg3
I46
sg4
VDropCatch.com 871 LLC
p2381
sa(dp2382
g2
I1
sg3
I316
sg4
VNamespro Solutions INC.
p2383
sa(dp2384
g2
I0
sg3
I8
sg4
VNamestop LLC
p2385
sa(dp2386
g2
I1
sg3
I5
sg4
VNamevolcano.com LLC
p2387
sa(dp2388
g2
I0
sg3
I5
sg4
VNamewinner LLC
p2389
sa(dp2390
g2
I0
sg3
I2
sg4
VNamware.com, Inc
p2391
sa(dp2392
g2
I0
sg3
I42
sg4
VDropCatch.com 495 LLC
p2393
sa(dp2394
g2
I0
sg3
I64
sg4
VDropCatch.com 872 LLC
p2395
sa(dp2396
g2
I0
sg3
I36
sg4
VDropCatch.com 496 LLC
p2397
sa(dp2398
g2
I0
sg3
I44
sg4
VDropCatch.com 497 LLC
p2399
sa(dp2400
g2
I0
sg3
I69
sg4
VDropCatch.com 873 LLC
p2401
sa(dp2402
g2
I0
sg3
I53
sg4
VDropCatch.com 498 LLC
p2403
sa(dp2404
g2
I0
sg3
I52
sg4
VDropCatch.com 874 LLC
p2405
sa(dp2406
g2
I0
sg3
I50
sg4
VDropCatch.com 499 LLC
p2407
sa(dp2408
g2
I0
sg3
I54
sg4
VDropCatch.com 875 LLC
p2409
sa(dp2410
g2
I1
sg3
I234
sg4
VNanjing Imperiosus Technology Co. Ltd
p2411
sa(dp2412
g2
I0
sg3
I9
sg4
VNapoleon Bonaparte, LLC
p2413
sa(dp2414
g2
I0
sg3
I2
sg4
VNeed Servers, Inc
p2415
sa(dp2416
g2
I0
sg3
I12
sg4
VNeen Srl
p2417
sa(dp2418
g2
I0
sg3
I2
sg4
VNeoNIC OY
p2419
sa(dp2420
g2
I0
sg3
I47
sg4
VDropCatch.com 876 LLC
p2421
sa(dp2422
g2
I0
sg3
I66
sg4
VDropCatch.com 500 LLC
p2423
sa(dp2424
g2
I0
sg3
I58
sg4
VDropCatch.com 877 LLC
p2425
sa(dp2426
g2
I0
sg3
I59
sg4
VDropCatch.com 501 LLC
p2427
sa(dp2428
g2
I0
sg3
I45
sg4
VDropCatch.com 878 LLC
p2429
sa(dp2430
g2
I0
sg3
I47
sg4
VDropCatch.com 502 LLC
p2431
sa(dp2432
g2
I0
sg3
I43
sg4
VDropCatch.com 503 LLC
p2433
sa(dp2434
g2
I0
sg3
I62
sg4
VDropCatch.com 879 LLC
p2435
sa(dp2436
g2
I0
sg3
I52
sg4
VDropCatch.com 504 LLC
p2437
sa(dp2438
g2
I0
sg3
I51
sg4
VDropCatch.com 880 LLC
p2439
sa(dp2440
g2
I0
sg3
I61
sg4
VDropCatch.com 505 LLC
p2441
sa(dp2442
g2
I14
sg3
I891
sg4
VEurodns S.A.
p2443
sa(dp2444
g2
I0
sg3
I62
sg4
VDropCatch.com 881 LLC
p2445
sa(dp2446
g2
I0
sg3
I5
sg4
VEuropeanConnectiononline.com LLC
p2447
sa(dp2448
g2
I0
sg3
I6
sg4
VEurotrashNames.com LLC
p2449
sa(dp2450
g2
I0
sg3
I4
sg4
VEver Ready Names, Inc
p2451
sa(dp2452
g2
I0
sg3
I47
sg4
VDropCatch.com 882 LLC
p2453
sa(dp2454
g2
I0
sg3
I57
sg4
VDropCatch.com 506 LLC
p2455
sa(dp2456
g2
I0
sg3
I44
sg4
VDropCatch.com 883 LLC
p2457
sa(dp2458
g2
I0
sg3
I61
sg4
VDropCatch.com 507 LLC
p2459
sa(dp2460
g2
I30
sg3
I773
sg4
VTLD REGISTRAR SOLUTIONS LTD
p2461
sa(dp2462
g2
I0
sg3
I37
sg4
VDropCatch.com 884 LLC
p2463
sa(dp2464
g2
I0
sg3
I50
sg4
VDropCatch.com 508 LLC
p2465
sa(dp2466
g2
I3
sg3
I34
sg4
VTLD Registrar Solutions Ltd.
p2467
sa(dp2468
g2
I1
sg3
I53
sg4
VDropCatch.com 885 LLC
p2469
sa(dp2470
g2
I0
sg3
I61
sg4
VDropCatch.com 509 LLC
p2471
sa(dp2472
g2
I0
sg3
I40
sg4
VDropCatch.com 886 LLC
p2473
sa(dp2474
g2
I8
sg3
I94
sg4
VTLDS LLC. d/b/a SRSPlus
p2475
sa(dp2476
g2
I0
sg3
I35
sg4
VDropCatch.com 887 LLC
p2477
sa(dp2478
g2
I0
sg3
I50
sg4
VDropCatch.com 510 LLC
p2479
sa(dp2480
g2
I22
sg3
I265
sg4
VEveryones Internet, LLC dba SoftLayer
p2481
sa(dp2482
g2
I0
sg3
I10
sg4
VExcalibur, LLC
p2483
sa(dp2484
g2
I0
sg3
I5
sg4
VExclusive Domain Find LLC
p2485
sa(dp2486
g2
I0
sg3
I1
sg4
VExperinom Inc
p2487
sa(dp2488
g2
I0
sg3
I8
sg4
VExtend Names, Inc
p2489
sa(dp2490
g2
I0
sg3
I6
sg4
VExtremely Wild, Inc
p2491
sa(dp2492
g2
I0
sg3
I60
sg4
VDropCatch.com 511 LLC
p2493
sa(dp2494
g2
I0
sg3
I70
sg4
VDropCatch.com 888 LLC
p2495
sa(dp2496
g2
I0
sg3
I40
sg4
VDropCatch.com 889 LLC
p2497
sa(dp2498
g2
I1
sg3
I45
sg4
VDropCatch.com 512 LLC
p2499
sa(dp2500
g2
I0
sg3
I52
sg4
VDropCatch.com 890 LLC
p2501
sa(dp2502
g2
I1
sg3
I53
sg4
VDropCatch.com 513 LLC
p2503
sa(dp2504
g2
I0
sg3
I61
sg4
VDropCatch.com 891 LLC
p2505
sa(dp2506
g2
I0
sg3
I58
sg4
VDropCatch.com 514 LLC
p2507
sa(dp2508
g2
I0
sg3
I45
sg4
VDropCatch.com 892 LLC
p2509
sa(dp2510
g2
I0
sg3
I54
sg4
VDropCatch.com 515 LLC
p2511
sa(dp2512
g2
I0
sg3
I62
sg4
VDropCatch.com 893 LLC
p2513
sa(dp2514
g2
I0
sg3
I56
sg4
VDropCatch.com 516 LLC
p2515
sa(dp2516
g2
I0
sg3
I48
sg4
VDropCatch.com 894 LLC
p2517
sa(dp2518
g2
I0
sg3
I49
sg4
VDropCatch.com 517 LLC
p2519
sa(dp2520
g2
I0
sg3
I46
sg4
VDropCatch.com 895 LLC
p2521
sa(dp2522
g2
I0
sg3
I50
sg4
VDropCatch.com 518 LLC
p2523
sa(dp2524
g2
I0
sg3
I56
sg4
VDropCatch.com 896 LLC
p2525
sa(dp2526
g2
I0
sg3
I62
sg4
VDropCatch.com 519 LLC
p2527
sa(dp2528
g2
I0
sg3
I67
sg4
VDropCatch.com 897 LLC
p2529
sa(dp2530
g2
I48
sg3
I1094
sg4
VNet 4 India Limited
p2531
sa(dp2532
g2
I0
sg3
I2
sg4
VNet Juggler, Inc
p2533
sa(dp2534
g2
I0
sg3
I61
sg4
VDropCatch.com 520 LLC
p2535
sa(dp2536
g2
I0
sg3
I50
sg4
VDropCatch.com 898 LLC
p2537
sa(dp2538
g2
I1
sg3
I37
sg4
VNet Logistics Pty. Ltd.
p2539
sa(dp2540
g2
I0
sg3
I58
sg4
VDropCatch.com 521 LLC
p2541
sa(dp2542
g2
I17
sg3
I7857
sg4
VJIANGSU BANGNING SCIENCE & TECHNOLOGY CO. LTD
p2543
sa(dp2544
g2
I0
sg3
I1
sg4
VJULIUS CAESAR, LLC
p2545
sa(dp2546
g2
I0
sg3
I50
sg4
VDropCatch.com 899 LLC
p2547
sa(dp2548
g2
I0
sg3
I55
sg4
VDropCatch.com 522 LLC
p2549
sa(dp2550
g2
I0
sg3
I60
sg4
VDropCatch.com 900 LLC
p2551
sa(dp2552
g2
I0
sg3
I78
sg4
VJUMPSHOT DOMAINS LLC
p2553
sa(dp2554
g2
I0
sg3
I51
sg4
VDropCatch.com 523 LLC
p2555
sa(dp2556
g2
I0
sg3
I15
sg4
VJames Madison, LLC
p2557
sa(dp2558
g2
I0
sg3
I47
sg4
VDropCatch.com 901 LLC
p2559
sa(dp2560
g2
I0
sg3
I64
sg4
VDropCatch.com 524 LLC
p2561
sa(dp2562
g2
I5
sg3
I217
sg4
VNet-Chinese Co., Ltd.
p2563
sa(dp2564
g2
I0
sg3
I76
sg4
VDropCatch.com 902 LLC
p2565
sa(dp2566
g2
I0
sg3
I62
sg4
VDropCatch.com 525 LLC
p2567
sa(dp2568
g2
I0
sg3
I45
sg4
VDropCatch.com 903 LLC
p2569
sa(dp2570
g2
I0
sg3
I42
sg4
VDropCatch.com 526 LLC
p2571
sa(dp2572
g2
I0
sg3
I65
sg4
VDropCatch.com 904 LLC
p2573
sa(dp2574
g2
I0
sg3
I41
sg4
VDropCatch.com 527 LLC
p2575
sa(dp2576
g2
I0
sg3
I43
sg4
VDropCatch.com 528 LLC
p2577
sa(dp2578
g2
I0
sg3
I53
sg4
VDropCatch.com 905 LLC
p2579
sa(dp2580
g2
I0
sg3
I45
sg4
VDropCatch.com 906 LLC
p2581
sa(dp2582
g2
I0
sg3
I59
sg4
VDropCatch.com 529 LLC
p2583
sa(dp2584
g2
I0
sg3
I46
sg4
VDropCatch.com 907 LLC
p2585
sa(dp2586
g2
I0
sg3
I43
sg4
VDropCatch.com 530 LLC
p2587
sa(dp2588
g2
I0
sg3
I46
sg4
VDropCatch.com 531 LLC
p2589
sa(dp2590
g2
I0
sg3
I65
sg4
VDropCatch.com 908 LLC
p2591
sa(dp2592
g2
I0
sg3
I52
sg4
VDropCatch.com 532 LLC
p2593
sa(dp2594
g2
I0
sg3
I52
sg4
VDropCatch.com 909 LLC
p2595
sa(dp2596
g2
I1
sg3
I44
sg4
VDropCatch.com 533 LLC
p2597
sa(dp2598
g2
I1
sg3
I35
sg4
VDropCatch.com 910 LLC
p2599
sa(dp2600
g2
I0
sg3
I47
sg4
VDropCatch.com 911 LLC
p2601
sa(dp2602
g2
I0
sg3
I50
sg4
VDropCatch.com 534 LLC
p2603
sa(dp2604
g2
I6
sg3
I536
sg4
VJapan Registry Services Co.,Ltd.(JPRS)
p2605
sa(dp2606
g2
I0
sg3
I16
sg4
VJoan of Arc, LLC
p2607
sa(dp2608
g2
I0
sg3
I13
sg4
VJoyeuse, LLC
p2609
sa(dp2610
g2
I0
sg3
I48
sg4
VDropCatch.com 912 LLC
p2611
sa(dp2612
g2
I0
sg3
I15
sg4
VJulius Caesar, LLC
p2613
sa(dp2614
g2
I0
sg3
I57
sg4
VDropCatch.com 535 LLC
p2615
sa(dp2616
g2
I0
sg3
I8
sg4
VJumbo Name, Inc
p2617
sa(dp2618
g2
I0
sg3
I9
sg4
VJumpshot Domains LLC
p2619
sa(dp2620
g2
I0
sg3
I1
sg4
VKAGOYA JAPAN INC.
p2621
sa(dp2622
g2
I0
sg3
I9
sg4
VKAUNAS UNIVERSITY OF TECHNOLOGY INFORMATION TECHNOLOGY DEVELOPMENT INSTITUTE DBA DOMREG.LT
p2623
sa(dp2624
g2
I0
sg3
I44
sg4
VDropCatch.com 913 LLC
p2625
sa(dp2626
g2
I0
sg3
I44
sg4
VDropCatch.com 536 LLC
p2627
sa(dp2628
g2
I0
sg3
I59
sg4
VKEY-SYSTEMS GMBH
p2629
sa(dp2630
g2
I0
sg3
I46
sg4
VDropCatch.com 914 LLC
p2631
sa(dp2632
g2
I0
sg3
I2
sg4
VKHEWEUL.COM SA
p2633
sa(dp2634
g2
I0
sg3
I5
sg4
VKINGDOMAINS, INCORPORATED
p2635
sa(dp2636
g2
I1
sg3
I55
sg4
VDropCatch.com 537 LLC
p2637
sa(dp2638
g2
I1
sg3
I20
sg4
VKINX Co., Ltd.
p2639
sa(dp2640
g2
I35
sg3
I1450
sg4
VTLDS, LLC DBA SRSPLUS
p2641
sa(dp2642
g2
I0
sg3
I4
sg4
VTODAYNIC.COM, INC.
p2643
sa(dp2644
g2
I0
sg3
I65
sg4
VDropCatch.com 915 LLC
p2645
sa(dp2646
g2
I1
sg3
I52
sg4
VDropCatch.com 538 LLC
p2647
sa(dp2648
g2
I0
sg3
I52
sg4
VDropCatch.com 916 LLC
p2649
sa(dp2650
g2
I0
sg3
I72
sg4
VTOP LEVEL DOMAINS LLC
p2651
sa(dp2652
g2
I1
sg3
I96
sg4
VKLAATUDOMAINS.COM LLC
p2653
sa(dp2654
g2
I0
sg3
I54
sg4
VDropCatch.com 539 LLC
p2655
sa(dp2656
g2
I0
sg3
I49
sg4
VDropCatch.com 917 LLC
p2657
sa(dp2658
g2
I0
sg3
I69
sg4
VTOP PICK NAMES LLC
p2659
sa(dp2660
g2
I0
sg3
I57
sg4
VDropCatch.com 540 LLC
p2661
sa(dp2662
g2
I0
sg3
I50
sg4
VDropCatch.com 918 LLC
p2663
sa(dp2664
g2
I1
sg3
I107
sg4
VKOREA SERVER HOSTING INC.
p2665
sa(dp2666
g2
I1
sg3
I55
sg4
VDropCatch.com 541 LLC
p2667
sa(dp2668
g2
I0
sg3
I70
sg4
VTOP SHELF DOMAINS LLC
p2669
sa(dp2670
g2
I0
sg3
I50
sg4
VDropCatch.com 919 LLC
p2671
sa(dp2672
g2
I0
sg3
I58
sg4
VDropCatch.com 542 LLC
p2673
sa(dp2674
g2
I0
sg3
I45
sg4
VDropCatch.com 920 LLC
p2675
sa(dp2676
g2
I1
sg3
I84
sg4
VTOP TIER DOMAINS LLC
p2677
sa(dp2678
g2
I8
sg3
I917
sg4
VNetArt Sp. z o.o.
p2679
sa(dp2680
g2
I0
sg3
I54
sg4
VDropCatch.com 921 LLC
p2681
sa(dp2682
g2
I0
sg3
I66
sg4
VDropCatch.com 543 LLC
p2683
sa(dp2684
g2
I0
sg3
I57
sg4
VDropCatch.com 922 LLC
p2685
sa(dp2686
g2
I0
sg3
I77
sg4
VTOPSYSTEM LLC
p2687
sa(dp2688
g2
I0
sg3
I3
sg4
VTOTAL WEB SOLUTIONS LIMITED TRADING AS TOTALREGISTRATIONS
p2689
sa(dp2690
g2
I2
sg3
I51
sg4
VDropCatch.com 544 LLC
p2691
sa(dp2692
g2
I0
sg3
I59
sg4
VDropCatch.com 923 LLC
p2693
sa(dp2694
g2
I0
sg3
I50
sg4
VDropCatch.com 545 LLC
p2695
sa(dp2696
g2
I0
sg3
I45
sg4
VDropCatch.com 924 LLC
p2697
sa(dp2698
g2
I1
sg3
I93
sg4
VTOTALLYDOMAIN LLC
p2699
sa(dp2700
g2
I0
sg3
I63
sg4
VDropCatch.com 546 LLC
p2701
sa(dp2702
g2
I0
sg3
I59
sg4
VDropCatch.com 925 LLC
p2703
sa(dp2704
g2
I1
sg3
I39
sg4
VDropCatch.com 547 LLC
p2705
sa(dp2706
g2
I0
sg3
I79
sg4
VTOUCHDOWN DOMAINS LLC
p2707
sa(dp2708
g2
I0
sg3
I35
sg4
VTPP Internet Pty Ltd
p2709
sa(dp2710
g2
I0
sg3
I399
sg4
VKQW, INC.
p2711
sa(dp2712
g2
I0
sg3
I63
sg4
VDropCatch.com 926 LLC
p2713
sa(dp2714
g2
I0
sg3
I7
sg4
VTPP WHOLESALE PTY LTD.
p2715
sa(dp2716
g2
I0
sg3
I5
sg4
VKQW, Inc.
p2717
sa(dp2718
g2
I0
sg3
I6
sg4
VKagoya Japan Inc.
p2719
sa(dp2720
g2
I0
sg3
I67
sg4
VDropCatch.com 548 LLC
p2721
sa(dp2722
g2
I0
sg3
I9
sg4
VKarl Von Clausewitz, LLC
p2723
sa(dp2724
g2
I0
sg3
I8
sg4
VKey Registrar, Inc
p2725
sa(dp2726
g2
I0
sg3
I57
sg4
VDropCatch.com 927 LLC
p2727
sa(dp2728
g2
I0
sg3
I64
sg4
VDropCatch.com 549 LLC
p2729
sa(dp2730
g2
I1
sg3
I64
sg4
VDropCatch.com 928 LLC
p2731
sa(dp2732
g2
I0
sg3
I57
sg4
VDropCatch.com 550 LLC
p2733
sa(dp2734
g2
I0
sg3
I46
sg4
VDropCatch.com 929 LLC
p2735
sa(dp2736
g2
I0
sg3
I63
sg4
VDropCatch.com 551 LLC
p2737
sa(dp2738
g2
I1
sg3
I62
sg4
VDropCatch.com 930 LLC
p2739
sa(dp2740
g2
I0
sg3
I58
sg4
VDropCatch.com 552 LLC
p2741
sa(dp2742
g2
I0
sg3
I69
sg4
VDropCatch.com 931 LLC
p2743
sa(dp2744
g2
I0
sg3
I64
sg4
VDropCatch.com 553 LLC
p2745
sa(dp2746
g2
I0
sg3
I57
sg4
VDropCatch.com 932 LLC
p2747
sa(dp2748
g2
I0
sg3
I70
sg4
VDropCatch.com 554 LLC
p2749
sa(dp2750
g2
I0
sg3
I48
sg4
VDropCatch.com 933 LLC
p2751
sa(dp2752
g2
I0
sg3
I41
sg4
VDropCatch.com 934 LLC
p2753
sa(dp2754
g2
I1
sg3
I55
sg4
VDropCatch.com 555 LLC
p2755
sa(dp2756
g2
I0
sg3
I36
sg4
VDropCatch.com 935 LLC
p2757
sa(dp2758
g2
I0
sg3
I70
sg4
VDropCatch.com 556 LLC
p2759
sa(dp2760
g2
I0
sg3
I52
sg4
VDropCatch.com 936 LLC
p2761
sa(dp2762
g2
I0
sg3
I59
sg4
VDropCatch.com 557 LLC
p2763
sa(dp2764
g2
I0
sg3
I52
sg4
VDropCatch.com 937 LLC
p2765
sa(dp2766
g2
I1
sg3
I51
sg4
VDropCatch.com 558 LLC
p2767
sa(dp2768
g2
I0
sg3
I50
sg4
VDropCatch.com 938 LLC
p2769
sa(dp2770
g2
I1
sg3
I52
sg4
VDropCatch.com 559 LLC
p2771
sa(dp2772
g2
I1
sg3
I65
sg4
VDropCatch.com 939 LLC
p2773
sa(dp2774
g2
I0
sg3
I41
sg4
VDropCatch.com 940 LLC
p2775
sa(dp2776
g2
I0
sg3
I61
sg4
VDropCatch.com 560 LLC
p2777
sa(dp2778
g2
I0
sg3
I46
sg4
VDropCatch.com 561 LLC
p2779
sa(dp2780
g2
I0
sg3
I60
sg4
VDropCatch.com 941 LLC
p2781
sa(dp2782
g2
I0
sg3
I48
sg4
VDropCatch.com 562 LLC
p2783
sa(dp2784
g2
I0
sg3
I55
sg4
VDropCatch.com 942 LLC
p2785
sa(dp2786
g2
I0
sg3
I56
sg4
VDropCatch.com 563 LLC
p2787
sa(dp2788
g2
I1
sg3
I48
sg4
VDropCatch.com 943 LLC
p2789
sa(dp2790
g2
I0
sg3
I51
sg4
VDropCatch.com 564 LLC
p2791
sa(dp2792
g2
I0
sg3
I47
sg4
VDropCatch.com 944 LLC
p2793
sa(dp2794
g2
I0
sg3
I54
sg4
VDropCatch.com 565 LLC
p2795
sa(dp2796
g2
I0
sg3
I54
sg4
VDropCatch.com 945 LLC
p2797
sa(dp2798
g2
I0
sg3
I48
sg4
VDropCatch.com 946 LLC
p2799
sa(dp2800
g2
I0
sg3
I66
sg4
VDropCatch.com 566 LLC
p2801
sa(dp2802
g2
I1
sg3
I38
sg4
VDropCatch.com 567 LLC
p2803
sa(dp2804
g2
I0
sg3
I59
sg4
VDropCatch.com 947 LLC
p2805
sa(dp2806
g2
I21
sg3
I1148
sg4
VTPP Wholesale Pty Ltd
p2807
sa(dp2808
g2
I0
sg3
I44
sg4
VDropCatch.com 568 LLC
p2809
sa(dp2810
g2
I0
sg3
I55
sg4
VDropCatch.com 948 LLC
p2811
sa(dp2812
g2
I0
sg3
I64
sg4
VDropCatch.com 569 LLC
p2813
sa(dp2814
g2
I0
sg3
I62
sg4
VDropCatch.com 949 LLC
p2815
sa(dp2816
g2
I0
sg3
I46
sg4
VDropCatch.com 570 LLC
p2817
sa(dp2818
g2
I0
sg3
I52
sg4
VDropCatch.com 950 LLC
p2819
sa(dp2820
g2
I1
sg3
I54
sg4
VDropCatch.com 571 LLC
p2821
sa(dp2822
g2
I0
sg3
I57
sg4
VDropCatch.com 951 LLC
p2823
sa(dp2824
g2
I0
sg3
I43
sg4
VDropCatch.com 952 LLC
p2825
sa(dp2826
g2
I0
sg3
I64
sg4
VDropCatch.com 572 LLC
p2827
sa(dp2828
g2
I96
sg3
I10636
sg4
VDYNADOT, LLC
p2829
sa(dp2830
g2
I1
sg3
I53
sg4
VDropCatch.com 953 LLC
p2831
sa(dp2832
g2
I1
sg3
I57
sg4
VDropCatch.com 573 LLC
p2833
sa(dp2834
g2
I4
sg3
I346
sg4
VTRADENAMED LLC
p2835
sa(dp2836
g2
I0
sg3
I51
sg4
VDropCatch.com 574 LLC
p2837
sa(dp2838
g2
I0
sg3
I68
sg4
VDropCatch.com 954 LLC
p2839
sa(dp2840
g2
I0
sg3
I110
sg4
VDYNADOT10 LLC
p2841
sa(dp2842
g2
I0
sg3
I48
sg4
VDropCatch.com 955 LLC
p2843
sa(dp2844
g2
I0
sg3
I57
sg4
VDropCatch.com 575 LLC
p2845
sa(dp2846
g2
I0
sg3
I96
sg4
VTRADEWINDS NAMES, LLC
p2847
sa(dp2848
g2
I0
sg3
I48
sg4
VDropCatch.com 956 LLC
p2849
sa(dp2850
g2
I0
sg3
I92
sg4
VDYNADOT11 LLC
p2851
sa(dp2852
g2
I0
sg3
I11
sg4
VTRAFFIC NAMES, INCORPORATED
p2853
sa(dp2854
g2
I0
sg3
I4
sg4
VTRAVELDOMAINS, INCORPORATED
p2855
sa(dp2856
g2
I0
sg3
I61
sg4
VDropCatch.com 576 LLC
p2857
sa(dp2858
g2
I0
sg3
I54
sg4
VDropCatch.com 957 LLC
p2859
sa(dp2860
g2
I0
sg3
I49
sg4
VDropCatch.com 577 LLC
p2861
sa(dp2862
g2
I0
sg3
I37
sg4
VDropCatch.com 958 LLC
p2863
sa(dp2864
g2
I0
sg3
I78
sg4
VTREASURE TROVE DOMAINS LLC
p2865
sa(dp2866
g2
I1
sg3
I91
sg4
VDYNADOT12 LLC
p2867
sa(dp2868
g2
I2
sg3
I65
sg4
VDropCatch.com 578 LLC
p2869
sa(dp2870
g2
I0
sg3
I58
sg4
VDropCatch.com 959 LLC
p2871
sa(dp2872
g2
I0
sg3
I57
sg4
VDropCatch.com 579 LLC
p2873
sa(dp2874
g2
I0
sg3
I98
sg4
VDYNADOT3 LLC
p2875
sa(dp2876
g2
I0
sg3
I51
sg4
VDropCatch.com 960 LLC
p2877
sa(dp2878
g2
I0
sg3
I57
sg4
VDropCatch.com 580 LLC
p2879
sa(dp2880
g2
I0
sg3
I58
sg4
VDropCatch.com 961 LLC
p2881
sa(dp2882
g2
I0
sg3
I58
sg4
VDropCatch.com 581 LLC
p2883
sa(dp2884
g2
I0
sg3
I49
sg4
VDropCatch.com 962 LLC
p2885
sa(dp2886
g2
I1
sg3
I111
sg4
VDYNADOT4 LLC
p2887
sa(dp2888
g2
I8
sg3
I210
sg4
VTRUNKOZ TECHNOLOGIES PVT LTD. D/B/A OWNREGISTRAR.COM
p2889
sa(dp2890
g2
I1
sg3
I50
sg4
VDropCatch.com 963 LLC
p2891
sa(dp2892
g2
I0
sg3
I69
sg4
VDropCatch.com 582 LLC
p2893
sa(dp2894
g2
I0
sg3
I95
sg4
VDYNADOT5 LLC
p2895
sa(dp2896
g2
I1
sg3
I47
sg4
VDropCatch.com 964 LLC
p2897
sa(dp2898
g2
I0
sg3
I57
sg4
VDropCatch.com 583 LLC
p2899
sa(dp2900
g2
I0
sg3
I47
sg4
VDropCatch.com 965 LLC
p2901
sa(dp2902
g2
I2
sg3
I51
sg4
VDropCatch.com 584 LLC
p2903
sa(dp2904
g2
I2
sg3
I93
sg4
VDYNADOT6 LLC
p2905
sa(dp2906
g2
I1
sg3
I48
sg4
VDropCatch.com 966 LLC
p2907
sa(dp2908
g2
I0
sg3
I51
sg4
VDropCatch.com 967 LLC
p2909
sa(dp2910
g2
I0
sg3
I70
sg4
VDropCatch.com 585 LLC
p2911
sa(dp2912
g2
I0
sg3
I53
sg4
VDropCatch.com 968 LLC
p2913
sa(dp2914
g2
I0
sg3
I56
sg4
VDropCatch.com 586 LLC
p2915
sa(dp2916
g2
I2
sg3
I125
sg4
VDYNADOT7 LLC
p2917
sa(dp2918
g2
I80
sg3
I2473
sg4
VNetEarth One, Inc.
p2919
sa(dp2920
g2
I0
sg3
I53
sg4
VDropCatch.com 969 LLC
p2921
sa(dp2922
g2
I0
sg3
I62
sg4
VDropCatch.com 587 LLC
p2923
sa(dp2924
g2
I0
sg3
I38
sg4
VNetdorm, Inc. dba DNSExit.com
p2925
sa(dp2926
g2
I0
sg3
I2
sg4
VNetestate, LLC
p2927
sa(dp2928
g2
I0
sg3
I1
sg4
VNetistrar Ltd
p2929
sa(dp2930
g2
I1
sg3
I95
sg4
VDYNADOT8 LLC
p2931
sa(dp2932
g2
I1
sg3
I60
sg4
VDropCatch.com 970 LLC
p2933
sa(dp2934
g2
I0
sg3
I47
sg4
VDropCatch.com 588 LLC
p2935
sa(dp2936
g2
I0
sg3
I51
sg4
VDropCatch.com 971 LLC
p2937
sa(dp2938
g2
I0
sg3
I50
sg4
VDropCatch.com 589 LLC
p2939
sa(dp2940
g2
I1
sg3
I96
sg4
VDYNADOT9 LLC
p2941
sa(dp2942
g2
I0
sg3
I57
sg4
VDropCatch.com 972 LLC
p2943
sa(dp2944
g2
I0
sg3
I48
sg4
VDropCatch.com 590 LLC
p2945
sa(dp2946
g2
I0
sg3
I56
sg4
VDropCatch.com 591 LLC
p2947
sa(dp2948
g2
I0
sg3
I59
sg4
VDropCatch.com 973 LLC
p2949
sa(dp2950
g2
I1
sg3
I59
sg4
VDropCatch.com 974 LLC
p2951
sa(dp2952
g2
I0
sg3
I63
sg4
VDropCatch.com 592 LLC
p2953
sa(dp2954
g2
I0
sg3
I60
sg4
VDropCatch.com 975 LLC
p2955
sa(dp2956
g2
I0
sg3
I59
sg4
VDropCatch.com 593 LLC
p2957
sa(dp2958
g2
I0
sg3
I55
sg4
VDropCatch.com 976 LLC
p2959
sa(dp2960
g2
I0
sg3
I54
sg4
VDropCatch.com 594 LLC
p2961
sa(dp2962
g2
I0
sg3
I52
sg4
VDropCatch.com 595 LLC
p2963
sa(dp2964
g2
I1
sg3
I65
sg4
VDropCatch.com 977 LLC
p2965
sa(dp2966
g2
I0
sg3
I65
sg4
VDropCatch.com 978 LLC
p2967
sa(dp2968
g2
I0
sg3
I66
sg4
VDropCatch.com 596 LLC
p2969
sa(dp2970
g2
I63
sg3
I377
sg4
VDYNAMIC NETWORK SERVICES, INC
p2971
sa(dp2972
g2
I0
sg3
I1
sg4
VDagnabit, Incorporated
p2973
sa(dp2974
g2
I0
sg3
I12
sg4
VDainam, LLC
p2975
sa(dp2976
g2
I0
sg3
I6
sg4
VDalai Lama, LLC
p2977
sa(dp2978
g2
I0
sg3
I1
sg4
VDanCue Inc.
p2979
sa(dp2980
g2
I0
sg3
I50
sg4
VDropCatch.com 979 LLC
p2981
sa(dp2982
g2
I0
sg3
I65
sg4
VDropCatch.com 597 LLC
p2983
sa(dp2984
g2
I0
sg3
I61
sg4
VDropCatch.com 980 LLC
p2985
sa(dp2986
g2
I0
sg3
I52
sg4
VDropCatch.com 598 LLC
p2987
sa(dp2988
g2
I0
sg3
I46
sg4
VDropCatch.com 981 LLC
p2989
sa(dp2990
g2
I2
sg3
I119
sg4
VDanDomain A/S
p2991
sa(dp2992
g2
I0
sg3
I53
sg4
VDropCatch.com 599 LLC
p2993
sa(dp2994
g2
I0
sg3
I1
sg4
VDancue Inc
p2995
sa(dp2996
g2
I0
sg3
I3
sg4
VDeep Dive Domains, LLC
p2997
sa(dp2998
g2
I1
sg3
I665
sg4
VNetowl, Inc.
p2999
sa(dp3000
g2
I0
sg3
I7
sg4
VDeep Sea Domains LLC
p3001
sa(dp3002
g2
I0
sg3
I2
sg4
VDeep Water Domains LLC
p3003
sa(dp3004
g2
I0
sg3
I7
sg4
VDeleting Name Zone LLC
p3005
sa(dp3006
g2
I0
sg3
I46
sg4
VDropCatch.com 600 LLC
p3007
sa(dp3008
g2
I1
sg3
I46
sg4
VNetpia.com, Inc.
p3009
sa(dp3010
g2
I0
sg3
I66
sg4
VDropCatch.com 982 LLC
p3011
sa(dp3012
g2
I0
sg3
I48
sg4
VDropCatch.com 601 LLC
p3013
sa(dp3014
g2
I0
sg3
I51
sg4
VDropCatch.com 983 LLC
p3015
sa(dp3016
g2
I0
sg3
I46
sg4
VDropCatch.com 602 LLC
p3017
sa(dp3018
g2
I0
sg3
I60
sg4
VDropCatch.com 984 LLC
p3019
sa(dp3020
g2
I0
sg3
I61
sg4
VDropCatch.com 603 LLC
p3021
sa(dp3022
g2
I0
sg3
I55
sg4
VDropCatch.com 985 LLC
p3023
sa(dp3024
g2
I1
sg3
I51
sg4
VDropCatch.com 604 LLC
p3025
sa(dp3026
g2
I1
sg3
I54
sg4
VDropCatch.com 986 LLC
p3027
sa(dp3028
g2
I0
sg3
I53
sg4
VDropCatch.com 605 LLC
p3029
sa(dp3030
g2
I0
sg3
I56
sg4
VDropCatch.com 987 LLC
p3031
sa(dp3032
g2
I0
sg3
I53
sg4
VDropCatch.com 606 LLC
p3033
sa(dp3034
g2
I1
sg3
I64
sg4
VDropCatch.com 988 LLC
p3035
sa(dp3036
g2
I1
sg3
I56
sg4
VDropCatch.com 607 LLC
p3037
sa(dp3038
g2
I0
sg3
I33
sg4
VDropCatch.com 989 LLC
p3039
sa(dp3040
g2
I0
sg3
I48
sg4
VDropCatch.com 990 LLC
p3041
sa(dp3042
g2
I1
sg3
I62
sg4
VDropCatch.com 608 LLC
p3043
sa(dp3044
g2
I1
sg3
I49
sg4
VDropCatch.com 991 LLC
p3045
sa(dp3046
g2
I0
sg3
I51
sg4
VDropCatch.com 609 LLC
p3047
sa(dp3048
g2
I0
sg3
I55
sg4
VDropCatch.com 992 LLC
p3049
sa(dp3050
g2
I0
sg3
I63
sg4
VDropCatch.com 610 LLC
p3051
sa(dp3052
g2
I0
sg3
I52
sg4
VDropCatch.com 993 LLC
p3053
sa(dp3054
g2
I0
sg3
I42
sg4
VDropCatch.com 611 LLC
p3055
sa(dp3056
g2
I0
sg3
I54
sg4
VDropCatch.com 994 LLC
p3057
sa(dp3058
g2
I1
sg3
I53
sg4
VDropCatch.com 612 LLC
p3059
sa(dp3060
g2
I0
sg3
I48
sg4
VDropCatch.com 995 LLC
p3061
sa(dp3062
g2
I0
sg3
I53
sg4
VDropCatch.com 613 LLC
p3063
sa(dp3064
g2
I0
sg3
I51
sg4
VDropCatch.com 996 LLC
p3065
sa(dp3066
g2
I0
sg3
I60
sg4
VDropCatch.com 614 LLC
p3067
sa(dp3068
g2
I0
sg3
I57
sg4
VDropCatch.com 997 LLC
p3069
sa(dp3070
g2
I0
sg3
I52
sg4
VDropCatch.com 615 LLC
p3071
sa(dp3072
g2
I0
sg3
I35
sg4
VDropCatch.com 998 LLC
p3073
sa(dp3074
g2
I1
sg3
I65
sg4
VDropCatch.com 616 LLC
p3075
sa(dp3076
g2
I0
sg3
I53
sg4
VDropCatch.com 999 LLC
p3077
sa(dp3078
g2
I0
sg3
I1
sg4
VDropExtra.com, Inc.
p3079
sa(dp3080
g2
I0
sg3
I6
sg4
VDropFall
p3081
sa(dp3082
g2
I0
sg3
I3
sg4
VDropFall.com, Inc.
p3083
sa(dp3084
g2
I0
sg3
I4
sg4
VDropHub
p3085
sa(dp3086
g2
I0
sg3
I1
sg4
VDropJump
p3087
sa(dp3088
g2
I0
sg3
I2
sg4
VDropSave
p3089
sa(dp3090
g2
I0
sg3
I2
sg4
VDropSave.com, Inc.
p3091
sa(dp3092
g2
I0
sg3
I2
sg4
VDropWalk
p3093
sa(dp3094
g2
I0
sg3
I4
sg4
VDropWalk.com, Inc.
p3095
sa(dp3096
g2
I1
sg3
I4
sg4
VDropWeek.com, Inc.
p3097
sa(dp3098
g2
I0
sg3
I10
sg4
VDropcatch Auction LLC
p3099
sa(dp3100
g2
I0
sg3
I8
sg4
VDropcatch Landing Spot LLC
p3101
sa(dp3102
g2
I0
sg3
I4
sg4
VDropcatch Marketplace LLC
p3103
sa(dp3104
g2
I0
sg3
I7
sg4
VDropcatching Names LLC
p3105
sa(dp3106
g2
I0
sg3
I1
sg4
VDropoutlet, Incorporated
p3107
sa(dp3108
g2
I0
sg3
I63
sg4
VDropCatch.com 617 LLC
p3109
sa(dp3110
g2
I0
sg3
I8
sg4
VDuckBilledDomains.com LLC
p3111
sa(dp3112
g2
I0
sg3
I10
sg4
VDwight D. Eisenhower, LLC
p3113
sa(dp3114
g2
I0
sg3
I45
sg4
VDropCatch.com 618 LLC
p3115
sa(dp3116
g2
I0
sg3
I55
sg4
VDropCatch.com 619 LLC
p3117
sa(dp3118
g2
I0
sg3
I99
sg4
VEAGLE EYE DOMAINS, LLC
p3119
sa(dp3120
g2
I0
sg3
I49
sg4
VDropCatch.com 620 LLC
p3121
sa(dp3122
g2
I0
sg3
I42
sg4
VDropCatch.com 621 LLC
p3123
sa(dp3124
g2
I27
sg3
I1214
sg4
VDeluxe Small Business Sales, Inc. d/b/a Aplus.net
p3125
sa(dp3126
g2
I1
sg3
I8
sg4
VDemys Limited
p3127
sa(dp3128
g2
I0
sg3
I1
sg4
VDeschutesdomains.com LLC
p3129
sa(dp3130
g2
I0
sg3
I6
sg4
VDesert Sand Domains, LLC
p3131
sa(dp3132
g2
I0
sg3
I49
sg4
VDropCatch.com 622 LLC
p3133
sa(dp3134
g2
I0
sg3
I124
sg4
VEASTEND DOMAINS, LLC
p3135
sa(dp3136
g2
I58
sg3
I1192
sg4
VNetregistry Pty Ltd
p3137
sa(dp3138
g2
I0
sg3
I1
sg4
VNetwork Savior, Inc
p3139
sa(dp3140
g2
I0
sg3
I2
sg4
VNew Order Domains, LLC
p3141
sa(dp3142
g2
I3
sg3
I48
sg4
VDeutsche Telekom AG
p3143
sa(dp3144
g2
I0
sg3
I8
sg4
VDevilDogDomains.com, LLC
p3145
sa(dp3146
g2
I1
sg3
I65
sg4
VDropCatch.com 623 LLC
p3147
sa(dp3148
g2
I0
sg3
I96
sg4
VEASY STREET DOMAINS, LLC
p3149
sa(dp3150
g2
I0
sg3
I80
sg4
VDropCatch.com 624 LLC
p3151
sa(dp3152
g2
I0
sg3
I57
sg4
VDropCatch.com 625 LLC
p3153
sa(dp3154
g2
I0
sg3
I51
sg4
VDropCatch.com 626 LLC
p3155
sa(dp3156
g2
I0
sg3
I46
sg4
VDropCatch.com 627 LLC
p3157
sa(dp3158
g2
I0
sg3
I233
sg4
VEASYDNS TECHNOLOGIES, INC.
p3159
sa(dp3160
g2
I0
sg3
I40
sg4
VDropCatch.com 628 LLC
p3161
sa(dp3162
g2
I1
sg3
I47
sg4
VDropCatch.com 629 LLC
p3163
sa(dp3164
g2
I1
sg3
I115
sg4
VEASYSPACE LTD.
p3165
sa(dp3166
g2
I0
sg3
I60
sg4
VDropCatch.com 630 LLC
p3167
sa(dp3168
g2
I0
sg3
I40
sg4
VDropCatch.com 631 LLC
p3169
sa(dp3170
g2
I0
sg3
I107
sg4
VECHODOMAIN LLC
p3171
sa(dp3172
g2
I0
sg3
I54
sg4
VDropCatch.com 632 LLC
p3173
sa(dp3174
g2
I0
sg3
I18
sg4
VEIMS (SHENZHEN) CULTURE & TECHNOLOGY CO., LTD
p3175
sa(dp3176
g2
I1
sg3
I563
sg4
VNhan Hoa Software Company Ltd.
p3177
sa(dp3178
g2
I1
sg3
I4
sg4
VNic1, Inc
p3179
sa(dp3180
g2
I0
sg3
I1
sg4
VNicco Ltd.
p3181
sa(dp3182
g2
I0
sg3
I50
sg4
VDropCatch.com 633 LLC
p3183
sa(dp3184
g2
I0
sg3
I34
sg4
VNordreg AB
p3185
sa(dp3186
g2
I0
sg3
I6
sg4
VNorthNames Inc.
p3187
sa(dp3188
g2
I0
sg3
I3
sg4
VNotSoFamousNames.com LLC
p3189
sa(dp3190
g2
I0
sg3
I2
sg4
VNoteworthydomains, LLC
p3191
sa(dp3192
g2
I0
sg3
I59
sg4
VDropCatch.com 634 LLC
p3193
sa(dp3194
g2
I0
sg3
I61
sg4
VDropCatch.com 635 LLC
p3195
sa(dp3196
g2
I0
sg3
I52
sg4
VDropCatch.com 636 LLC
p3197
sa(dp3198
g2
I0
sg3
I57
sg4
VDropCatch.com 637 LLC
p3199
sa(dp3200
g2
I0
sg3
I60
sg4
VDropCatch.com 638 LLC
p3201
sa(dp3202
g2
I23
sg3
I902
sg4
VDinahosting s.l.
p3203
sa(dp3204
g2
I0
sg3
I56
sg4
VDropCatch.com 639 LLC
p3205
sa(dp3206
g2
I0
sg3
I20
sg4
VDiscount Domains UK Ltd.
p3207
sa(dp3208
g2
I3
sg3
I27
sg4
VDomReg Ltd. d/b/a LIBRIS.COM
p3209
sa(dp3210
g2
I0
sg3
I3
sg4
VDomain Ala Carte, LLC
p3211
sa(dp3212
g2
I0
sg3
I3
sg4
VDomain Band, Inc
p3213
sa(dp3214
g2
I1
sg3
I56
sg4
VDropCatch.com 640 LLC
p3215
sa(dp3216
g2
I0
sg3
I8
sg4
VDomain Bazaar LLC
p3217
sa(dp3218
g2
I3
sg3
I377
sg4
VNoticedDomains LLC
p3219
sa(dp3220
g2
I0
sg3
I47
sg4
VDropCatch.com 641 LLC
p3221
sa(dp3222
g2
I0
sg3
I58
sg4
VDropCatch.com 642 LLC
p3223
sa(dp3224
g2
I0
sg3
I110
sg4
VOCTOPUSDOMAINS.NET LLC
p3225
sa(dp3226
g2
I0
sg3
I12
sg4
VOI INTERNET S/A
p3227
sa(dp3228
g2
I0
sg3
I52
sg4
VDropCatch.com 643 LLC
p3229
sa(dp3230
g2
I6
sg3
I191
sg4
VDomain Central Australia Pty Ltd.
p3231
sa(dp3232
g2
I0
sg3
I4
sg4
VDomain Collage, LLC
p3233
sa(dp3234
g2
I0
sg3
I49
sg4
VDropCatch.com 644 LLC
p3235
sa(dp3236
g2
I1
sg3
I37
sg4
VDomain Cost Club
p3237
sa(dp3238
g2
I0
sg3
I3
sg4
VDomain Esta Aqui, LLC
p3239
sa(dp3240
g2
I0
sg3
I6
sg4
VDomain Gold Zone LLC
p3241
sa(dp3242
g2
I0
sg3
I108
sg4
VOLD TYME DOMAINS, LLC
p3243
sa(dp3244
g2
I0
sg3
I7
sg4
VDomain Grabber LLC
p3245
sa(dp3246
g2
I1
sg3
I15
sg4
VDomain Jamboree, LLC.
p3247
sa(dp3248
g2
I0
sg3
I10
sg4
VDomain Landing Zone LLC
p3249
sa(dp3250
g2
I0
sg3
I5
sg4
VDomain Lifestyle, LLC
p3251
sa(dp3252
g2
I0
sg3
I3
sg4
VDomain Locale, LLC
p3253
sa(dp3254
g2
I0
sg3
I3
sg4
VDomain Mantra, Inc
p3255
sa(dp3256
g2
I0
sg3
I7
sg4
VDomain Monkeys, LLC
p3257
sa(dp3258
g2
I0
sg3
I1
sg4
VDomain Name Origin, LLC
p3259
sa(dp3260
g2
I0
sg3
I4
sg4
VDomain Name Root, LLC
p3261
sa(dp3262
g2
I0
sg3
I1
sg4
VDomain Original, LLC
p3263
sa(dp3264
g2
I1
sg3
I73
sg4
VDropCatch.com 645 LLC
p3265
sa(dp3266
g2
I0
sg3
I6
sg4
VDomain Pickup LLC
p3267
sa(dp3268
g2
I0
sg3
I9
sg4
VDomain Secure LLC
p3269
sa(dp3270
g2
I0
sg3
I11
sg4
VDomain Source LLC
p3271
sa(dp3272
g2
I0
sg3
I4
sg4
VDomain Stopover LLC
p3273
sa(dp3274
g2
I0
sg3
I7
sg4
VDomain Success LLC
p3275
sa(dp3276
g2
I0
sg3
I20
sg4
VDomain-It!
p3277
sa(dp3278
g2
I0
sg3
I58
sg4
VDropCatch.com 646 LLC
p3279
sa(dp3280
g2
I1
sg3
I144
sg4
VOLDTOWNDOMAINS.COM LLC
p3281
sa(dp3282
g2
I1
sg3
I59
sg4
VDropCatch.com 647 LLC
p3283
sa(dp3284
g2
I0
sg3
I46
sg4
VDropCatch.com 648 LLC
p3285
sa(dp3286
g2
I0
sg3
I96
sg4
VOLDWORLDALIASES.COM LLC
p3287
sa(dp3288
g2
I0
sg3
I6
sg4
VOMNIS NETWORK, LLC
p3289
sa(dp3290
g2
I0
sg3
I7
sg4
VONE PUTT  INC.
p3291
sa(dp3292
g2
I0
sg3
I2
sg4
VONLIDE INC
p3293
sa(dp3294
g2
I0
sg3
I3
sg4
VONLINE DATA SERVICES JOINT STOCK COMPANY
p3295
sa(dp3296
g2
I0
sg3
I58
sg4
VDropCatch.com 649 LLC
p3297
sa(dp3298
g2
I0
sg3
I48
sg4
VDropCatch.com 650 LLC
p3299
sa(dp3300
g2
I0
sg3
I56
sg4
VDropCatch.com 651 LLC
p3301
sa(dp3302
g2
I0
sg3
I68
sg4
VDropCatch.com 652 LLC
p3303
sa(dp3304
g2
I0
sg3
I46
sg4
VDropCatch.com 653 LLC
p3305
sa(dp3306
g2
I187
sg3
I323
sg4
VDomain.com, LLC
p3307
sa(dp3308
g2
I0
sg3
I54
sg4
VDropCatch.com 654 LLC
p3309
sa(dp3310
g2
I0
sg3
I47
sg4
VDropCatch.com 655 LLC
p3311
sa(dp3312
g2
I0
sg3
I47
sg4
VDropCatch.com 656 LLC
p3313
sa(dp3314
g2
I0
sg3
I50
sg4
VDropCatch.com 657 LLC
p3315
sa(dp3316
g2
I0
sg3
I49
sg4
VDropCatch.com 658 LLC
p3317
sa(dp3318
g2
I0
sg3
I47
sg4
VDropCatch.com 659 LLC
p3319
sa(dp3320
g2
I0
sg3
I58
sg4
VDropCatch.com 660 LLC
p3321
sa(dp3322
g2
I24
sg3
I587
sg4
VONLINE SAS
p3323
sa(dp3324
g2
I1
sg3
I47
sg4
VDropCatch.com 661 LLC
p3325
sa(dp3326
g2
I1
sg3
I44
sg4
VDropCatch.com 662 LLC
p3327
sa(dp3328
g2
I21
sg3
I1566
sg4
VEIMS (Shenzhen) Culture & Technology Co., Ltd
p3329
sa(dp3330
g2
I1
sg3
I71
sg4
VDropCatch.com 663 LLC
p3331
sa(dp3332
g2
I2
sg3
I110
sg4
VEJEE GROUP HOLDINGS LIMITED
p3333
sa(dp3334
g2
I0
sg3
I1
sg4
VELB GROUP, INC.
p3335
sa(dp3336
g2
I0
sg3
I51
sg4
VDropCatch.com 664 LLC
p3337
sa(dp3338
g2
I0
sg3
I49
sg4
VDropCatch.com 665 LLC
p3339
sa(dp3340
g2
I0
sg3
I55
sg4
VDropCatch.com 666 LLC
p3341
sa(dp3342
g2
I1
sg3
I128
sg4
VELB Group, Inc.
p3343
sa(dp3344
g2
I0
sg3
I1
sg4
VEMIRATES TELECOMMUNICATIONS CORPORATION - ETISALAT
p3345
sa(dp3346
g2
I0
sg3
I57
sg4
VDropCatch.com 667 LLC
p3347
sa(dp3348
g2
I5
sg3
I371
sg4
VONLINENIC, INC.
p3349
sa(dp3350
g2
I0
sg3
I1
sg4
VOPEN SYSTEM LTDA - ME
p3351
sa(dp3352
g2
I0
sg3
I37
sg4
VDropCatch.com 668 LLC
p3353
sa(dp3354
g2
I1
sg3
I81
sg4
VEMPIRESTATEDOMAINS INC.
p3355
sa(dp3356
g2
I0
sg3
I42
sg4
VOPENNAME LLC
p3357
sa(dp3358
g2
I8
sg3
I746
sg4
VDomainAhead LLC
p3359
sa(dp3360
g2
I0
sg3
I3
sg4
VDomainClip Domains Inc
p3361
sa(dp3362
g2
I2
sg3
I17
sg4
VORANGE
p3363
sa(dp3364
g2
I0
sg3
I58
sg4
VDropCatch.com 669 LLC
p3365
sa(dp3366
g2
I0
sg3
I49
sg4
VDropCatch.com 670 LLC
p3367
sa(dp3368
g2
I0
sg3
I104
sg4
VOREGONEU.COM LLC
p3369
sa(dp3370
g2
I0
sg3
I57
sg4
VDropCatch.com 671 LLC
p3371
sa(dp3372
g2
I0
sg3
I59
sg4
VDropCatch.com 672 LLC
p3373
sa(dp3374
g2
I0
sg3
I116
sg4
VOREGONURLS.COM LLC
p3375
sa(dp3376
g2
I0
sg3
I61
sg4
VDropCatch.com 673 LLC
p3377
sa(dp3378
g2
I0
sg3
I47
sg4
VOURDOMAINS LIMITED
p3379
sa(dp3380
g2
I0
sg3
I46
sg4
VDropCatch.com 674 LLC
p3381
sa(dp3382
g2
I166
sg3
I272
sg4
VDomainContext, Inc.
p3383
sa(dp3384
g2
I0
sg3
I59
sg4
VDropCatch.com 675 LLC
p3385
sa(dp3386
g2
I0
sg3
I60
sg4
VDropCatch.com 676 LLC
p3387
sa(dp3388
g2
I0
sg3
I55
sg4
VDropCatch.com 677 LLC
p3389
sa(dp3390
g2
I0
sg3
I41
sg4
VDropCatch.com 678 LLC
p3391
sa(dp3392
g2
I0
sg3
I56
sg4
VDropCatch.com 679 LLC
p3393
sa(dp3394
g2
I1
sg3
I67
sg4
VDropCatch.com 680 LLC
p3395
sa(dp3396
g2
I0
sg3
I47
sg4
VDropCatch.com 681 LLC
p3397
sa(dp3398
g2
I0
sg3
I41
sg4
VDropCatch.com 682 LLC
p3399
sa(dp3400
g2
I3
sg3
I370
sg4
VDomainCraze LLC
p3401
sa(dp3402
g2
I0
sg3
I50
sg4
VDropCatch.com 683 LLC
p3403
sa(dp3404
g2
I0
sg3
I50
sg4
VDropCatch.com 684 LLC
p3405
sa(dp3406
g2
I0
sg3
I48
sg4
VDropCatch.com 685 LLC
p3407
sa(dp3408
g2
I0
sg3
I50
sg4
VDropCatch.com 686 LLC
p3409
sa(dp3410
g2
I0
sg3
I42
sg4
VDropCatch.com 687 LLC
p3411
sa(dp3412
g2
I0
sg3
I52
sg4
VDropCatch.com 688 LLC
p3413
sa(dp3414
g2
I0
sg3
I55
sg4
VDropCatch.com 689 LLC
p3415
sa(dp3416
g2
I2
sg3
I396
sg4
VDomainCreek LLC
p3417
sa(dp3418
g2
I0
sg3
I62
sg4
VDropCatch.com 690 LLC
p3419
sa(dp3420
g2
I0
sg3
I48
sg4
VDropCatch.com 691 LLC
p3421
sa(dp3422
g2
I0
sg3
I51
sg4
VDropCatch.com 692 LLC
p3423
sa(dp3424
g2
I0
sg3
I60
sg4
VDropCatch.com 693 LLC
p3425
sa(dp3426
g2
I7
sg3
I1179
sg4
VDomainCritics LLC
p3427
sa(dp3428
g2
I190
sg3
I9222
sg4
VKey-Systems GmbH
p3429
sa(dp3430
g2
I1
sg3
I71
sg4
VKheweul.com SA
p3431
sa(dp3432
g2
I0
sg3
I15
sg4
VKlaatudomains.com LLC
p3433
sa(dp3434
g2
I1
sg3
I288
sg4
VKoreacenter.com co.,Ltd
p3435
sa(dp3436
g2
I0
sg3
I12
sg4
VKuwaitNET General Trading Co.
p3437
sa(dp3438
g2
I0
sg3
I3
sg4
VLADAS DOMAINS LLC
p3439
sa(dp3440
g2
I1
sg3
I112
sg4
VLAKEODOMAINS.COM LLC
p3441
sa(dp3442
g2
I7
sg3
I930
sg4
VDomainDelights LLC
p3443
sa(dp3444
g2
I1
sg3
I236
sg4
VLAUNCHPAD.COM, INC.
p3445
sa(dp3446
g2
I0
sg3
I87
sg4
VLAYUP DOMAINS LLC
p3447
sa(dp3448
g2
I0
sg3
I29
sg4
VLCN.COM LTD.
p3449
sa(dp3450
g2
I4
sg3
I506
sg4
VLCN.com Ltd
p3451
sa(dp3452
g2
I0
sg3
I114
sg4
VLEATHERNECKDOMAINS.COM, LLC
p3453
sa(dp3454
g2
I0
sg3
I1
sg4
VLEIF ERICSON, LLC
p3455
sa(dp3456
g2
I0
sg3
I101
sg4
VLEMON SHARK DOMAINS, LLC
p3457
sa(dp3458
g2
I9
sg3
I907
sg4
VDomainExtreme LLC
p3459
sa(dp3460
g2
I0
sg3
I1
sg4
VLEXSYNERGY LIMITED
p3461
sa(dp3462
g2
I0
sg3
I1
sg4
VLIGNE WEB SERVICES SARL DBA LWS
p3463
sa(dp3464
g2
I0
sg3
I95
sg4
VLINE DRIVE DOMAINS, LLC
p3465
sa(dp3466
g2
I0
sg3
I94
sg4
VLIONSHARE DOMAINS, LLC
p3467
sa(dp3468
g2
I0
sg3
I3
sg4
VLIQUIDNET LTD.
p3469
sa(dp3470
g2
I198
sg3
I13375
sg4
VFABULOUS.COM PTY LTD.
p3471
sa(dp3472
g2
I0
sg3
I107
sg4
VFAIR TRADE DOMAINS, LLC
p3473
sa(dp3474
g2
I0
sg3
I68
sg4
VFASTBALL DOMAINS LLC
p3475
sa(dp3476
g2
I0
sg3
I52
sg4
VFASTDOMAIN, INC.
p3477
sa(dp3478
g2
I1
sg3
I224
sg4
VFBS INC.
p3479
sa(dp3480
g2
I36
sg3
I1105
sg4
VLIQUIDNET Ltd.
p3481
sa(dp3482
g2
I1
sg3
I132
sg4
VLITEDOMAINS LLC
p3483
sa(dp3484
g2
I0
sg3
I80
sg4
VLONG DRIVE DOMAINS LLC
p3485
sa(dp3486
g2
I1
sg3
I108
sg4
VLUCKY ELEPHANT DOMAINS, LLC
p3487
sa(dp3488
g2
I6
sg3
I473
sg4
VLWS dba Ligne Web Services
p3489
sa(dp3490
g2
I0
sg3
I5
sg4
VLa Tizone, LLC
p3491
sa(dp3492
g2
I0
sg3
I12
sg4
VLadas Domains LLC
p3493
sa(dp3494
g2
I0
sg3
I5
sg4
VLakeodomains.com LLC
p3495
sa(dp3496
g2
I20
sg3
I2831
sg4
VDomainFalcon LLC
p3497
sa(dp3498
g2
I249
sg3
I19856
sg4
V1&1 Internet SE
p3499
sa(dp3500
g2
I0
sg3
I1
sg4
V101DOMAIN, INC.
p3501
sa(dp3502
g2
I12
sg3
I856
sg4
VDomainGetter LLC
p3503
sa(dp3504
g2
I12
sg3
I459
sg4
V101Domain GRS Ltd
p3505
sa(dp3506
g2
I158
sg3
I8246
sg4
VOVH, SAS
p3507
sa(dp3508
g2
I0
sg3
I7
sg4
VOctopusdomains.net LLC
p3509
sa(dp3510
g2
I0
sg3
I16
sg4
VOdysseus 888, LLC
p3511
sa(dp3512
g2
I0
sg3
I2
sg4
VOld Tyme Domains, LLC
p3513
sa(dp3514
g2
I0
sg3
I13
sg4
VOldTownDomains.com LLC
p3515
sa(dp3516
g2
I0
sg3
I5
sg4
VOldWorldAliases.com LLC
p3517
sa(dp3518
g2
I0
sg3
I13
sg4
VOmni 888, LLC
p3519
sa(dp3520
g2
I21
sg3
I871
sg4
V10DENCEHISPAHARD, S.L
p3521
sa(dp3522
g2
I10
sg3
I725
sg4
VOmnis Network, LLC
p3523
sa(dp3524
g2
I0
sg3
I32
sg4
VOnline Data Services Joint Stock Company
p3525
sa(dp3526
g2
I24
sg3
I1107
sg4
V123-REG LIMITED
p3527
sa(dp3528
g2
I0
sg3
I2
sg4
V123DOMAINRENEWALS, LLC
p3529
sa(dp3530
g2
I0
sg3
I5
sg4
V1800-WEBSITE, LLC
p3531
sa(dp3532
g2
I17
sg3
I2816
sg4
VDomainHood LLC
p3533
sa(dp3534
g2
I0
sg3
I372
sg4
VDomainLadder LLC
p3535
sa(dp3536
g2
I6
sg3
I2018
sg4
VDomainLocal LLC
p3537
sa(dp3538
g2
I0
sg3
I7
sg4
VDomainName Bridge, Inc.
p3539
sa(dp3540
g2
I0
sg3
I11
sg4
VDomainName Driveway, Inc.
p3541
sa(dp3542
g2
I0
sg3
I5
sg4
VDomainName Highway, LLC
p3543
sa(dp3544
g2
I0
sg3
I6
sg4
VDomainName Path, Inc.
p3545
sa(dp3546
g2
I0
sg3
I14
sg4
VDomainParkBlock.com LLC
p3547
sa(dp3548
g2
I1
sg3
I372
sg4
VDomainPicking LLC
p3549
sa(dp3550
g2
I2
sg3
I1112
sg4
VDomainPrime.com LLC
p3551
sa(dp3552
g2
I1
sg3
I15
sg4
VDomainRegistry.com, Inc.
p3553
sa(dp3554
g2
I0
sg3
I4
sg4
VDomainSails.net LLC
p3555
sa(dp3556
g2
I6
sg3
I462
sg4
VDomainSite, Inc.
p3557
sa(dp3558
g2
I0
sg3
I7
sg4
VDomainSprouts.com LLC
p3559
sa(dp3560
g2
I106
sg3
I10242
sg4
VFBS Inc.
p3561
sa(dp3562
g2
I0
sg3
I6
sg4
VFENOMINAL INC.
p3563
sa(dp3564
g2
I0
sg3
I96
sg4
VFETCH REGISTRAR, LLC
p3565
sa(dp3566
g2
I0
sg3
I68
sg4
VFIDUCIA LLC, LATVIJAS PARSTAVNIECIBA
p3567
sa(dp3568
g2
I1
sg3
I121
sg4
VFINDUANAME.COM LLC
p3569
sa(dp3570
g2
I463
sg3
I9542
sg4
VLaunchpad, Inc. (HostGator)
p3571
sa(dp3572
g2
I0
sg3
I2
sg4
VLayup Domains LLC
p3573
sa(dp3574
g2
I0
sg3
I2
sg4
VLeatherneckdomains.com, LLC
p3575
sa(dp3576
g2
I0
sg3
I13
sg4
VLedl.net GmbH
p3577
sa(dp3578
g2
I0
sg3
I10
sg4
VLeif Ericson, LLC
p3579
sa(dp3580
g2
I1
sg3
I2
sg4
VLemon Shark Domains, LLC
p3581
sa(dp3582
g2
I0
sg3
I8
sg4
VLeonardo da Vinci, LLC
p3583
sa(dp3584
g2
I0
sg3
I6
sg4
VLeonidas, LLC
p3585
sa(dp3586
g2
I0
sg3
I122
sg4
VFINDYOUADOMAIN.COM LLC
p3587
sa(dp3588
g2
I8
sg3
I62
sg4
VLexsynergy Limited
p3589
sa(dp3590
g2
I0
sg3
I6
sg4
VLine Drive Domains, LLC
p3591
sa(dp3592
g2
I0
sg3
I93
sg4
VFINDYOUANAME.COM LLC
p3593
sa(dp3594
g2
I0
sg3
I106
sg4
VFINE GRAIN DOMAINS, LLC
p3595
sa(dp3596
g2
I4
sg3
I1148
sg4
VDomainTact LLC
p3597
sa(dp3598
g2
I0
sg3
I101
sg4
VFIRSTROUND NAMES LLC
p3599
sa(dp3600
g2
I4
sg3
I82
sg4
VDomainTheNet.com
p3601
sa(dp3602
g2
I0
sg3
I3
sg4
VDomainZ.com
p3603
sa(dp3604
g2
I0
sg3
I7
sg4
VDomainamania.com LLC
p3605
sa(dp3606
g2
I0
sg3
I5
sg4
VDomainarmada.com LLC
p3607
sa(dp3608
g2
I0
sg3
I6
sg4
VDomaincapitan.com LLC
p3609
sa(dp3610
g2
I0
sg3
I5
sg4
VDomaincatcher LLC
p3611
sa(dp3612
g2
I0
sg3
I45
sg4
VFIRSTSERVER, INC.
p3613
sa(dp3614
g2
I0
sg3
I6
sg4
VDomaincircle LLC
p3615
sa(dp3616
g2
I1
sg3
I60
sg4
VDomainclub.com, LLC
p3617
sa(dp3618
g2
I0
sg3
I8
sg4
VDomaincomesaround.com LLC
p3619
sa(dp3620
g2
I0
sg3
I4
sg4
VDomaindrop LLC
p3621
sa(dp3622
g2
I2
sg3
I119
sg4
VFLANCRESTDOMAINS.COM LLC
p3623
sa(dp3624
g2
I6
sg3
I468
sg4
VLiteDomains LLC
p3625
sa(dp3626
g2
I1
sg3
I6
sg4
VLogicBoxes Naming Services Ltd
p3627
sa(dp3628
g2
I0
sg3
I3
sg4
VLong Drive Domains LLC
p3629
sa(dp3630
g2
I1
sg3
I1
sg4
VLucky Elephant Domains, LLC
p3631
sa(dp3632
g2
I0
sg3
I85
sg4
VDomaine.Fr
p3633
sa(dp3634
g2
I0
sg3
I8
sg4
VDomainer Names LLC
p3635
sa(dp3636
g2
I0
sg3
I5
sg4
VDomaingazelle.com LLC
p3637
sa(dp3638
g2
I0
sg3
I5
sg4
VDomainhawks.net LLC
p3639
sa(dp3640
g2
I0
sg3
I4
sg4
VDomainhysteria.com LLC
p3641
sa(dp3642
g2
I2
sg3
I97
sg4
VDomaininfo AB
p3643
sa(dp3644
g2
I0
sg3
I3
sg4
VDomaining Oro, LLC
p3645
sa(dp3646
g2
I0
sg3
I11
sg4
VDomaininthebasket.com LLC
p3647
sa(dp3648
g2
I0
sg3
I6
sg4
VDomaininthehole.com LLC
p3649
sa(dp3650
g2
I0
sg3
I4
sg4
VDomainjungle.net LLC
p3651
sa(dp3652
g2
I0
sg3
I5
sg4
VDomainname Blvd, Inc
p3653
sa(dp3654
g2
I0
sg3
I5
sg4
VDomainname Fwy, Inc
p3655
sa(dp3656
g2
I0
sg3
I8
sg4
VDomainplace LLC
p3657
sa(dp3658
g2
I0
sg3
I13
sg4
VDomainraker.net LLC
p3659
sa(dp3660
g2
I0
sg3
I5
sg4
VDomains Etc LLC
p3661
sa(dp3662
g2
I0
sg3
I3
sg4
VDomains Express LLC
p3663
sa(dp3664
g2
I2
sg3
I2
sg4
VDomains of Origin, LLC
p3665
sa(dp3666
g2
I0
sg3
I10
sg4
VDomainsalsa.com LLC
p3667
sa(dp3668
g2
I0
sg3
I7
sg4
VDomainsareforever.net LLC
p3669
sa(dp3670
g2
I0
sg3
I8
sg4
VDomainshop LLC
p3671
sa(dp3672
g2
I52
sg3
I6874
sg4
V1API GmbH
p3673
sa(dp3674
g2
I1
sg3
I5
sg4
V1ST-FOR-DOMAIN-NAMES, LLC
p3675
sa(dp3676
g2
I0
sg3
I3
sg4
V1st Registrar, Inc
p3677
sa(dp3678
g2
I1
sg3
I504
sg4
VMAFF AVENUE, INC.
p3679
sa(dp3680
g2
I1
sg3
I549
sg4
VFLAPPY DOMAIN, INC.
p3681
sa(dp3682
g2
I0
sg3
I6
sg4
VMAFF Avenue, Inc
p3683
sa(dp3684
g2
I0
sg3
I65
sg4
V2030138 ONTARIO INC. DBA NAMESBEYOND.COM AND DBA GOODLUCKDOMAIN.COM
p3685
sa(dp3686
g2
I1
sg3
I6
sg4
VFOSHAN YIDONG NETWORK CO. LTD
p3687
sa(dp3688
g2
I77
sg3
I29216
sg4
VDOMAIN.COM, LLC
p3689
sa(dp3690
g2
I0
sg3
I124
sg4
VFREE DIVE DOMAINS, LLC
p3691
sa(dp3692
g2
I1
sg3
I195
sg4
VDOMAINADMINISTRATION.COM, LLC
p3693
sa(dp3694
g2
I0
sg3
I88
sg4
VFREE DROP ZONE LLC
p3695
sa(dp3696
g2
I0
sg3
I127
sg4
VFREE SPIRIT DOMAINS, LLC
p3697
sa(dp3698
g2
I2
sg3
I240
sg4
VDOMAINAHEAD LLC
p3699
sa(dp3700
g2
I0
sg3
I102
sg4
VFREEFALL DOMAINS LLC
p3701
sa(dp3702
g2
I0
sg3
I5
sg4
VFREEPARKING DOMAIN REGISTRARS, INC
p3703
sa(dp3704
g2
I5
sg3
I755
sg4
VDomainshype.com, Inc
p3705
sa(dp3706
g2
I0
sg3
I13
sg4
VDomainsinthebag.com LLC
p3707
sa(dp3708
g2
I0
sg3
I7
sg4
VDomainsnap, LLC
p3709
sa(dp3710
g2
I0
sg3
I5
sg4
VDomainsnapper LLC
p3711
sa(dp3712
g2
I1
sg3
I15
sg4
VDomainsofcourse.com LLC
p3713
sa(dp3714
g2
I0
sg3
I8
sg4
VDomainsoftheday.net LLC
p3715
sa(dp3716
g2
I0
sg3
I5
sg4
VDomainsoftheworld.net LLC
p3717
sa(dp3718
g2
I0
sg3
I9
sg4
VDomainsofvalue.com LLC
p3719
sa(dp3720
g2
I0
sg3
I7
sg4
VDomainsonly.com, Inc.
p3721
sa(dp3722
g2
I0
sg3
I8
sg4
VDomainsouffle.com LLC
p3723
sa(dp3724
g2
I0
sg3
I10
sg4
VDomainsoverboard.com LLC
p3725
sa(dp3726
g2
I0
sg3
I12
sg4
VDomainsovereigns.com LLC
p3727
sa(dp3728
g2
I0
sg3
I5
sg4
VDomainstreetdirect.com LLC
p3729
sa(dp3730
g2
I0
sg3
I5
sg4
VDomainsurgeon.com LLC
p3731
sa(dp3732
g2
I1
sg3
I113
sg4
VFRESHBREWEDDOMAINS.COM LLC
p3733
sa(dp3734
g2
I0
sg3
I11
sg4
VDomaintimemachine.com LLC
p3735
sa(dp3736
g2
I0
sg3
I2
sg4
VDomaintoOrder, LLC
p3737
sa(dp3738
g2
I1
sg3
I140
sg4
VDOMAINAMANIA.COM LLC
p3739
sa(dp3740
g2
I0
sg3
I107
sg4
VFRONTSTREETDOMAINS.COM LLC
p3741
sa(dp3742
g2
I0
sg3
I114
sg4
VDOMAINARMADA.COM LLC
p3743
sa(dp3744
g2
I0
sg3
I3
sg4
VDOMAINBULKREGISTRATION, LLC
p3745
sa(dp3746
g2
I0
sg3
I2
sg4
VDOMAINBUSINESSNAMES, LLC
p3747
sa(dp3748
g2
I0
sg3
I4
sg4
VDOMAINCAMPING, LLC
p3749
sa(dp3750
g2
I0
sg3
I146
sg4
VDOMAINCAPITAN.COM LLC
p3751
sa(dp3752
g2
I1
sg3
I90
sg4
VDOMAINCATCHER LLC
p3753
sa(dp3754
g2
I0
sg3
I79
sg4
VDOMAINCIRCLE LLC
p3755
sa(dp3756
g2
I0
sg3
I128
sg4
VDOMAINCOMESAROUND.COM LLC
p3757
sa(dp3758
g2
I0
sg3
I4
sg4
VDOMAINCONTEXT, INC.
p3759
sa(dp3760
g2
I2
sg3
I123
sg4
VDOMAINCRAZE LLC
p3761
sa(dp3762
g2
I0
sg3
I93
sg4
VDOMAINCREEK LLC
p3763
sa(dp3764
g2
I0
sg3
I728
sg4
VFUJIAN DOMAINS, INC.
p3765
sa(dp3766
g2
I0
sg3
I7
sg4
VFUSHI TARAZU, INCORPORATED
p3767
sa(dp3768
g2
I1
sg3
I4
sg4
VFair Trade Domains, LLC
p3769
sa(dp3770
g2
I0
sg3
I298
sg4
VDOMAINCRITICS LLC
p3771
sa(dp3772
g2
I2
sg3
I286
sg4
VDOMAINDELIGHTS LLC
p3773
sa(dp3774
g2
I1
sg3
I77
sg4
VDOMAINDROP LLC
p3775
sa(dp3776
g2
I0
sg3
I6
sg4
VDOMAINDUCKS, INC. D/B/A PERSONALNAMES.COM
p3777
sa(dp3778
g2
I0
sg3
I77
sg4
VDOMAINER NAMES LLC
p3779
sa(dp3780
g2
I3
sg3
I248
sg4
VDOMAINEXTREME LLC
p3781
sa(dp3782
g2
I218
sg3
I10672
sg4
VOnlinenic Inc
p3783
sa(dp3784
g2
I3
sg3
I790
sg4
VDOMAINFALCON LLC
p3785
sa(dp3786
g2
I0
sg3
I132
sg4
VDOMAINGAZELLE.COM LLC
p3787
sa(dp3788
g2
I2
sg3
I170
sg4
VOpentTLD B.V.
p3789
sa(dp3790
g2
I0
sg3
I7
sg4
VOregonEU.com LLC
p3791
sa(dp3792
g2
I0
sg3
I11
sg4
VOregonURLs.com LLC
p3793
sa(dp3794
g2
I22
sg3
I2917
sg4
VDomainwards.com LLC
p3795
sa(dp3796
g2
I0
sg3
I7
sg4
VDomainyeti.com LLC
p3797
sa(dp3798
g2
I1
sg3
I259
sg4
VDOMAINGETTER LLC
p3799
sa(dp3800
g2
I0
sg3
I113
sg4
VDOMAINHAWKS.NET LLC
p3801
sa(dp3802
g2
I0
sg3
I152
sg4
VDomdrill.com, Inc
p3803
sa(dp3804
g2
I41
sg3
I20629
sg4
VENAME TECHNOLOGY CO., LTD.
p3805
sa(dp3806
g2
I2
sg3
I14
sg4
VENAMECO LLC
p3807
sa(dp3808
g2
I5
sg3
I716
sg4
VOurdomains Limited
p3809
sa(dp3810
g2
I0
sg3
I10
sg4
VOwn Identity, Inc.
p3811
sa(dp3812
g2
I0
sg3
I6
sg4
VP.A. VIET NAM COMPANY LIMITED
p3813
sa(dp3814
g2
I0
sg3
I105
sg4
VENDEAVOURDOMAINS, LLC
p3815
sa(dp3816
g2
I0
sg3
I3
sg4
VENDURANCE
p3817
sa(dp3818
g2
I0
sg3
I1
sg4
VENETICA PTY LTD
p3819
sa(dp3820
g2
I0
sg3
I6
sg4
VENOM CORPORATE INC.
p3821
sa(dp3822
g2
I0
sg3
I7
sg4
VENOM GMP SERVICES INC
p3823
sa(dp3824
g2
I0
sg3
I5
sg4
VENOM WORLD INC
p3825
sa(dp3826
g2
I6
sg3
I650
sg4
VDomeneshop AS dba domainnameshop.com
p3827
sa(dp3828
g2
I0
sg3
I6
sg4
VDomerati, Inc.
p3829
sa(dp3830
g2
I0
sg3
I1
sg4
VDomus Enterprises LLC dba DOMUS
p3831
sa(dp3832
g2
I6
sg3
I763
sg4
VDOMAINHOOD LLC
p3833
sa(dp3834
g2
I0
sg3
I6
sg4
VDOMAINHOSTINGWEB, LLC
p3835
sa(dp3836
g2
I1
sg3
I97
sg4
VDOMAINHYSTERIA.COM LLC
p3837
sa(dp3838
g2
I12
sg3
I516
sg4
VENOM, INC
p3839
sa(dp3840
g2
I0
sg3
I107
sg4
VDOMAINING ORO, LLC
p3841
sa(dp3842
g2
I0
sg3
I3
sg4
VDOMAININTERNETNAME, LLC
p3843
sa(dp3844
g2
I0
sg3
I114
sg4
VDOMAININTHEBASKET.COM LLC
p3845
sa(dp3846
g2
I0
sg3
I112
sg4
VDOMAININTHEHOLE.COM LLC
p3847
sa(dp3848
g2
I1
sg3
I110
sg4
VDOMAINJUNGLE.NET LLC
p3849
sa(dp3850
g2
I1
sg3
I115
sg4
VDOMAINLADDER LLC
p3851
sa(dp3852
g2
I8
sg3
I559
sg4
VDOMAINLOCAL LLC
p3853
sa(dp3854
g2
I0
sg3
I1
sg4
VDOMAINMONSTER LIMITED
p3855
sa(dp3856
g2
I22
sg3
I1686
sg4
VP.A. Viet Nam Company Limited
p3857
sa(dp3858
g2
I17
sg3
I1381
sg4
VDonDominio (SCIP)
p3859
sa(dp3860
g2
I2
sg3
I14
sg4
VDootall, Inc.
p3861
sa(dp3862
g2
I1
sg3
I10
sg4
VDotAlliance Inc
p3863
sa(dp3864
g2
I1
sg3
I123
sg4
VPACIFICDOMAINS, LLC
p3865
sa(dp3866
g2
I0
sg3
I97
sg4
VDotArai Co., Ltd.
p3867
sa(dp3868
g2
I0
sg3
I100
sg4
VPAINTED PONY NAMES, LLC
p3869
sa(dp3870
g2
I0
sg3
I1
sg4
VPAIR NETWORKS INC.D/B/A PAIRNIC
p3871
sa(dp3872
g2
I1
sg3
I381
sg4
VDOMAINNAME BLVD, INC.
p3873
sa(dp3874
g2
I0
sg3
I363
sg4
VPAPAKI LTD
p3875
sa(dp3876
g2
I0
sg3
I374
sg4
VDOMAINNAME BRIDGE, INC.
p3877
sa(dp3878
g2
I0
sg3
I392
sg4
VDOMAINNAME DRIVEWAY, INC.
p3879
sa(dp3880
g2
I5
sg3
I949
sg4
VDotNamed LLC
p3881
sa(dp3882
g2
I1
sg3
I566
sg4
VPARAGON INTERNET GROUP LTD T/A PARAGON NAMES
p3883
sa(dp3884
g2
I7
sg3
I6876
sg4
VMAFF INC.
p3885
sa(dp3886
g2
I0
sg3
I80
sg4
VPARARESCUEDOMAINS.COM, LLC
p3887
sa(dp3888
g2
I2
sg3
I126
sg4
VDotRoll Kft.
p3889
sa(dp3890
g2
I0
sg3
I6
sg4
VDotmedia Limited
p3891
sa(dp3892
g2
I4
sg3
I111
sg4
VMAFF Inc.
p3893
sa(dp3894
g2
I0
sg3
I87
sg4
VMAGNATE DOMAINS, LLC
p3895
sa(dp3896
g2
I0
sg3
I88
sg4
VMAGNOLIA DOMAINS, LLC
p3897
sa(dp3898
g2
I0
sg3
I469
sg4
VDOMAINNAME FWY, INC.
p3899
sa(dp3900
g2
I0
sg3
I88
sg4
VMAJOR LEAGUE DOMAINS, LLC
p3901
sa(dp3902
g2
I0
sg3
I2
sg4
VMARCARIA.COM, INTERNATIONAL, INC.
p3903
sa(dp3904
g2
I0
sg3
I8
sg4
VMARK BARKER, INCORPORATED
p3905
sa(dp3906
g2
I2
sg3
I92
sg4
VMARKMONITOR INC.
p3907
sa(dp3908
g2
I1
sg3
I131
sg4
VMASTEROFMYDOMAINS.NET LLC
p3909
sa(dp3910
g2
I24
sg3
I1
sg4
VMAT BAO CORPORATION
p3911
sa(dp3912
g2
I0
sg3
I30
sg4
VMAT BAO TRADING & SERVICE COMPANY LIMITED D/B/A MAT BAO
p3913
sa(dp3914
g2
I4
sg3
I630
sg4
VDotname Korea Corp
p3915
sa(dp3916
g2
I0
sg3
I15
sg4
VDouglas MacArthur, LLC
p3917
sa(dp3918
g2
I0
sg3
I4
sg4
VDraftpick Domains LLC
p3919
sa(dp3920
g2
I0
sg3
I11
sg4
VDrop Catch Mining LLC
p3921
sa(dp3922
g2
I0
sg3
I67
sg4
VMEGANAMES LLC
p3923
sa(dp3924
g2
I0
sg3
I50
sg4
VDropCatch.com 1000 LLC
p3925
sa(dp3926
g2
I1
sg3
I49
sg4
VMEGAZONE CORP. DBA HOSTING.KR
p3927
sa(dp3928
g2
I0
sg3
I14
sg4
VMELBOURNE IT, LTD. D/B/A INTERNET NAMES WORLDWIDE
p3929
sa(dp3930
g2
I0
sg3
I75
sg4
VDropCatch.com 1001 LLC
p3931
sa(dp3932
g2
I0
sg3
I51
sg4
VDropCatch.com 1002 LLC
p3933
sa(dp3934
g2
I0
sg3
I57
sg4
VDropCatch.com 1003 LLC
p3935
sa(dp3936
g2
I0
sg3
I55
sg4
VDropCatch.com 1004 LLC
p3937
sa(dp3938
g2
I1
sg3
I665
sg4
VDOMAINNAME HIGHWAY LLC
p3939
sa(dp3940
g2
I0
sg3
I51
sg4
VDropCatch.com 1005 LLC
p3941
sa(dp3942
g2
I0
sg3
I50
sg4
VDropCatch.com 1006 LLC
p3943
sa(dp3944
g2
I1
sg3
I62
sg4
VDropCatch.com 1007 LLC
p3945
sa(dp3946
g2
I1
sg3
I54
sg4
VDropCatch.com 1008 LLC
p3947
sa(dp3948
g2
I0
sg3
I63
sg4
VDropCatch.com 1009 LLC
p3949
sa(dp3950
g2
I0
sg3
I67
sg4
VDropCatch.com 1010 LLC
p3951
sa(dp3952
g2
I0
sg3
I61
sg4
VDropCatch.com 1011 LLC
p3953
sa(dp3954
g2
I1
sg3
I60
sg4
VDropCatch.com 1012 LLC
p3955
sa(dp3956
g2
I0
sg3
I52
sg4
VDropCatch.com 1013 LLC
p3957
sa(dp3958
g2
I1
sg3
I517
sg4
VDOMAINNAME PATH, INC.
p3959
sa(dp3960
g2
I0
sg3
I13
sg4
VDOMAINNAME ROUTE, INC.
p3961
sa(dp3962
g2
I0
sg3
I65
sg4
VDropCatch.com 1014 LLC
p3963
sa(dp3964
g2
I1
sg3
I93
sg4
VDOMAINNAME, INC.
p3965
sa(dp3966
g2
I0
sg3
I47
sg4
VDropCatch.com 1015 LLC
p3967
sa(dp3968
g2
I0
sg3
I7
sg4
VDOMAINNAMEBIDDER, LLC
p3969
sa(dp3970
g2
I0
sg3
I5
sg4
VDOMAINNAMELOOKUP, LLC
p3971
sa(dp3972
g2
I0
sg3
I6
sg4
VDOMAINNOVATIONS, INCORPORATED
p3973
sa(dp3974
g2
I0
sg3
I54
sg4
VDropCatch.com 1016 LLC
p3975
sa(dp3976
g2
I0
sg3
I69
sg4
VDropCatch.com 1017 LLC
p3977
sa(dp3978
g2
I0
sg3
I119
sg4
VDOMAINPARKBLOCK.COM LLC
p3979
sa(dp3980
g2
I0
sg3
I70
sg4
VDropCatch.com 1018 LLC
p3981
sa(dp3982
g2
I0
sg3
I50
sg4
VDropCatch.com 1019 LLC
p3983
sa(dp3984
g2
I0
sg3
I66
sg4
VDropCatch.com 1020 LLC
p3985
sa(dp3986
g2
I0
sg3
I57
sg4
VDropCatch.com 1021 LLC
p3987
sa(dp3988
g2
I0
sg3
I47
sg4
VDropCatch.com 1022 LLC
p3989
sa(dp3990
g2
I1
sg3
I55
sg4
VDropCatch.com 1023 LLC
p3991
sa(dp3992
g2
I29
sg3
I2067
sg4
VPDR LTD. D/B/A PUBLICDOMAINREGISTRY.COM
p3993
sa(dp3994
g2
I1
sg3
I56
sg4
VDropCatch.com 1024 LLC
p3995
sa(dp3996
g2
I0
sg3
I59
sg4
VDropCatch.com 1025 LLC
p3997
sa(dp3998
g2
I0
sg3
I53
sg4
VDropCatch.com 1026 LLC
p3999
sa(dp4000
g2
I0
sg3
I67
sg4
VDropCatch.com 1027 LLC
p4001
sa(dp4002
g2
I0
sg3
I50
sg4
VDropCatch.com 1028 LLC
p4003
sa(dp4004
g2
I0
sg3
I54
sg4
VDropCatch.com 1029 LLC
p4005
sa(dp4006
g2
I0
sg3
I61
sg4
VDropCatch.com 1030 LLC
p4007
sa(dp4008
g2
I0
sg3
I48
sg4
VDropCatch.com 1031 LLC
p4009
sa(dp4010
g2
I0
sg3
I60
sg4
VDropCatch.com 1032 LLC
p4011
sa(dp4012
g2
I0
sg3
I64
sg4
VDropCatch.com 1033 LLC
p4013
sa(dp4014
g2
I0
sg3
I53
sg4
VDropCatch.com 1034 LLC
p4015
sa(dp4016
g2
I0
sg3
I64
sg4
VDropCatch.com 1035 LLC
p4017
sa(dp4018
g2
I1
sg3
I56
sg4
VDropCatch.com 1036 LLC
p4019
sa(dp4020
g2
I0
sg3
I46
sg4
VDropCatch.com 1037 LLC
p4021
sa(dp4022
g2
I0
sg3
I40
sg4
VDropCatch.com 1038 LLC
p4023
sa(dp4024
g2
I0
sg3
I56
sg4
VDropCatch.com 1039 LLC
p4025
sa(dp4026
g2
I0
sg3
I54
sg4
VDropCatch.com 1040 LLC
p4027
sa(dp4028
g2
I1
sg3
I47
sg4
VDropCatch.com 1041 LLC
p4029
sa(dp4030
g2
I0
sg3
I47
sg4
VDropCatch.com 1042 LLC
p4031
sa(dp4032
g2
I0
sg3
I54
sg4
VDropCatch.com 1043 LLC
p4033
sa(dp4034
g2
I0
sg3
I60
sg4
VDropCatch.com 1044 LLC
p4035
sa(dp4036
g2
I26
sg3
I1514
sg4
VDOMAINPEOPLE, INC.
p4037
sa(dp4038
g2
I0
sg3
I53
sg4
VDropCatch.com 1045 LLC
p4039
sa(dp4040
g2
I0
sg3
I100
sg4
VDOMAINPICKING LLC
p4041
sa(dp4042
g2
I0
sg3
I78
sg4
VDropCatch.com 345 LLC
p4043
sa(dp4044
g2
I0
sg3
I75
sg4
VDOMAINPLACE LLC
p4045
sa(dp4046
g2
I1
sg3
I73
sg4
VDropCatch.com 346 LLC
p4047
sa(dp4048
g2
I2
sg3
I282
sg4
VDOMAINPRIME.COM LLC
p4049
sa(dp4050
g2
I1
sg3
I120
sg4
VDOMAINRAKER.NET LLC
p4051
sa(dp4052
g2
I0
sg3
I7
sg4
VDOMAINROYALE.COM LLC
p4053
sa(dp4054
g2
I0
sg3
I79
sg4
VDOMAINS ETC LLC
p4055
sa(dp4056
g2
I0
sg3
I77
sg4
VDOMAINS EXPRESS LLC
p4057
sa(dp4058
g2
I0
sg3
I115
sg4
VDOMAINS OF ORIGIN, LLC
p4059
sa(dp4060
g2
I0
sg3
I132
sg4
VDOMAINSAILS.NET LLC
p4061
sa(dp4062
g2
I0
sg3
I107
sg4
VDOMAINSALSA.COM LLC
p4063
sa(dp4064
g2
I0
sg3
I124
sg4
VDOMAINSAREFOREVER.NET LLC
p4065
sa(dp4066
g2
I0
sg3
I79
sg4
VDOMAINSHOP LLC
p4067
sa(dp4068
g2
I0
sg3
I16
sg4
VDOMAINSHYPE.COM, INC.
p4069
sa(dp4070
g2
I0
sg3
I114
sg4
VDOMAINSINTHEBAG.COM LLC
p4071
sa(dp4072
g2
I3
sg3
I264
sg4
VDOMAINSITE, INC.
p4073
sa(dp4074
g2
I0
sg3
I87
sg4
VDOMAINSNAPPER LLC
p4075
sa(dp4076
g2
I0
sg3
I121
sg4
VDOMAINSOFCOURSE.COM LLC
p4077
sa(dp4078
g2
I2
sg3
I122
sg4
VDOMAINSOFTHEDAY.NET LLC
p4079
sa(dp4080
g2
I0
sg3
I140
sg4
VDOMAINSOFTHEWORLD.NET LLC
p4081
sa(dp4082
g2
I1
sg3
I128
sg4
VDOMAINSOFVALUE.COM LLC
p4083
sa(dp4084
g2
I1
sg3
I104
sg4
VDOMAINSOUFFLE.COM LLC
p4085
sa(dp4086
g2
I0
sg3
I119
sg4
VDOMAINSOVERBOARD.COM LLC
p4087
sa(dp4088
g2
I1
sg3
I113
sg4
VDOMAINSOVEREIGNS.COM LLC
p4089
sa(dp4090
g2
I1
sg3
I100
sg4
VDOMAINSPROUTS.COM LLC
p4091
sa(dp4092
g2
I0
sg3
I144
sg4
VDOMAINSTREETDIRECT.COM LLC
p4093
sa(dp4094
g2
I0
sg3
I152
sg4
VDOMAINSURGEON.COM LLC
p4095
sa(dp4096
g2
I60
sg3
I5744
sg4
VMESH DIGITAL LIMITED
p4097
sa(dp4098
g2
I1
sg3
I329
sg4
VDOMAINTACT LLC
p4099
sa(dp4100
g2
I0
sg3
I146
sg4
VMICROBREWEDDOMAINS.COM LLC
p4101
sa(dp4102
g2
I0
sg3
I123
sg4
VDOMAINTIMEMACHINE.COM LLC
p4103
sa(dp4104
g2
I0
sg3
I128
sg4
VMIDWESTDOMAINS, LLC
p4105
sa(dp4106
g2
I0
sg3
I1
sg4
VMIGHTY BAY, INC
p4107
sa(dp4108
g2
I0
sg3
I104
sg4
VDOMAINTOORDER, LLC
p4109
sa(dp4110
g2
I1
sg3
I148
sg4
VMIJN INTERNETOPLOSSING B.V.
p4111
sa(dp4112
g2
I0
sg3
I92
sg4
VMILLENNIAL NAMES LLC
p4113
sa(dp4114
g2
I1
sg3
I82
sg4
VMISK.COM, INC.
p4115
sa(dp4116
g2
I1
sg3
I32
sg4
VMISTERNIC LLC
p4117
sa(dp4118
g2
I0
sg3
I1
sg4
VMOBILE NAME SERVICES, INC.
p4119
sa(dp4120
g2
I0
sg3
I77
sg4
VMONIKER ONLINE SERVICES LLC
p4121
sa(dp4122
g2
I0
sg3
I91
sg4
VMOON SHOT DOMAINS, LLC
p4123
sa(dp4124
g2
I0
sg3
I147
sg4
VMVPDOMAINNAMES.COM LLC
p4125
sa(dp4126
g2
I1
sg3
I1
sg4
VMYMANAGER, INC.
p4127
sa(dp4128
g2
I1
sg3
I116
sg4
VMYPRECIOUSDOMAIN.COM LLC
p4129
sa(dp4130
g2
I0
sg3
I4
sg4
VMagic Friday, Inc
p4131
sa(dp4132
g2
I0
sg3
I5
sg4
VMagnate Domains, LLC
p4133
sa(dp4134
g2
I0
sg3
I4
sg4
VMagnolia Domains, LLC
p4135
sa(dp4136
g2
I0
sg3
I11
sg4
VMahatma Gandhi, LLC
p4137
sa(dp4138
g2
I1
sg3
I6
sg4
VMailinh, LLC
p4139
sa(dp4140
g2
I0
sg3
I8
sg4
VMajor League Domains, LLC
p4141
sa(dp4142
g2
I7
sg3
I768
sg4
VDOMAINWARDS.COM LLC
p4143
sa(dp4144
g2
I0
sg3
I120
sg4
VDOMAINYETI.COM LLC
p4145
sa(dp4146
g2
I0
sg3
I27
sg4
VDOMAINZ LIMITED
p4147
sa(dp4148
g2
I0
sg3
I5
sg4
VDOMDRILL.COM, INC.
p4149
sa(dp4150
g2
I0
sg3
I1
sg4
VDOMENESHOP AS
p4151
sa(dp4152
g2
I7
sg3
I189
sg4
VMarcaria.com International, Inc.
p4153
sa(dp4154
g2
I46
sg3
I804
sg4
VDOMREG LTD.
p4155
sa(dp4156
g2
I2
sg3
I68
sg4
VDOMUS ENTERPRISES LLC DBA DOMUS
p4157
sa(dp4158
g2
I0
sg3
I8
sg4
VDOT Holding, Inc.
p4159
sa(dp4160
g2
I0
sg3
I489
sg4
VDOTMEDIA LIMITED
p4161
sa(dp4162
g2
I0
sg3
I73
sg4
VDOTNAME KOREA CORP
p4163
sa(dp4164
g2
I1
sg3
I239
sg4
VDOTNAMED LLC
p4165
sa(dp4166
g2
I0
sg3
I95
sg4
VDRAFTPICK DOMAINS LLC
p4167
sa(dp4168
g2
I250
sg3
I15284
sg4
VFastDomain Inc.
p4169
sa(dp4170
g2
I0
sg3
I5
sg4
VFastball Domains LLC
p4171
sa(dp4172
g2
I0
sg3
I2
sg4
VFetch Registrar, LLC
p4173
sa(dp4174
g2
I0
sg3
I3
sg4
VFiducia LLC, Latvijas Parstavnieciba
p4175
sa(dp4176
g2
I0
sg3
I5
sg4
VFind Good Domains, Inc
p4177
sa(dp4178
g2
I0
sg3
I4
sg4
VFindUAName.com LLC
p4179
sa(dp4180
g2
I0
sg3
I7
sg4
VFindYouADomain.com LLC
p4181
sa(dp4182
g2
I0
sg3
I6
sg4
VFindYouAName.com LLC
p4183
sa(dp4184
g2
I0
sg3
I2
sg4
VFine Grain Domains, LLC
p4185
sa(dp4186
g2
I0
sg3
I6
sg4
VFirstround Names LLC
p4187
sa(dp4188
g2
I0
sg3
I7
sg4
VFlancrestdomains.com LLC
p4189
sa(dp4190
g2
I0
sg3
I11
sg4
VFlappy Domain, Inc
p4191
sa(dp4192
g2
I13
sg3
I639
sg4
VDREAMHOST
p4193
sa(dp4194
g2
I21
sg3
I2565
sg4
VMarkMonitor, Inc.
p4195
sa(dp4196
g2
I0
sg3
I10
sg4
VMasterofmydomains.net LLC
p4197
sa(dp4198
g2
I5
sg3
I870
sg4
VFoshan YiDong Network Co.LTD
p4199
sa(dp4200
g2
I0
sg3
I1
sg4
VFree Dive Domains, LLC
p4201
sa(dp4202
g2
I0
sg3
I3
sg4
VFree Drop Zone LLC
p4203
sa(dp4204
g2
I0
sg3
I2
sg4
VFree Spirit Domains, LLC
p4205
sa(dp4206
g2
I0
sg3
I7
sg4
VFreefall Domains LLC
p4207
sa(dp4208
g2
I1
sg3
I134
sg4
VFreeparking Domain Registrars Inc
p4209
sa(dp4210
g2
I0
sg3
I5
sg4
VFreshbreweddomains.com LLC
p4211
sa(dp4212
g2
I0
sg3
I16
sg4
VFriends Marketing,Inc.(0101Host.com)
p4213
sa(dp4214
g2
I0
sg3
I6
sg4
VFrontStreetDomains.com LLC
p4215
sa(dp4216
g2
I1
sg3
I15
sg4
VFujian Domains, Inc.
p4217
sa(dp4218
g2
I0
sg3
I9
sg4
VFujian Litian Network Technology Co., Ltd
p4219
sa(dp4220
g2
I0
sg3
I85
sg4
VGABIA, INC.
p4221
sa(dp4222
g2
I0
sg3
I1215
sg4
VMat Bao Trading & Service Company Limited dba Mat Bao
p4223
sa(dp4224
g2
I0
sg3
I10
sg4
VMaximus, LLC
p4225
sa(dp4226
g2
I0
sg3
I6
sg4
VMedia Elite Holdings Limited
p4227
sa(dp4228
g2
I0
sg3
I6
sg4
VMeganames LLC
p4229
sa(dp4230
g2
I3
sg3
I1034
sg4
VGAL COMMUNICATION (COMMUNIGAL) LTD.
p4231
sa(dp4232
g2
I57
sg3
I4160
sg4
VDREAMHOST, LLC
p4233
sa(dp4234
g2
I1
sg3
I84
sg4
VDROP CATCH MINING LLC
p4235
sa(dp4236
g2
I0
sg3
I89
sg4
VDROPCATCH AUCTION LLC
p4237
sa(dp4238
g2
I0
sg3
I76
sg4
VDROPCATCH LANDING SPOT LLC
p4239
sa(dp4240
g2
I0
sg3
I99
sg4
VDROPCATCH MARKETPLACE LLC
p4241
sa(dp4242
g2
I0
sg3
I13
sg4
VDROPCATCH.COM 1000 LLC
p4243
sa(dp4244
g2
I0
sg3
I17
sg4
VDROPCATCH.COM 1001 LLC
p4245
sa(dp4246
g2
I0
sg3
I17
sg4
VDROPCATCH.COM 1002 LLC
p4247
sa(dp4248
g2
I0
sg3
I7
sg4
VDROPCATCH.COM 1003 LLC
p4249
sa(dp4250
g2
I0
sg3
I22
sg4
VDROPCATCH.COM 1004 LLC
p4251
sa(dp4252
g2
I0
sg3
I17
sg4
VDROPCATCH.COM 1005 LLC
p4253
sa(dp4254
g2
I0
sg3
I18
sg4
VDROPCATCH.COM 1006 LLC
p4255
sa(dp4256
g2
I0
sg3
I12
sg4
VDROPCATCH.COM 1007 LLC
p4257
sa(dp4258
g2
I0
sg3
I11
sg4
VDROPCATCH.COM 1008 LLC
p4259
sa(dp4260
g2
I0
sg3
I16
sg4
VDROPCATCH.COM 1009 LLC
p4261
sa(dp4262
g2
I0
sg3
I16
sg4
VDROPCATCH.COM 1010 LLC
p4263
sa(dp4264
g2
I0
sg3
I14
sg4
VDROPCATCH.COM 1011 LLC
p4265
sa(dp4266
g2
I0
sg3
I20
sg4
VDROPCATCH.COM 1012 LLC
p4267
sa(dp4268
g2
I0
sg3
I33
sg4
VDROPCATCH.COM 1013 LLC
p4269
sa(dp4270
g2
I0
sg3
I14
sg4
VDROPCATCH.COM 1014 LLC
p4271
sa(dp4272
g2
I0
sg3
I10
sg4
VDROPCATCH.COM 1015 LLC
p4273
sa(dp4274
g2
I0
sg3
I18
sg4
VDROPCATCH.COM 1016 LLC
p4275
sa(dp4276
g2
I0
sg3
I19
sg4
VDROPCATCH.COM 1017 LLC
p4277
sa(dp4278
g2
I0
sg3
I19
sg4
VDROPCATCH.COM 1018 LLC
p4279
sa(dp4280
g2
I0
sg3
I16
sg4
VDROPCATCH.COM 1019 LLC
p4281
sa(dp4282
g2
I0
sg3
I13
sg4
VDROPCATCH.COM 1020 LLC
p4283
sa(dp4284
g2
I0
sg3
I14
sg4
VDROPCATCH.COM 1021 LLC
p4285
sa(dp4286
g2
I0
sg3
I16
sg4
VDROPCATCH.COM 1022 LLC
p4287
sa(dp4288
g2
I0
sg3
I14
sg4
VDROPCATCH.COM 1023 LLC
p4289
sa(dp4290
g2
I0
sg3
I16
sg4
VDROPCATCH.COM 1024 LLC
p4291
sa(dp4292
g2
I1
sg3
I18
sg4
VDROPCATCH.COM 1025 LLC
p4293
sa(dp4294
g2
I0
sg3
I17
sg4
VDROPCATCH.COM 1026 LLC
p4295
sa(dp4296
g2
I0
sg3
I19
sg4
VDROPCATCH.COM 1027 LLC
p4297
sa(dp4298
g2
I1
sg3
I20
sg4
VDROPCATCH.COM 1028 LLC
p4299
sa(dp4300
g2
I0
sg3
I14
sg4
VDROPCATCH.COM 1029 LLC
p4301
sa(dp4302
g2
I0
sg3
I20
sg4
VDROPCATCH.COM 1030 LLC
p4303
sa(dp4304
g2
I0
sg3
I17
sg4
VDROPCATCH.COM 1031 LLC
p4305
sa(dp4306
g2
I0
sg3
I21
sg4
VDROPCATCH.COM 1032 LLC
p4307
sa(dp4308
g2
I0
sg3
I24
sg4
VDROPCATCH.COM 1033 LLC
p4309
sa(dp4310
g2
I0
sg3
I19
sg4
VDROPCATCH.COM 1034 LLC
p4311
sa(dp4312
g2
I0
sg3
I16
sg4
VDROPCATCH.COM 1035 LLC
p4313
sa(dp4314
g2
I0
sg3
I16
sg4
VDROPCATCH.COM 1036 LLC
p4315
sa(dp4316
g2
I0
sg3
I15
sg4
VDROPCATCH.COM 1037 LLC
p4317
sa(dp4318
g2
I0
sg3
I17
sg4
VDROPCATCH.COM 1038 LLC
p4319
sa(dp4320
g2
I0
sg3
I11
sg4
VDROPCATCH.COM 1039 LLC
p4321
sa(dp4322
g2
I0
sg3
I15
sg4
VDROPCATCH.COM 1040 LLC
p4323
sa(dp4324
g2
I0
sg3
I14
sg4
VDROPCATCH.COM 1041 LLC
p4325
sa(dp4326
g2
I0
sg3
I14
sg4
VDROPCATCH.COM 1042 LLC
p4327
sa(dp4328
g2
I0
sg3
I19
sg4
VDROPCATCH.COM 1043 LLC
p4329
sa(dp4330
g2
I0
sg3
I22
sg4
VDROPCATCH.COM 1044 LLC
p4331
sa(dp4332
g2
I0
sg3
I12
sg4
VDROPCATCH.COM 1045 LLC
p4333
sa(dp4334
g2
I0
sg3
I30
sg4
VDROPCATCH.COM 345 LLC
p4335
sa(dp4336
g2
I1
sg3
I22
sg4
VDROPCATCH.COM 346 LLC
p4337
sa(dp4338
g2
I0
sg3
I10
sg4
VDROPCATCH.COM 347 LLC
p4339
sa(dp4340
g2
I0
sg3
I18
sg4
VDROPCATCH.COM 348 LLC
p4341
sa(dp4342
g2
I1
sg3
I21
sg4
VDROPCATCH.COM 349 LLC
p4343
sa(dp4344
g2
I86
sg3
I4024
sg4
VMegazone Corp., dba HOSTING.KR
p4345
sa(dp4346
g2
I0
sg3
I27
sg4
VDROPCATCH.COM 350 LLC
p4347
sa(dp4348
g2
I0
sg3
I17
sg4
VDROPCATCH.COM 351 LLC
p4349
sa(dp4350
g2
I0
sg3
I13
sg4
VDROPCATCH.COM 352 LLC
p4351
sa(dp4352
g2
I0
sg3
I13
sg4
VDROPCATCH.COM 353 LLC
p4353
sa(dp4354
g2
I0
sg3
I21
sg4
VDROPCATCH.COM 354 LLC
p4355
sa(dp4356
g2
I0
sg3
I18
sg4
VDROPCATCH.COM 355 LLC
p4357
sa(dp4358
g2
I0
sg3
I23
sg4
VDROPCATCH.COM 356 LLC
p4359
sa(dp4360
g2
I0
sg3
I18
sg4
VDROPCATCH.COM 357 LLC
p4361
sa(dp4362
g2
I0
sg3
I13
sg4
VDROPCATCH.COM 358 LLC
p4363
sa(dp4364
g2
I0
sg3
I31
sg4
VDROPCATCH.COM 359 LLC
p4365
sa(dp4366
g2
I0
sg3
I17
sg4
VDROPCATCH.COM 360 LLC
p4367
sa(dp4368
g2
I0
sg3
I20
sg4
VDROPCATCH.COM 361 LLC
p4369
sa(dp4370
g2
I0
sg3
I30
sg4
VDROPCATCH.COM 362 LLC
p4371
sa(dp4372
g2
I0
sg3
I23
sg4
VDROPCATCH.COM 363 LLC
p4373
sa(dp4374
g2
I0
sg3
I21
sg4
VDROPCATCH.COM 364 LLC
p4375
sa(dp4376
g2
I0
sg3
I23
sg4
VDROPCATCH.COM 365 LLC
p4377
sa(dp4378
g2
I0
sg3
I17
sg4
VDROPCATCH.COM 366 LLC
p4379
sa(dp4380
g2
I1
sg3
I15
sg4
VDROPCATCH.COM 367 LLC
p4381
sa(dp4382
g2
I0
sg3
I7
sg4
VDROPCATCH.COM 368 LLC
p4383
sa(dp4384
g2
I0
sg3
I21
sg4
VDROPCATCH.COM 369 LLC
p4385
sa(dp4386
g2
I0
sg3
I20
sg4
VDROPCATCH.COM 370 LLC
p4387
sa(dp4388
g2
I0
sg3
I19
sg4
VDROPCATCH.COM 371 LLC
p4389
sa(dp4390
g2
I0
sg3
I25
sg4
VDROPCATCH.COM 372 LLC
p4391
sa(dp4392
g2
I0
sg3
I17
sg4
VDROPCATCH.COM 373 LLC
p4393
sa(dp4394
g2
I0
sg3
I16
sg4
VDROPCATCH.COM 374 LLC
p4395
sa(dp4396
g2
I0
sg3
I18
sg4
VDROPCATCH.COM 375 LLC
p4397
sa(dp4398
g2
I0
sg3
I25
sg4
VDROPCATCH.COM 376 LLC
p4399
sa(dp4400
g2
I0
sg3
I25
sg4
VDROPCATCH.COM 377 LLC
p4401
sa(dp4402
g2
I0
sg3
I21
sg4
VDROPCATCH.COM 378 LLC
p4403
sa(dp4404
g2
I0
sg3
I22
sg4
VDROPCATCH.COM 379 LLC
p4405
sa(dp4406
g2
I0
sg3
I14
sg4
VDROPCATCH.COM 380 LLC
p4407
sa(dp4408
g2
I0
sg3
I19
sg4
VDROPCATCH.COM 381 LLC
p4409
sa(dp4410
g2
I0
sg3
I19
sg4
VDROPCATCH.COM 382 LLC
p4411
sa(dp4412
g2
I0
sg3
I11
sg4
VDROPCATCH.COM 383 LLC
p4413
sa(dp4414
g2
I0
sg3
I24
sg4
VDROPCATCH.COM 384 LLC
p4415
sa(dp4416
g2
I0
sg3
I16
sg4
VDROPCATCH.COM 385 LLC
p4417
sa(dp4418
g2
I0
sg3
I17
sg4
VDROPCATCH.COM 386 LLC
p4419
sa(dp4420
g2
I0
sg3
I24
sg4
VDROPCATCH.COM 387 LLC
p4421
sa(dp4422
g2
I0
sg3
I15
sg4
VDROPCATCH.COM 388 LLC
p4423
sa(dp4424
g2
I0
sg3
I25
sg4
VDROPCATCH.COM 389 LLC
p4425
sa(dp4426
g2
I0
sg3
I16
sg4
VDROPCATCH.COM 390 LLC
p4427
sa(dp4428
g2
I0
sg3
I23
sg4
VDROPCATCH.COM 391 LLC
p4429
sa(dp4430
g2
I0
sg3
I18
sg4
VDROPCATCH.COM 392 LLC
p4431
sa(dp4432
g2
I0
sg3
I15
sg4
VDROPCATCH.COM 393 LLC
p4433
sa(dp4434
g2
I0
sg3
I15
sg4
VDROPCATCH.COM 394 LLC
p4435
sa(dp4436
g2
I0
sg3
I8
sg4
VDROPCATCH.COM 395 LLC
p4437
sa(dp4438
g2
I0
sg3
I10
sg4
VDROPCATCH.COM 396 LLC
p4439
sa(dp4440
g2
I0
sg3
I13
sg4
VDROPCATCH.COM 397 LLC
p4441
sa(dp4442
g2
I0
sg3
I19
sg4
VDROPCATCH.COM 398 LLC
p4443
sa(dp4444
g2
I0
sg3
I22
sg4
VDROPCATCH.COM 399 LLC
p4445
sa(dp4446
g2
I0
sg3
I23
sg4
VDROPCATCH.COM 400 LLC
p4447
sa(dp4448
g2
I1
sg3
I16
sg4
VDROPCATCH.COM 401 LLC
p4449
sa(dp4450
g2
I1
sg3
I13
sg4
VDROPCATCH.COM 402 LLC
p4451
sa(dp4452
g2
I0
sg3
I20
sg4
VDROPCATCH.COM 403 LLC
p4453
sa(dp4454
g2
I0
sg3
I20
sg4
VDROPCATCH.COM 404 LLC
p4455
sa(dp4456
g2
I0
sg3
I19
sg4
VDROPCATCH.COM 405 LLC
p4457
sa(dp4458
g2
I0
sg3
I21
sg4
VDROPCATCH.COM 406 LLC
p4459
sa(dp4460
g2
I0
sg3
I19
sg4
VDROPCATCH.COM 407 LLC
p4461
sa(dp4462
g2
I0
sg3
I19
sg4
VDROPCATCH.COM 408 LLC
p4463
sa(dp4464
g2
I0
sg3
I19
sg4
VDROPCATCH.COM 409 LLC
p4465
sa(dp4466
g2
I0
sg3
I24
sg4
VDROPCATCH.COM 410 LLC
p4467
sa(dp4468
g2
I0
sg3
I18
sg4
VDROPCATCH.COM 411 LLC
p4469
sa(dp4470
g2
I0
sg3
I24
sg4
VDROPCATCH.COM 412 LLC
p4471
sa(dp4472
g2
I0
sg3
I14
sg4
VDROPCATCH.COM 413 LLC
p4473
sa(dp4474
g2
I0
sg3
I23
sg4
VDROPCATCH.COM 414 LLC
p4475
sa(dp4476
g2
I0
sg3
I13
sg4
VDROPCATCH.COM 415 LLC
p4477
sa(dp4478
g2
I0
sg3
I24
sg4
VDROPCATCH.COM 416 LLC
p4479
sa(dp4480
g2
I0
sg3
I25
sg4
VDROPCATCH.COM 417 LLC
p4481
sa(dp4482
g2
I0
sg3
I16
sg4
VDROPCATCH.COM 418 LLC
p4483
sa(dp4484
g2
I0
sg3
I19
sg4
VDROPCATCH.COM 419 LLC
p4485
sa(dp4486
g2
I0
sg3
I14
sg4
VDROPCATCH.COM 420 LLC
p4487
sa(dp4488
g2
I0
sg3
I20
sg4
VDROPCATCH.COM 421 LLC
p4489
sa(dp4490
g2
I0
sg3
I24
sg4
VDROPCATCH.COM 422 LLC
p4491
sa(dp4492
g2
I0
sg3
I23
sg4
VDROPCATCH.COM 423 LLC
p4493
sa(dp4494
g2
I0
sg3
I27
sg4
VDROPCATCH.COM 424 LLC
p4495
sa(dp4496
g2
I0
sg3
I23
sg4
VDROPCATCH.COM 425 LLC
p4497
sa(dp4498
g2
I0
sg3
I15
sg4
VDROPCATCH.COM 426 LLC
p4499
sa(dp4500
g2
I0
sg3
I14
sg4
VDROPCATCH.COM 427 LLC
p4501
sa(dp4502
g2
I1
sg3
I22
sg4
VDROPCATCH.COM 428 LLC
p4503
sa(dp4504
g2
I0
sg3
I17
sg4
VDROPCATCH.COM 429 LLC
p4505
sa(dp4506
g2
I0
sg3
I17
sg4
VDROPCATCH.COM 430 LLC
p4507
sa(dp4508
g2
I0
sg3
I20
sg4
VDROPCATCH.COM 431 LLC
p4509
sa(dp4510
g2
I0
sg3
I17
sg4
VDROPCATCH.COM 432 LLC
p4511
sa(dp4512
g2
I0
sg3
I17
sg4
VDROPCATCH.COM 433 LLC
p4513
sa(dp4514
g2
I0
sg3
I16
sg4
VDROPCATCH.COM 434 LLC
p4515
sa(dp4516
g2
I0
sg3
I14
sg4
VDROPCATCH.COM 435 LLC
p4517
sa(dp4518
g2
I1
sg3
I12
sg4
VDROPCATCH.COM 436 LLC
p4519
sa(dp4520
g2
I0
sg3
I20
sg4
VDROPCATCH.COM 437 LLC
p4521
sa(dp4522
g2
I0
sg3
I18
sg4
VDROPCATCH.COM 438 LLC
p4523
sa(dp4524
g2
I0
sg3
I14
sg4
VDROPCATCH.COM 439 LLC
p4525
sa(dp4526
g2
I0
sg3
I28
sg4
VDROPCATCH.COM 440 LLC
p4527
sa(dp4528
g2
I0
sg3
I16
sg4
VDROPCATCH.COM 441 LLC
p4529
sa(dp4530
g2
I0
sg3
I21
sg4
VDROPCATCH.COM 442 LLC
p4531
sa(dp4532
g2
I0
sg3
I17
sg4
VDROPCATCH.COM 443 LLC
p4533
sa(dp4534
g2
I0
sg3
I23
sg4
VDROPCATCH.COM 444 LLC
p4535
sa(dp4536
g2
I0
sg3
I15
sg4
VDROPCATCH.COM 445 LLC
p4537
sa(dp4538
g2
I0
sg3
I22
sg4
VDROPCATCH.COM 446 LLC
p4539
sa(dp4540
g2
I0
sg3
I19
sg4
VDROPCATCH.COM 447 LLC
p4541
sa(dp4542
g2
I0
sg3
I8
sg4
VDROPCATCH.COM 448 LLC
p4543
sa(dp4544
g2
I0
sg3
I11
sg4
VDROPCATCH.COM 449 LLC
p4545
sa(dp4546
g2
I0
sg3
I16
sg4
VDROPCATCH.COM 450 LLC
p4547
sa(dp4548
g2
I0
sg3
I13
sg4
VDROPCATCH.COM 451 LLC
p4549
sa(dp4550
g2
I0
sg3
I17
sg4
VDROPCATCH.COM 452 LLC
p4551
sa(dp4552
g2
I0
sg3
I23
sg4
VDROPCATCH.COM 453 LLC
p4553
sa(dp4554
g2
I0
sg3
I9
sg4
VDROPCATCH.COM 454 LLC
p4555
sa(dp4556
g2
I0
sg3
I15
sg4
VDROPCATCH.COM 455 LLC
p4557
sa(dp4558
g2
I0
sg3
I11
sg4
VDROPCATCH.COM 456 LLC
p4559
sa(dp4560
g2
I0
sg3
I14
sg4
VDROPCATCH.COM 457 LLC
p4561
sa(dp4562
g2
I0
sg3
I7
sg4
VDROPCATCH.COM 458 LLC
p4563
sa(dp4564
g2
I0
sg3
I12
sg4
VDROPCATCH.COM 459 LLC
p4565
sa(dp4566
g2
I0
sg3
I15
sg4
VDROPCATCH.COM 460 LLC
p4567
sa(dp4568
g2
I0
sg3
I16
sg4
VDROPCATCH.COM 461 LLC
p4569
sa(dp4570
g2
I0
sg3
I10
sg4
VDROPCATCH.COM 462 LLC
p4571
sa(dp4572
g2
I0
sg3
I15
sg4
VDROPCATCH.COM 463 LLC
p4573
sa(dp4574
g2
I0
sg3
I16
sg4
VDROPCATCH.COM 464 LLC
p4575
sa(dp4576
g2
I89
sg3
I5733
sg4
VGANDI SAS
p4577
sa(dp4578
g2
I0
sg3
I19
sg4
VDROPCATCH.COM 465 LLC
p4579
sa(dp4580
g2
I0
sg3
I15
sg4
VDROPCATCH.COM 466 LLC
p4581
sa(dp4582
g2
I0
sg3
I19
sg4
VDROPCATCH.COM 467 LLC
p4583
sa(dp4584
g2
I0
sg3
I14
sg4
VDROPCATCH.COM 468 LLC
p4585
sa(dp4586
g2
I0
sg3
I11
sg4
VDROPCATCH.COM 469 LLC
p4587
sa(dp4588
g2
I0
sg3
I15
sg4
VDROPCATCH.COM 470 LLC
p4589
sa(dp4590
g2
I0
sg3
I7
sg4
VDROPCATCH.COM 471 LLC
p4591
sa(dp4592
g2
I0
sg3
I19
sg4
VDROPCATCH.COM 472 LLC
p4593
sa(dp4594
g2
I0
sg3
I15
sg4
VDROPCATCH.COM 473 LLC
p4595
sa(dp4596
g2
I0
sg3
I138
sg4
VGATEKEEPERDOMAINS.NET LLC
p4597
sa(dp4598
g2
I0
sg3
I1
sg4
VGENIOUS COMMUNICATIONS SARL/AU
p4599
sa(dp4600
g2
I0
sg3
I23
sg4
VDROPCATCH.COM 474 LLC
p4601
sa(dp4602
g2
I0
sg3
I11
sg4
VDROPCATCH.COM 475 LLC
p4603
sa(dp4604
g2
I0
sg3
I17
sg4
VDROPCATCH.COM 476 LLC
p4605
sa(dp4606
g2
I0
sg3
I16
sg4
VDROPCATCH.COM 477 LLC
p4607
sa(dp4608
g2
I0
sg3
I18
sg4
VDROPCATCH.COM 478 LLC
p4609
sa(dp4610
g2
I0
sg3
I19
sg4
VDROPCATCH.COM 479 LLC
p4611
sa(dp4612
g2
I0
sg3
I14
sg4
VDROPCATCH.COM 480 LLC
p4613
sa(dp4614
g2
I0
sg3
I13
sg4
VDROPCATCH.COM 481 LLC
p4615
sa(dp4616
g2
I0
sg3
I19
sg4
VDROPCATCH.COM 482 LLC
p4617
sa(dp4618
g2
I0
sg3
I12
sg4
VDROPCATCH.COM 483 LLC
p4619
sa(dp4620
g2
I0
sg3
I14
sg4
VDROPCATCH.COM 484 LLC
p4621
sa(dp4622
g2
I0
sg3
I13
sg4
VDROPCATCH.COM 485 LLC
p4623
sa(dp4624
g2
I0
sg3
I11
sg4
VDROPCATCH.COM 486 LLC
p4625
sa(dp4626
g2
I0
sg3
I13
sg4
VDROPCATCH.COM 487 LLC
p4627
sa(dp4628
g2
I0
sg3
I17
sg4
VDROPCATCH.COM 488 LLC
p4629
sa(dp4630
g2
I0
sg3
I11
sg4
VDROPCATCH.COM 489 LLC
p4631
sa(dp4632
g2
I0
sg3
I15
sg4
VDROPCATCH.COM 490 LLC
p4633
sa(dp4634
g2
I0
sg3
I11
sg4
VDROPCATCH.COM 491 LLC
p4635
sa(dp4636
g2
I0
sg3
I21
sg4
VDROPCATCH.COM 492 LLC
p4637
sa(dp4638
g2
I0
sg3
I17
sg4
VDROPCATCH.COM 493 LLC
p4639
sa(dp4640
g2
I0
sg3
I19
sg4
VDROPCATCH.COM 494 LLC
p4641
sa(dp4642
g2
I0
sg3
I20
sg4
VDROPCATCH.COM 495 LLC
p4643
sa(dp4644
g2
I0
sg3
I11
sg4
VDROPCATCH.COM 496 LLC
p4645
sa(dp4646
g2
I0
sg3
I11
sg4
VDROPCATCH.COM 497 LLC
p4647
sa(dp4648
g2
I0
sg3
I11
sg4
VDROPCATCH.COM 498 LLC
p4649
sa(dp4650
g2
I0
sg3
I11
sg4
VDROPCATCH.COM 499 LLC
p4651
sa(dp4652
g2
I0
sg3
I17
sg4
VDROPCATCH.COM 500 LLC
p4653
sa(dp4654
g2
I0
sg3
I14
sg4
VDROPCATCH.COM 501 LLC
p4655
sa(dp4656
g2
I0
sg3
I15
sg4
VDROPCATCH.COM 502 LLC
p4657
sa(dp4658
g2
I0
sg3
I19
sg4
VDROPCATCH.COM 503 LLC
p4659
sa(dp4660
g2
I0
sg3
I13
sg4
VDROPCATCH.COM 504 LLC
p4661
sa(dp4662
g2
I0
sg3
I19
sg4
VDROPCATCH.COM 505 LLC
p4663
sa(dp4664
g2
I1
sg3
I8
sg4
VDROPCATCH.COM 506 LLC
p4665
sa(dp4666
g2
I0
sg3
I13
sg4
VDROPCATCH.COM 507 LLC
p4667
sa(dp4668
g2
I0
sg3
I12
sg4
VDROPCATCH.COM 508 LLC
p4669
sa(dp4670
g2
I0
sg3
I29
sg4
VDROPCATCH.COM 509 LLC
p4671
sa(dp4672
g2
I18
sg3
I582
sg4
VGKG.NET, INC.
p4673
sa(dp4674
g2
I22
sg3
I2802
sg4
VMelbourne IT Ltd
p4675
sa(dp4676
g2
I1
sg3
I11
sg4
VMicrobreweddomains.com LLC
p4677
sa(dp4678
g2
I0
sg3
I12
sg4
VMidWest Domains LLC
p4679
sa(dp4680
g2
I2
sg3
I29
sg4
VMijnInternetOplossing B.V.
p4681
sa(dp4682
g2
I0
sg3
I7
sg4
VMillennial Names LLC
p4683
sa(dp4684
g2
I5
sg3
I190
sg4
VMisk.com, Inc.
p4685
sa(dp4686
g2
I2
sg3
I267
sg4
VGLAMDOMAINS LLC
p4687
sa(dp4688
g2
I1
sg3
I129
sg4
VGLIDE SLOPE DOMAINS, LLC
p4689
sa(dp4690
g2
I0
sg3
I3
sg4
VGLOBAL DOMAINS INTERNATIONAL
p4691
sa(dp4692
g2
I0
sg3
I90
sg4
VGLOBAL DOMAINS INTERNATIONAL, INC. DBA DOMAINCOSTCLUB.COM
p4693
sa(dp4694
g2
I65
sg3
I28233
sg4
V22NET, INC.
p4695
sa(dp4696
g2
I0
sg3
I2
sg4
V24X7DOMAINS, LLC
p4697
sa(dp4698
g2
I53
sg3
I5841
sg4
VMoniker Online Services LLC
p4699
sa(dp4700
g2
I1
sg3
I2
sg4
VMoon Shot Domains, LLC
p4701
sa(dp4702
g2
I2
sg3
I43
sg4
VMps Infotecnics Limited
p4703
sa(dp4704
g2
I0
sg3
I12
sg4
VMvpdomainnames.com LLC
p4705
sa(dp4706
g2
I0
sg3
I6
sg4
VMypreciousdomain.com LLC
p4707
sa(dp4708
g2
I0
sg3
I81
sg4
VNAME CONNECTION AREA LLC
p4709
sa(dp4710
g2
I0
sg3
I90
sg4
VNAME CONNECTION SPOT LLC
p4711
sa(dp4712
g2
I0
sg3
I85
sg4
VNAME FIND SOURCE LLC
p4713
sa(dp4714
g2
I0
sg3
I73
sg4
VNAME ICON LLC
p4715
sa(dp4716
g2
I0
sg3
I9
sg4
VNAME NELLY CORPORATION
p4717
sa(dp4718
g2
I0
sg3
I3
sg4
VNAME THREAD CORPORATION
p4719
sa(dp4720
g2
I0
sg3
I2
sg4
VNAME TRANCE LLC
p4721
sa(dp4722
g2
I0
sg3
I1
sg4
VNAME.CC INC
p4723
sa(dp4724
g2
I28
sg3
I3231
sg4
V35 TECHNOLOGY CO., LTD
p4725
sa(dp4726
g2
I7
sg3
I2335
sg4
V35 Technology Co., Ltd.
p4727
sa(dp4728
g2
I0
sg3
I2
sg4
V995DISCOUNTDOMAINS, LLC
p4729
sa(dp4730
g2
I7
sg3
I184
sg4
VAB NAME ISP
p4731
sa(dp4732
g2
I0
sg3
I2
sg4
VAB NameISP
p4733
sa(dp4734
g2
I0
sg3
I1
sg4
VAB RIKTAD
p4735
sa(dp4736
g2
I1
sg3
I22
sg4
VAB Svenska Domner
p4737
sa(dp4738
g2
I0
sg3
I494
sg4
VABOVE.COM PTY LTD.
p4739
sa(dp4740
g2
I0
sg3
I1
sg4
VABU-GHAZALEH INTELLECTUAL PROPERTY DBA TAGIDOMAINS.COM
p4741
sa(dp4742
g2
I0
sg3
I204
sg4
VACCENTDOMAINS LLC
p4743
sa(dp4744
g2
I0
sg3
I7
sg4
VACENS TECHNOLOGIES, S.L.U.
p4745
sa(dp4746
g2
I0
sg3
I119
sg4
VACQUIREDNAMES LLC
p4747
sa(dp4748
g2
I0
sg3
I7
sg4
VACTIVE REGISTRAR, INC.
p4749
sa(dp4750
g2
I0
sg3
I127
sg4
VAD VALOREM DOMAINS, LLC
p4751
sa(dp4752
g2
I0
sg3
I16
sg4
VADDRESS CREATION, LLC
p4753
sa(dp4754
g2
I0
sg3
I6
sg4
VADDRESSONTHEWEB, LLC
p4755
sa(dp4756
g2
I0
sg3
I130
sg4
VADOMAINOFYOUROWN.COM LLC
p4757
sa(dp4758
g2
I0
sg3
I1
sg4
VADVANCED INTERNET TECHNOLOGIES, INC.
p4759
sa(dp4760
g2
I1
sg3
I11
sg4
VAEROTEK BILISIM SANAYI VE TICARET AS
p4761
sa(dp4762
g2
I0
sg3
I8
sg4
VAFRIREGISTER S.A.
p4763
sa(dp4764
g2
I0
sg3
I6
sg4
VAFTERDARK DOMAINS, INCORPORATED
p4765
sa(dp4766
g2
I0
sg3
I2
sg4
VAGRINOON INC
p4767
sa(dp4768
g2
I2
sg3
I148
sg4
VALANTRON BILISIM LTD STI.
p4769
sa(dp4770
g2
I0
sg3
I117
sg4
VALETHIA DOMAINS, LLC
p4771
sa(dp4772
g2
I3
sg3
I1
sg4
VALICES REGISTRY, INC.
p4773
sa(dp4774
g2
I0
sg3
I62
sg4
VALL DOMAINS LLC
p4775
sa(dp4776
g2
I0
sg3
I2
sg4
VALLACCESSDOMAINS, LLC
p4777
sa(dp4778
g2
I0
sg3
I3
sg4
VALLDOMAINS LLC
p4779
sa(dp4780
g2
I1
sg3
I159
sg4
VALLEARTHDOMAINS.COM LLC
p4781
sa(dp4782
g2
I0
sg3
I135
sg4
VALLWORLDNAMES.COM LLC
p4783
sa(dp4784
g2
I0
sg3
I3
sg4
VALPINE DOMAINS INC.
p4785
sa(dp4786
g2
I0
sg3
I4
sg4
VALPNAMES LIMITED
p4787
sa(dp4788
g2
I2
sg3
I25
sg4
VAMAZON REGISTRAR, INC.
p4789
sa(dp4790
g2
I0
sg3
I71
sg4
VANESSIA INC.
p4791
sa(dp4792
g2
I0
sg3
I7
sg4
VANNULET LLC
p4793
sa(dp4794
g2
I0
sg3
I138
sg4
VAQUARIUS DOMAINS, LLC
p4795
sa(dp4796
g2
I0
sg3
I5
sg4
VARAB INTERNET NAMES, INCORPORATED
p4797
sa(dp4798
g2
I0
sg3
I24
sg4
VARCTIC NAMES, INC.
p4799
sa(dp4800
g2
I24
sg3
I2574
sg4
VARSYS INTERNET, S.L. D/B/A NICLINE.COM
p4801
sa(dp4802
g2
I0
sg3
I1
sg4
VARTHUR PENDRAGON, LLC
p4803
sa(dp4804
g2
I99
sg3
I7725
sg4
VNAME.COM, INC.
p4805
sa(dp4806
g2
I0
sg3
I24
sg4
VNAME.NET, INC.
p4807
sa(dp4808
g2
I0
sg3
I1
sg4
VNAME104, INC
p4809
sa(dp4810
g2
I0
sg3
I5
sg4
VNAME105, INC
p4811
sa(dp4812
g2
I0
sg3
I4
sg4
VNAME106, INC.
p4813
sa(dp4814
g2
I0
sg3
I3
sg4
VNAME107, INC.
p4815
sa(dp4816
g2
I0
sg3
I2
sg4
VNAME108, INC.
p4817
sa(dp4818
g2
I0
sg3
I2
sg4
VNAME109, INC.
p4819
sa(dp4820
g2
I0
sg3
I1
sg4
VNAME110, INC.
p4821
sa(dp4822
g2
I0
sg3
I1
sg4
VNAME111, INC.
p4823
sa(dp4824
g2
I0
sg3
I2
sg4
VNAME112, INC.
p4825
sa(dp4826
g2
I0
sg3
I3
sg4
VNAME113, INC.
p4827
sa(dp4828
g2
I0
sg3
I2
sg4
VNAME114, INC
p4829
sa(dp4830
g2
I0
sg3
I3
sg4
VNAME115, INC
p4831
sa(dp4832
g2
I0
sg3
I2
sg4
VNAME116, INC.
p4833
sa(dp4834
g2
I0
sg3
I2
sg4
VNAME117, INC.
p4835
sa(dp4836
g2
I0
sg3
I4
sg4
VNAME120, INC.
p4837
sa(dp4838
g2
I0
sg3
I116
sg4
VNAMEARSENAL.COM LLC
p4839
sa(dp4840
g2
I1
sg3
I123
sg4
VNAMEBAKE LLC
p4841
sa(dp4842
g2
I11
sg3
I248
sg4
VNAMEBAY
p4843
sa(dp4844
g2
I1
sg3
I295
sg4
VNAMEBREW LLC
p4845
sa(dp4846
g2
I0
sg3
I93
sg4
VNAMECATCH LLC
p4847
sa(dp4848
g2
I0
sg3
I84
sg4
VNAMECATCH ZONE LLC
p4849
sa(dp4850
g2
I1
sg3
I113
sg4
VNAMECHILD LLC
p4851
sa(dp4852
g2
I0
sg3
I122
sg4
VNAMECROC.COM LLC
p4853
sa(dp4854
g2
I0
sg3
I110
sg4
VNAMEEMPEROR.COM LLC
p4855
sa(dp4856
g2
I0
sg3
I121
sg4
VNAMEFINGER.COM LLC
p4857
sa(dp4858
g2
I4
sg3
I278
sg4
VNAMEFORWARD LLC
p4859
sa(dp4860
g2
I0
sg3
I85
sg4
VNAMEGRAB LLC
p4861
sa(dp4862
g2
I3
sg3
I248
sg4
VNAMEJOLT.COM LLC
p4863
sa(dp4864
g2
I0
sg3
I46
sg4
VNAMEKING.COM, INC.
p4865
sa(dp4866
g2
I3
sg3
I312
sg4
VNAMELING.COM LLC
p4867
sa(dp4868
g2
I0
sg3
I66
sg4
VNAMEPAL.COM #8001
p4869
sa(dp4870
g2
I1
sg3
I68
sg4
VNAMEPAL.COM #8002
p4871
sa(dp4872
g2
I0
sg3
I70
sg4
VNAMEPAL.COM #8004
p4873
sa(dp4874
g2
I0
sg3
I60
sg4
VNAMEPAL.COM #8006
p4875
sa(dp4876
g2
I0
sg3
I52
sg4
VNAMEPAL.COM #8007
p4877
sa(dp4878
g2
I0
sg3
I71
sg4
VNAMEPAL.COM #8008
p4879
sa(dp4880
g2
I0
sg3
I81
sg4
VNAMEPAL.COM #8009.
p4881
sa(dp4882
g2
I1
sg3
I85
sg4
VNAMEPAL.COM #8010
p4883
sa(dp4884
g2
I0
sg3
I68
sg4
VNAMEPAL.COM #8011
p4885
sa(dp4886
g2
I1
sg3
I58
sg4
VNAMEPAL.COM #8012.
p4887
sa(dp4888
g2
I0
sg3
I64
sg4
VNAMEPAL.COM #8013
p4889
sa(dp4890
g2
I0
sg3
I51
sg4
VNAMEPAL.COM #8014
p4891
sa(dp4892
g2
I0
sg3
I66
sg4
VNAMEPAL.COM #8015
p4893
sa(dp4894
g2
I0
sg3
I73
sg4
VNAMEPAL.COM #8016
p4895
sa(dp4896
g2
I0
sg3
I51
sg4
VNAMEPAL.COM #8017
p4897
sa(dp4898
g2
I0
sg3
I58
sg4
VNAMEPAL.COM #8018
p4899
sa(dp4900
g2
I0
sg3
I107
sg4
VNAMEPAL.COM #8019
p4901
sa(dp4902
g2
I0
sg3
I103
sg4
VNAMEPAL.COM #8021.
p4903
sa(dp4904
g2
I0
sg3
I94
sg4
VNAMEPAL.COM #8023.
p4905
sa(dp4906
g2
I1
sg3
I130
sg4
VNAMEPAL.COM #8024
p4907
sa(dp4908
g2
I0
sg3
I96
sg4
VNAMEPAL.COM #8025.
p4909
sa(dp4910
g2
I0
sg3
I81
sg4
VNAMEPAL.COM #8026.
p4911
sa(dp4912
g2
I0
sg3
I66
sg4
VNAMEPAL.COM #8027
p4913
sa(dp4914
g2
I0
sg3
I60
sg4
VNAMEPAL.COM #8028
p4915
sa(dp4916
g2
I1018
sg3
I65608
sg4
VTUCOWS DOMAINS INC.
p4917
sa(dp4918
g2
I96
sg3
I142
sg4
VTUCOWS, INC.
p4919
sa(dp4920
g2
I0
sg3
I89
sg4
VTURBONAMES LLC
p4921
sa(dp4922
g2
I6
sg3
I1575
sg4
VNAMEPAL.COM, LLC
p4923
sa(dp4924
g2
I0
sg3
I146
sg4
VNAMEPANTHER.COM LLC
p4925
sa(dp4926
g2
I0
sg3
I77
sg4
VNAMES EXPRESS LLC
p4927
sa(dp4928
g2
I0
sg3
I2
sg4
VNAMES IN MOTION INC.
p4929
sa(dp4930
g2
I0
sg3
I84
sg4
VNAMES ON THE DROP LLC
p4931
sa(dp4932
g2
I0
sg3
I85
sg4
VNAMES STOP HERE LLC
p4933
sa(dp4934
g2
I1
sg3
I113
sg4
VNAMESALACARTE.COM LLC
p4935
sa(dp4936
g2
I0
sg3
I91
sg4
VNAMESAPLENTY LLC
p4937
sa(dp4938
g2
I1
sg3
I265
sg4
VNAMESAY LLC
p4939
sa(dp4940
g2
I10
sg3
I159
sg4
VNAMESCOUT CORP
p4941
sa(dp4942
g2
I17
sg3
I2349
sg4
VTURNCOMMERCE, INC. DBA NAMEBRIGHT.COM
p4943
sa(dp4944
g2
I0
sg3
I5
sg4
VTUVALUDOMAINS, LLC
p4945
sa(dp4946
g2
I0
sg3
I1
sg4
VTWT S.P.A.
p4947
sa(dp4948
g2
I0
sg3
I1
sg4
VTWT SpA
p4949
sa(dp4950
g2
I0
sg3
I3
sg4
VTagi Domains
p4951
sa(dp4952
g2
I0
sg3
I13
sg4
VTan Tran, LLC
p4953
sa(dp4954
g2
I0
sg3
I4
sg4
VTargeted Drop Catch LLC
p4955
sa(dp4956
g2
I0
sg3
I3
sg4
VTech Tyrants, Inc
p4957
sa(dp4958
g2
I0
sg3
I5
sg4
VThe Domains LLC
p4959
sa(dp4960
g2
I1
sg3
I245
sg4
VNAMESECTOR LLC
p4961
sa(dp4962
g2
I3
sg3
I189
sg4
VThe Registrar Company B.V.
p4963
sa(dp4964
g2
I0
sg3
I6
sg4
VThe Registrar Service, Inc
p4965
sa(dp4966
g2
I12
sg3
I7686
sg4
VASCIO TECHNOLOGIES, INC. DANMARK - FILIAL AF ASCIO TECHNOLOGIES, INC. USA
p4967
sa(dp4968
g2
I0
sg3
I6
sg4
VASIADOMAINS, INCORPORATED
p4969
sa(dp4970
g2
I0
sg3
I82
sg4
VATAK DOMAIN
p4971
sa(dp4972
g2
I4
sg3
I492
sg4
VNAMESECURE.COM
p4973
sa(dp4974
g2
I0
sg3
I112
sg4
VNAMESELITE, LLC
p4975
sa(dp4976
g2
I0
sg3
I245
sg4
VATAK DOMAIN HOSTING INTERNET VE BILGI TEKNOLOJILERI LIMITED SIRKETI D/B/A ATAK TEKNOLOJI
p4977
sa(dp4978
g2
I0
sg3
I115
sg4
VATLANTIC DOMAINS, LLC
p4979
sa(dp4980
g2
I0
sg3
I234
sg4
VNAMESHERE LLC
p4981
sa(dp4982
g2
I0
sg3
I141
sg4
VATLANTICFRIENDNAMES.COM LLC
p4983
sa(dp4984
g2
I0
sg3
I149
sg4
VATOMICDOMAINNAMES.COM LLC
p4985
sa(dp4986
g2
I0
sg3
I1
sg4
VATTILA THE HUN, LLC
p4987
sa(dp4988
g2
I0
sg3
I6
sg4
VAUSTRIADOMAINS, LLC
p4989
sa(dp4990
g2
I0
sg3
I3
sg4
VAUSTRIANDOMAINS, LLC
p4991
sa(dp4992
g2
I0
sg3
I110
sg4
VAVIDDOMAIN LLC
p4993
sa(dp4994
g2
I8
sg3
I1038
sg4
VTheNameCo LLC
p4995
sa(dp4996
g2
I0
sg3
I8
sg4
VTheseus 888, LLC
p4997
sa(dp4998
g2
I0
sg3
I7
sg4
VThirdFloorDNS.com LLC
p4999
sa(dp5000
g2
I0
sg3
I7
sg4
VThirdroundnames  LLC
p5001
sa(dp5002
g2
I0
sg3
I4
sg4
VThomas Edison, LLC
p5003
sa(dp5004
g2
I0
sg3
I13
sg4
VThomas Jefferson, LLC
p5005
sa(dp5006
g2
I0
sg3
I3
sg4
VThreadagent.com, Inc.
p5007
sa(dp5008
g2
I0
sg3
I14
sg4
VThreadwalker.com, Inc.
p5009
sa(dp5010
g2
I0
sg3
I15
sg4
VThreadwatch.com, Inc.
p5011
sa(dp5012
g2
I0
sg3
I15
sg4
VThreadwise.com, Inc
p5013
sa(dp5014
g2
I0
sg3
I5
sg4
VThreepoint Domains LLC
p5015
sa(dp5016
g2
I0
sg3
I6
sg4
VTiger Shark Domains, LLC
p5017
sa(dp5018
g2
I0
sg3
I162
sg4
VAZDOMAINZ, LLC
p5019
sa(dp5020
g2
I0
sg3
I47
sg4
VTiger Technologies LLC
p5021
sa(dp5022
g2
I0
sg3
I182
sg4
VAZPRIVATEZ, LLC
p5023
sa(dp5024
g2
I0
sg3
I9
sg4
VAbraham Lincoln, LLC
p5025
sa(dp5026
g2
I2
sg3
I413
sg4
VTirupati Domains and Hosting Private Limited
p5027
sa(dp5028
g2
I0
sg3
I3
sg4
VTitanic Hosting, Inc.
p5029
sa(dp5030
g2
I0
sg3
I15
sg4
VTitus 888, LLC
p5031
sa(dp5032
g2
I3
sg3
I716
sg4
VAccentDomains LLC
p5033
sa(dp5034
g2
I0
sg3
I12
sg4
VAchilles 888, LLC
p5035
sa(dp5036
g2
I36
sg3
I830
sg4
VTodaynic.com, Inc.
p5037
sa(dp5038
g2
I0
sg3
I5
sg4
VToglodo S.A.
p5039
sa(dp5040
g2
I0
sg3
I3
sg4
VTop Level Domains LLC
p5041
sa(dp5042
g2
I0
sg3
I7
sg4
VTop Pick Names LLC
p5043
sa(dp5044
g2
I0
sg3
I3
sg4
VTop Shelf Domains LLC
p5045
sa(dp5046
g2
I2
sg3
I419
sg4
VAcquiredNames LLC
p5047
sa(dp5048
g2
I0
sg3
I6
sg4
VTop Tier Domains LLC
p5049
sa(dp5050
g2
I0
sg3
I5
sg4
VTopsystem, LLC
p5051
sa(dp5052
g2
I4
sg3
I53
sg4
VTotal Registrations
p5053
sa(dp5054
g2
I6
sg3
I346
sg4
VTotallyDomain LLC
p5055
sa(dp5056
g2
I0
sg3
I7
sg4
VTouchdown Domains LLC
p5057
sa(dp5058
g2
I0
sg3
I1
sg4
VTrade Starter, Inc
p5059
sa(dp5060
g2
I12
sg3
I450
sg4
VActive Registrar, Inc
p5061
sa(dp5062
g2
I1
sg3
I3
sg4
VAd Valorem Domains, LLC
p5063
sa(dp5064
g2
I0
sg3
I7
sg4
VAdomainofyourown.com LLC
p5065
sa(dp5066
g2
I3
sg3
I0
sg4
VAerotek Bilisim Sanayi ve Ticaret AS
p5067
sa(dp5068
g2
I1
sg3
I169
sg4
VTradeIndia, INC
p5069
sa(dp5070
g2
I1
sg3
I716
sg4
VAerotek Bilisim Taahut Sanayi Ve Ticaret Ltd Sti.
p5071
sa(dp5072
g2
I0
sg3
I6
sg4
VAfriregister S.A
p5073
sa(dp5074
g2
I0
sg3
I1
sg4
VAfterdark Domains, Incorporated
p5075
sa(dp5076
g2
I0
sg3
I6
sg4
VAim High!, Inc. dba Get Yer Name!
p5077
sa(dp5078
g2
I9
sg3
I440
sg4
VAkky. Una division de NIC Mexico
p5079
sa(dp5080
g2
I9
sg3
I1155
sg4
VTradeNamed LLC
p5081
sa(dp5082
g2
I0
sg3
I5
sg4
VTradewinds Names, LLC
p5083
sa(dp5084
g2
I0
sg3
I2
sg4
VTravelDomains, Incorporated
p5085
sa(dp5086
g2
I0
sg3
I6
sg4
VTreasure Trove Domains LLC
p5087
sa(dp5088
g2
I1
sg3
I26
sg4
VTrunkoz Technologies Pvt Ltd. d/b/a OwnRegistrar.com
p5089
sa(dp5090
g2
I0
sg3
I6
sg4
VTurbonames LLC
p5091
sa(dp5092
g2
I1
sg3
I135
sg4
VAlantron
p5093
sa(dp5094
g2
I0
sg3
I7
sg4
VAlethia Domains, LLC
p5095
sa(dp5096
g2
I81
sg3
I25447
sg4
VGMO INTERNET, INC.
p5097
sa(dp5098
g2
I0
sg3
I26
sg4
VAlexander the Great, LLC
p5099
sa(dp5100
g2
I0
sg3
I1
sg4
VAlice's Registry, Inc.
p5101
sa(dp5102
g2
I0
sg3
I3
sg4
VAll Domains LLC
p5103
sa(dp5104
g2
I0
sg3
I4
sg4
VAllGlobalNames, S.A. dba Cyberegistro.com
p5105
sa(dp5106
g2
I0
sg3
I10
sg4
VAllearthdomains.com LLC
p5107
sa(dp5108
g2
I0
sg3
I20
sg4
VGMO INTERNET, INC. DBA ONAMAE.COM
p5109
sa(dp5110
g2
I0
sg3
I9
sg4
VAllworldnames.com LLC
p5111
sa(dp5112
g2
I3
sg3
I78
sg4
VAlpine Domains Inc.
p5113
sa(dp5114
g2
I3
sg3
I210
sg4
VAlpnames Limited
p5115
sa(dp5116
g2
I7
sg3
I1260
sg4
VGO AUSTRALIA DOMAINS, LLC
p5117
sa(dp5118
g2
I26
sg3
I1805
sg4
VAmazon Registrar, Inc.
p5119
sa(dp5120
g2
I1
sg3
I6
sg4
VAmplica SRL
p5121
sa(dp5122
g2
I0
sg3
I5
sg4
VAnessia Inc
p5123
sa(dp5124
g2
I0
sg3
I3
sg4
VAnessia Inc.
p5125
sa(dp5126
g2
I0
sg3
I9
sg4
VAnnam, LLC
p5127
sa(dp5128
g2
I10
sg3
I865
sg4
VGO CANADA DOMAINS, LLC
p5129
sa(dp5130
g2
I4
sg3
I810
sg4
VGO CHINA DOMAINS, LLC
p5131
sa(dp5132
g2
I5
sg3
I737
sg4
VGO FRANCE DOMAINS, LLC
p5133
sa(dp5134
g2
I5
sg3
I749
sg4
VGO MONTENEGRO DOMAINS, LLC
p5135
sa(dp5136
g2
I6
sg3
I5109
sg4
VAnnulet, Inc
p5137
sa(dp5138
g2
I0
sg3
I5
sg4
VAnytime Sites, Inc.
p5139
sa(dp5140
g2
I0
sg3
I8
sg4
VApollo 888, LLC
p5141
sa(dp5142
g2
I0
sg3
I2
sg4
VAquarius Domains, LLC
p5143
sa(dp5144
g2
I0
sg3
I11
sg4
VAres 888, LLC
p5145
sa(dp5146
g2
I0
sg3
I8
sg4
VAristotle 888, LLC
p5147
sa(dp5148
g2
I20
sg3
I38
sg4
VArsys Internet, S.L. dba NICLINE.COM
p5149
sa(dp5150
g2
I0
sg3
I13
sg4
VArthur Pendragon, LLC
p5151
sa(dp5152
g2
I60
sg3
I8032
sg4
VTurnCommerce, Inc. DBA NameBright.com
p5153
sa(dp5154
g2
I1
sg3
I140
sg4
VUDAMAIN.COM LLC
p5155
sa(dp5156
g2
I107
sg3
I902
sg4
VAscio Technologies, Inc
p5157
sa(dp5158
g2
I0
sg3
I5
sg4
VAsiaRegister, Inc.
p5159
sa(dp5160
g2
I0
sg3
I25
sg4
VAstutium Limited
p5161
sa(dp5162
g2
I0
sg3
I10
sg4
VAtlantic Domains LLC
p5163
sa(dp5164
g2
I0
sg3
I10
sg4
VAtlanticFriendNames.com LLC
p5165
sa(dp5166
g2
I0
sg3
I7
sg4
VAtomicdomainnames.com LLC
p5167
sa(dp5168
g2
I0
sg3
I18
sg4
VAttila the Hun, LLC
p5169
sa(dp5170
g2
I0
sg3
I4
sg4
VAuthenticWeb Inc.
p5171
sa(dp5172
g2
I0
sg3
I10
sg4
VAutomattic Inc.
p5173
sa(dp5174
g2
I1
sg3
I167
sg4
VUDOMAINNAME.COM LLC
p5175
sa(dp5176
g2
I5
sg3
I11
sg4
VUK2 Group Ltd.
p5177
sa(dp5178
g2
I0
sg3
I1
sg4
VULYSSES S. GRANT, LLC
p5179
sa(dp5180
g2
I0
sg3
I389
sg4
VAvidDomain LLC
p5181
sa(dp5182
g2
I0
sg3
I179
sg4
VBACKSLAP DOMAINS, INC
p5183
sa(dp5184
g2
I1
sg3
I84
sg4
VBACKSTOP NAMES LLC
p5185
sa(dp5186
g2
I0
sg3
I124
sg4
VBARACUDA DOMAINS, LLC
p5187
sa(dp5188
g2
I118
sg3
I12724
sg4
VNAMESILO, LLC
p5189
sa(dp5190
g2
I0
sg3
I81
sg4
VNAMESNAP LLC
p5191
sa(dp5192
g2
I0
sg3
I122
sg4
VBARONOFDOMAINS.COM LLC
p5193
sa(dp5194
g2
I1
sg3
I23
sg4
VBBOnline
p5195
sa(dp5196
g2
I0
sg3
I21
sg4
VBDL Systmes SAS dba ProDomaines
p5197
sa(dp5198
g2
I1
sg3
I87
sg4
VNAMESNAPPER LLC
p5199
sa(dp5200
g2
I1
sg3
I95
sg4
VNAMESOURCE LLC
p5201
sa(dp5202
g2
I0
sg3
I131
sg4
VBEARTRAPDOMAINS.COM LLC
p5203
sa(dp5204
g2
I0
sg3
I20
sg4
VBEIJING INNOVATIVE LINKAGE TECHNOLOGY LTD. DBA DNS.COM.CN
p5205
sa(dp5206
g2
I0
sg3
I12
sg4
VBEIJING LANHAI JIYE TECHNOLOGY CO.,LTD
p5207
sa(dp5208
g2
I0
sg3
I97
sg4
VNAMESOURCEDOMAINS, LLC
p5209
sa(dp5210
g2
I0
sg3
I8
sg4
VNAMESPRO SOLUTIONS INC.
p5211
sa(dp5212
g2
I0
sg3
I77
sg4
VNAMESTOP LLC
p5213
sa(dp5214
g2
I1
sg3
I345
sg4
VBEIJING SANFRONT INFORMATION TECHNOLOGY CO., LTD
p5215
sa(dp5216
g2
I3
sg3
I272
sg4
VNAMESTRATEGIES LLC
p5217
sa(dp5218
g2
I0
sg3
I82
sg4
VBEIJING TONG GUAN XIN TIAN TECHNOLOGY LTD (NOVALTEL)
p5219
sa(dp5220
g2
I0
sg3
I19
sg4
VBEIJING WANGZUN TECHNOLOGY CO., LTD
p5221
sa(dp5222
g2
I0
sg3
I19
sg4
VBEIJING ZHONGWAN NETWORK TECHNOLOGY CO LTD
p5223
sa(dp5224
g2
I0
sg3
I137
sg4
VBELMONTDOMAINS.COM LLC
p5225
sa(dp5226
g2
I1
sg3
I288
sg4
VNAMETELL.COM LLC
p5227
sa(dp5228
g2
I0
sg3
I79
sg4
VBEST DROP NAMES LLC
p5229
sa(dp5230
g2
I0
sg3
I116
sg4
VBETTERTHANAVERAGEDOMAINS.COM LLC
p5231
sa(dp5232
g2
I0
sg3
I5
sg4
VBIDFORDOMAINNAMES, LLC
p5233
sa(dp5234
g2
I0
sg3
I106
sg4
VBIG DIPPER DOMAINS, LLC
p5235
sa(dp5236
g2
I0
sg3
I1
sg4
VBIG HOUSE SERVICES INC.
p5237
sa(dp5238
g2
I1
sg3
I367
sg4
VNAMETURN LLC
p5239
sa(dp5240
g2
I1
sg3
I140
sg4
VBIGLIZARDDOMAINS.COM LLC
p5241
sa(dp5242
g2
I0
sg3
I113
sg4
VNAMEVOLCANO.COM LLC
p5243
sa(dp5244
g2
I2
sg3
I138
sg4
VBIGROCK SOLUTIONS LIMITED
p5245
sa(dp5246
g2
I0
sg3
I1
sg4
VBINERO AB
p5247
sa(dp5248
g2
I0
sg3
I71
sg4
VNAMEWINNER LLC
p5249
sa(dp5250
g2
I5
sg3
I262
sg4
VBIZCN.COM, INC.
p5251
sa(dp5252
g2
I4
sg3
I261
sg4
VNANJING IMPERIOSUS TECHNOLOGY CO. LTD.
p5253
sa(dp5254
g2
I0
sg3
I1
sg4
VNAUGUS LIMITED, LLC.
p5255
sa(dp5256
g2
I2
sg3
I50
sg4
VNEONIC OY
p5257
sa(dp5258
g2
I0
sg3
I4
sg4
VNERD NAMES CORPORATION
p5259
sa(dp5260
g2
I0
sg3
I7
sg4
VNET 4 INDIA LIMITED
p5261
sa(dp5262
g2
I2
sg3
I48
sg4
VNET TUNER CORP. DBA WEBMASTERS.COM
p5263
sa(dp5264
g2
I0
sg3
I18
sg4
VNETART SP Z O.O
p5265
sa(dp5266
g2
I0
sg3
I9
sg4
VNETDORM, INC. DBA DNSEXIT.COM
p5267
sa(dp5268
g2
I1
sg3
I137
sg4
VBLASTDOMAINS LLC
p5269
sa(dp5270
g2
I0
sg3
I8
sg4
VBLISTERNET, INCORPORATED
p5271
sa(dp5272
g2
I2
sg3
I62
sg4
VNETEARTH ONE INC. D/B/A NETEARTH
p5273
sa(dp5274
g2
I2
sg3
I57
sg4
VNETESTATE LLC
p5275
sa(dp5276
g2
I0
sg3
I113
sg4
VBLOCKHOST LLC
p5277
sa(dp5278
g2
I3
sg3
I76
sg4
VNETIM
p5279
sa(dp5280
g2
I0
sg3
I1
sg4
VNETIM SARL
p5281
sa(dp5282
g2
I0
sg3
I4
sg4
VNETOWL, INC.
p5283
sa(dp5284
g2
I0
sg3
I80
sg4
VBLUE ANGEL DOMAINS LLC
p5285
sa(dp5286
g2
I0
sg3
I5
sg4
VNETRACORP, LLC DBA GLOBAL INTERNET
p5287
sa(dp5288
g2
I0
sg3
I16
sg4
VNETREGISTRY PTY. LTD.
p5289
sa(dp5290
g2
I0
sg3
I1
sg4
VNETTUNER CORP. DBA WEBMASTERS.COM
p5291
sa(dp5292
g2
I0
sg3
I3
sg4
VNETWORK INFORMATION CENTER MEXICO, S. C.
p5293
sa(dp5294
g2
I13
sg3
I547
sg4
VBLUE RAZOR DOMAINS, LLC
p5295
sa(dp5296
g2
I0
sg3
I110
sg4
VBONAM FORTUNAM DOMAINS, LLC
p5297
sa(dp5298
g2
I0
sg3
I131
sg4
VBONZAI DOMAINS, LLC
p5299
sa(dp5300
g2
I0
sg3
I1
sg4
VBOTTLE DOMAINS, INC.
p5301
sa(dp5302
g2
I1
sg3
I92
sg4
VBOUNCE PASS DOMAINS LLC
p5303
sa(dp5304
g2
I0
sg3
I7
sg4
VBR domain Inc.
p5305
sa(dp5306
g2
I6
sg3
I237
sg4
VBRANDON GRAY INTERNET SERVICES, INC. DBA NAMEJUICE.COM
p5307
sa(dp5308
g2
I0
sg3
I87
sg4
VBRAVENAMES INC.
p5309
sa(dp5310
g2
I0
sg3
I126
sg4
VBULLRUNDOMAINS.COM LLC
p5311
sa(dp5312
g2
I0
sg3
I129
sg4
VBURNSIDEDOMAINS.COM LLC
p5313
sa(dp5314
g2
I0
sg3
I117
sg4
VBackslap Domains
p5315
sa(dp5316
g2
I0
sg3
I6
sg4
VBackstop Names LLC
p5317
sa(dp5318
g2
I0
sg3
I6
sg4
VBaracuda Domains, LLC
p5319
sa(dp5320
g2
I0
sg3
I8
sg4
VBaronofdomains.com LLC
p5321
sa(dp5322
g2
I0
sg3
I12
sg4
VBeartrapdomains.com LLC
p5323
sa(dp5324
g2
I0
sg3
I2
sg4
VBeijing Guoxu Network Technology Co. LTD
p5325
sa(dp5326
g2
I55
sg3
I9767
sg4
VBeijing Innovative Linkage Technology Ltd.
p5327
sa(dp5328
g2
I0
sg3
I55
sg4
VBeijing Innovative Linkage Technology Ltd..
p5329
sa(dp5330
g2
I0
sg3
I28
sg4
VBeijing Zihai Technology Co. Ltd.
p5331
sa(dp5332
g2
I0
sg3
I15
sg4
VBelmontdomains.com LLC
p5333
sa(dp5334
g2
I0
sg3
I3
sg4
VBenjamin Franklin 888, LLC
p5335
sa(dp5336
g2
I0
sg3
I6
sg4
VBest Drop Names LLC
p5337
sa(dp5338
g2
I0
sg3
I13
sg4
VBetterthanaveragedomains.com LLC
p5339
sa(dp5340
g2
I0
sg3
I6
sg4
VBig Domain Shop, Inc
p5341
sa(dp5342
g2
I138
sg3
I7381
sg4
VBigRock Solutions Ltd
p5343
sa(dp5344
g2
I0
sg3
I9
sg4
VBiglizarddomains.com LLC
p5345
sa(dp5346
g2
I0
sg3
I6
sg4
VBilly the Kid, LLC
p5347
sa(dp5348
g2
I2
sg3
I310
sg4
VBinero AB
p5349
sa(dp5350
g2
I378
sg3
I30318
sg4
VUNIREGISTRAR CORP
p5351
sa(dp5352
g2
I1
sg3
I2
sg4
VUNITEDKINGDOMDOMAINS, LLC
p5353
sa(dp5354
g2
I0
sg3
I1
sg4
VUNIVERSAL REGISTRATION SERVICES INC. DBA NEWDENTIT
p5355
sa(dp5356
g2
I0
sg3
I8
sg4
VUNIVERSAL REGISTRATION SERVICES INC. DBA NEWDENTITY.COM
p5357
sa(dp5358
g2
I37
sg3
I1475
sg4
VUNIVERSO ONLINE S/A (UOL)
p5359
sa(dp5360
g2
I0
sg3
I5
sg4
VUPPERLINK LIMITED
p5361
sa(dp5362
g2
I4
sg3
I821
sg4
VURL SOLUTIONS INC.
p5363
sa(dp5364
g2
I0
sg3
I11
sg4
VUdamain.com LLC
p5365
sa(dp5366
g2
I0
sg3
I5
sg4
VUdomainName.com LLC
p5367
sa(dp5368
g2
I0
sg3
I12
sg4
VUlfberht, LLC
p5369
sa(dp5370
g2
I0
sg3
I1
sg4
VUltra Registrar, Inc
p5371
sa(dp5372
g2
I0
sg3
I13
sg4
VUlysses S. Grant, LLC
p5373
sa(dp5374
g2
I0
sg3
I5
sg4
VUnified Servers, Inc
p5375
sa(dp5376
g2
I0
sg3
I2
sg4
VUnited Domain Registry, Inc.
p5377
sa(dp5378
g2
I0
sg3
I3
sg4
VUnpower, Inc
p5379
sa(dp5380
g2
I6
sg3
I95
sg4
VUpperlink Limited
p5381
sa(dp5382
g2
I0
sg3
I87
sg4
VV12 DOMAINS, LLC
p5383
sa(dp5384
g2
I0
sg3
I4
sg4
VV12 Domains, LLC
p5385
sa(dp5386
g2
I0
sg3
I46
sg4
VVAUTRON RECHENZENTRUM AG
p5387
sa(dp5388
g2
I0
sg3
I2
sg4
VVEDACORE.COM, INC.
p5389
sa(dp5390
g2
I0
sg3
I6
sg4
VVERISIGN SECURITY AND STABILITY
p5391
sa(dp5392
g2
I0
sg3
I104
sg4
VVERITAS DOMAINS, LLC
p5393
sa(dp5394
g2
I0
sg3
I80
sg4
VVICTORYNAMES LLC
p5395
sa(dp5396
g2
I0
sg3
I1
sg4
VVIRTUAL REGISTRAR, INC.
p5397
sa(dp5398
g2
I2
sg3
I213
sg4
VVISUALNAMES LLC
p5399
sa(dp5400
g2
I0
sg3
I3
sg4
VVIVIDDOMAINS
p5401
sa(dp5402
g2
I0
sg3
I2
sg4
VVODIEN INTERNET SOLUTIONS PTE LTD
p5403
sa(dp5404
g2
I0
sg3
I83
sg4
VVOLUSION, INC.
p5405
sa(dp5406
g2
I0
sg3
I20
sg4
VVariomedia AG dba puredomain.com
p5407
sa(dp5408
g2
I19
sg3
I475
sg4
VVautron Rechenzentrum AG
p5409
sa(dp5410
g2
I0
sg3
I8
sg4
VVeritas Domains, LLC
p5411
sa(dp5412
g2
I0
sg3
I2
sg4
VVertex Names.com, Inc
p5413
sa(dp5414
g2
I0
sg3
I5
sg4
VVictorynames LLC
p5415
sa(dp5416
g2
I0
sg3
I2
sg4
VVisual Monster, Inc
p5417
sa(dp5418
g2
I5
sg3
I730
sg4
VVisualNames LLC
p5419
sa(dp5420
g2
I2
sg3
I233
sg4
VVitalwerks Internet Solutions, LLC / No-IP.com
p5421
sa(dp5422
g2
I0
sg3
I11
sg4
VVlad the Impaler, LLC
p5423
sa(dp5424
g2
I0
sg3
I11
sg4
VVo Nguyen Giap, LLC
p5425
sa(dp5426
g2
I8
sg3
I194
sg4
VVodien Internet Solutions Pte Ltd
p5427
sa(dp5428
g2
I0
sg3
I4
sg4
VWEB COMMERCE COMMUNICATIONS LIMITED DBA WEBNIC.CC
p5429
sa(dp5430
g2
I0
sg3
I2
sg4
VWEB DRIVE LTD.
p5431
sa(dp5432
g2
I0
sg3
I1
sg4
VWEB SITE SOURCE, INC
p5433
sa(dp5434
g2
I0
sg3
I13
sg4
VWEB WERKS INDIA PVT. LTD D/B/A ZENREGISTRY.COM
p5435
sa(dp5436
g2
I0
sg3
I6
sg4
VWEB4AFRICA INC
p5437
sa(dp5438
g2
I0
sg3
I30
sg4
VWEBAGENTUR.AT INTERNET SERVICES GMBH DBA DOMAINNAME.AT
p5439
sa(dp5440
g2
I0
sg3
I1
sg4
VWEBAIR INTERNET DEVELOPMENT, INC.
p5441
sa(dp5442
g2
I109
sg3
I2903
sg4
VWEBCC
p5443
sa(dp5444
g2
I480
sg3
I38635
sg4
VNETWORK SOLUTIONS, LLC.
p5445
sa(dp5446
g2
I0
sg3
I46
sg4
VNETWORKING4ALL B.V.
p5447
sa(dp5448
g2
I0
sg3
I1
sg4
VNETZONE AG
p5449
sa(dp5450
g2
I0
sg3
I24
sg4
VNEUBOX INTERNET SA DE CV
p5451
sa(dp5452
g2
I1928
sg3
I91874
sg4
VPDR Ltd. d/b/a PublicDomainRegistry.com
p5453
sa(dp5454
g2
I0
sg3
I104
sg4
VPDXPRIVATENAMES.COM LLC
p5455
sa(dp5456
g2
I0
sg3
I6
sg4
VPDXPrivateNames.com LLC
p5457
sa(dp5458
g2
I0
sg3
I111
sg4
VPEARLNAMINGSERVICE.COM LLC
p5459
sa(dp5460
g2
I0
sg3
I2
sg4
VPETER THE GREAT, LLC
p5461
sa(dp5462
g2
I0
sg3
I1
sg4
VPHEENIX 11, LLC
p5463
sa(dp5464
g2
I0
sg3
I1
sg4
VPHEENIX 12, LLC
p5465
sa(dp5466
g2
I0
sg3
I1
sg4
VPHEENIX 18, LLC
p5467
sa(dp5468
g2
I0
sg3
I1
sg4
VPHEENIX 31, LLC
p5469
sa(dp5470
g2
I0
sg3
I1
sg4
VPHEENIX 37, LLC
p5471
sa(dp5472
g2
I0
sg3
I1
sg4
VPHEENIX 39, LLC
p5473
sa(dp5474
g2
I0
sg3
I1
sg4
VPHEENIX 49, LLC
p5475
sa(dp5476
g2
I0
sg3
I1
sg4
VPHEENIX 71, LLC
p5477
sa(dp5478
g2
I0
sg3
I1
sg4
VPHEENIX 75, LLC
p5479
sa(dp5480
g2
I0
sg3
I1
sg4
VPHEENIX 87, LLC
p5481
sa(dp5482
g2
I0
sg3
I1
sg4
VPHEENIX 99, LLC
p5483
sa(dp5484
g2
I0
sg3
I80
sg4
VPINK ELEPHANT DOMAINS, LLC
p5485
sa(dp5486
g2
I0
sg3
I96
sg4
VPIPELINE DOMAINS, LLC
p5487
sa(dp5488
g2
I0
sg3
I3
sg4
VPLANETDOMAIN PTY LTD.
p5489
sa(dp5490
g2
I0
sg3
I1
sg4
VPLATINUM REGISTRAR, INC.
p5491
sa(dp5492
g2
I21
sg3
I946
sg4
VNEUBOX Internet S.A. de C.V.
p5493
sa(dp5494
g2
I132
sg3
I20091
sg4
VBizcn.com,Inc.
p5495
sa(dp5496
g2
I1
sg3
I44
sg4
VNEUDOMAIN LLC
p5497
sa(dp5498
g2
I0
sg3
I463
sg4
VPOCKETDOMAIN.COM, INC
p5499
sa(dp5500
g2
I0
sg3
I2
sg4
VPORTLANDNAMES.COM, LLC
p5501
sa(dp5502
g2
I0
sg3
I5
sg4
VPOSTALDOMAINS, INCORPORATED
p5503
sa(dp5504
g2
I0
sg3
I3
sg4
VPREMIERENAME.CA INC.
p5505
sa(dp5506
g2
I1
sg3
I94
sg4
VNEW ORDER DOMAINS, LLC
p5507
sa(dp5508
g2
I0
sg3
I8
sg4
VNHAN HOA SOFTWARE COMPANY LTD
p5509
sa(dp5510
g2
I0
sg3
I7
sg4
VNHN TECHORUS CORP.
p5511
sa(dp5512
g2
I0
sg3
I15
sg4
VNICCO LTD.
p5513
sa(dp5514
g2
I0
sg3
I16
sg4
VNICREG LLC
p5515
sa(dp5516
g2
I2
sg3
I45
sg4
VNICS TELEKOMUNIKASYON TIC LTD. STI.
p5517
sa(dp5518
g2
I3
sg3
I237
sg4
VPRESIDENTIALDOMAINS LLC
p5519
sa(dp5520
g2
I1
sg3
I6
sg4
VPRIVACYPOST, INC.
p5521
sa(dp5522
g2
I0
sg3
I4
sg4
VPRIVATE DOMAINS, INCORPORATED
p5523
sa(dp5524
g2
I4
sg3
I399
sg4
VBlacknight Internet Solutions Ltd.
p5525
sa(dp5526
g2
I0
sg3
I168
sg4
VPROMO PEOPLE, INC.
p5527
sa(dp5528
g2
I1
sg3
I330
sg4
VPRONAMED LLC
p5529
sa(dp5530
g2
I45
sg3
I4637
sg4
VWEBFUSION LIMITED
p5531
sa(dp5532
g2
I4
sg3
I463
sg4
VBlastDomains LLC
p5533
sa(dp5534
g2
I0
sg3
I1
sg4
VBlisternet, Incorporated
p5535
sa(dp5536
g2
I1
sg3
I118
sg4
VPROTONDOMAINS.COM LLC
p5537
sa(dp5538
g2
I0
sg3
I2
sg4
VPSI-JAPAN, INC.
p5539
sa(dp5540
g2
I1
sg3
I4
sg4
VPSI-Japan Inc.
p5541
sa(dp5542
g2
I0
sg3
I18
sg4
VPSI-USA, INC. DBA DOMAIN ROBOT
p5543
sa(dp5544
g2
I2
sg3
I227
sg4
VWEBNAMES.CA INC
p5545
sa(dp5546
g2
I1
sg3
I488
sg4
VBlockHost LLC
p5547
sa(dp5548
g2
I0
sg3
I4
sg4
VBlue Angel Domains LLC
p5549
sa(dp5550
g2
I0
sg3
I2
sg4
VBonam Fortunam Domains, LLC
p5551
sa(dp5552
g2
I0
sg3
I5
sg4
VBonzai Domains, LLC
p5553
sa(dp5554
g2
I0
sg3
I36
sg4
VBottle Domains, Inc
p5555
sa(dp5556
g2
I0
sg3
I7
sg4
VBounce Pass Domains LLC
p5557
sa(dp5558
g2
I0
sg3
I2
sg4
VBraveNames Inc.
p5559
sa(dp5560
g2
I0
sg3
I3
sg4
VBravenames Inc
p5561
sa(dp5562
g2
I0
sg3
I3
sg4
VBrennercom Limited
p5563
sa(dp5564
g2
I0
sg3
I8
sg4
VBuddha, LLC
p5565
sa(dp5566
g2
I0
sg3
I8
sg4
VBullRunDomains.com LLC
p5567
sa(dp5568
g2
I0
sg3
I1
sg4
VBurnsidedomains.com LLC
p5569
sa(dp5570
g2
I0
sg3
I6
sg4
VCAPITALDOMAINS, LLC
p5571
sa(dp5572
g2
I1
sg3
I14
sg4
VCAT, INC. D/B/A NAMEZERO.COM
p5573
sa(dp5574
g2
I0
sg3
I1
sg4
VCATALOG.COM, INC.
p5575
sa(dp5576
g2
I0
sg3
I70
sg4
VCATCH DELETING NAMES LLC
p5577
sa(dp5578
g2
I0
sg3
I83
sg4
VCATCH DOMAINS LLC
p5579
sa(dp5580
g2
I9
sg3
I322
sg4
VCCI REG S.A.
p5581
sa(dp5582
g2
I0
sg3
I3
sg4
VCENTER OF UKRAINIAN INTERNET NAMES
p5583
sa(dp5584
g2
I2
sg3
I76
sg4
VCENTURY ORIENTAL INTERNATIONAL CO., LTD.
p5585
sa(dp5586
g2
I0
sg3
I1
sg4
VCHARLEMAGNE 888, LLC
p5587
sa(dp5588
g2
I3
sg3
I607
sg4
VCHENGDU FLY-DIGITAL TECHNOLOGY CO., LTD
p5589
sa(dp5590
g2
I36
sg3
I2407
sg4
VPSI-USA, Inc. dba Domain Robot
p5591
sa(dp5592
g2
I0
sg3
I15
sg4
VPT ARDH GLOBAL INDONESIA
p5593
sa(dp5594
g2
I14
sg3
I671
sg4
VPT Ardh Global Indonesia
p5595
sa(dp5596
g2
I0
sg3
I6
sg4
VPacific Domains LLC
p5597
sa(dp5598
g2
I0
sg3
I15
sg4
VPaimi.com
p5599
sa(dp5600
g2
I12
sg3
I38
sg4
VPaknic Private Limited
p5601
sa(dp5602
g2
I4
sg3
I233
sg4
VPapaki Ltd
p5603
sa(dp5604
g2
I16
sg3
I255
sg4
VParagon Internet Group Ltd
p5605
sa(dp5606
g2
I1
sg3
I3
sg4
VPararescuedomains.com, LLC
p5607
sa(dp5608
g2
I0
sg3
I8
sg4
VPearlNamingService.com LLC
p5609
sa(dp5610
g2
I0
sg3
I6
sg4
VPerseus 888, LLC
p5611
sa(dp5612
g2
I0
sg3
I6
sg4
VPeter the Great, LLC
p5613
sa(dp5614
g2
I0
sg3
I11
sg4
VPheenix 1, LLC
p5615
sa(dp5616
g2
I0
sg3
I11
sg4
VPheenix 10, LLC
p5617
sa(dp5618
g2
I0
sg3
I11
sg4
VPheenix 100, LLC
p5619
sa(dp5620
g2
I0
sg3
I5
sg4
VPheenix 11, LLC
p5621
sa(dp5622
g2
I1
sg3
I11
sg4
VPheenix 12, LLC
p5623
sa(dp5624
g2
I0
sg3
I4
sg4
VPheenix 13, LLC
p5625
sa(dp5626
g2
I0
sg3
I12
sg4
VPheenix 14, LLC
p5627
sa(dp5628
g2
I0
sg3
I14
sg4
VPheenix 15, LLC
p5629
sa(dp5630
g2
I0
sg3
I9
sg4
VPheenix 16, LLC
p5631
sa(dp5632
g2
I0
sg3
I6
sg4
VPheenix 17, LLC
p5633
sa(dp5634
g2
I0
sg3
I8
sg4
VPheenix 18, LLC
p5635
sa(dp5636
g2
I0
sg3
I13
sg4
VPheenix 19, LLC
p5637
sa(dp5638
g2
I0
sg3
I8
sg4
VPheenix 2, LLC
p5639
sa(dp5640
g2
I0
sg3
I8
sg4
VPheenix 20, LLC
p5641
sa(dp5642
g2
I0
sg3
I14
sg4
VPheenix 21, LLC
p5643
sa(dp5644
g2
I0
sg3
I9
sg4
VPheenix 22, LLC
p5645
sa(dp5646
g2
I0
sg3
I6
sg4
VPheenix 23, LLC
p5647
sa(dp5648
g2
I0
sg3
I11
sg4
VPheenix 24, LLC
p5649
sa(dp5650
g2
I1
sg3
I11
sg4
VPheenix 25, LLC
p5651
sa(dp5652
g2
I0
sg3
I11
sg4
VPheenix 26, LLC
p5653
sa(dp5654
g2
I0
sg3
I8
sg4
VPheenix 27, LLC
p5655
sa(dp5656
g2
I0
sg3
I8
sg4
VPheenix 28, LLC
p5657
sa(dp5658
g2
I0
sg3
I11
sg4
VPheenix 29, LLC
p5659
sa(dp5660
g2
I0
sg3
I5
sg4
VPheenix 3, LLC
p5661
sa(dp5662
g2
I0
sg3
I16
sg4
VPheenix 30, LLC
p5663
sa(dp5664
g2
I0
sg3
I11
sg4
VPheenix 31, LLC
p5665
sa(dp5666
g2
I0
sg3
I13
sg4
VPheenix 32, LLC
p5667
sa(dp5668
g2
I0
sg3
I12
sg4
VPheenix 33, LLC
p5669
sa(dp5670
g2
I0
sg3
I12
sg4
VPheenix 34, LLC
p5671
sa(dp5672
g2
I0
sg3
I9
sg4
VPheenix 35, LLC
p5673
sa(dp5674
g2
I0
sg3
I11
sg4
VPheenix 36, LLC
p5675
sa(dp5676
g2
I0
sg3
I11
sg4
VPheenix 37, LLC
p5677
sa(dp5678
g2
I0
sg3
I12
sg4
VPheenix 38, LLC
p5679
sa(dp5680
g2
I0
sg3
I4
sg4
VPheenix 39, LLC
p5681
sa(dp5682
g2
I0
sg3
I10
sg4
VPheenix 4, LLC
p5683
sa(dp5684
g2
I0
sg3
I14
sg4
VPheenix 40, LLC
p5685
sa(dp5686
g2
I0
sg3
I6
sg4
VPheenix 41, LLC
p5687
sa(dp5688
g2
I0
sg3
I7
sg4
VPheenix 42, LLC
p5689
sa(dp5690
g2
I0
sg3
I11
sg4
VPheenix 43, LLC
p5691
sa(dp5692
g2
I0
sg3
I12
sg4
VPheenix 44, LLC
p5693
sa(dp5694
g2
I0
sg3
I8
sg4
VPheenix 45, LLC
p5695
sa(dp5696
g2
I0
sg3
I3
sg4
VPheenix 46, LLC
p5697
sa(dp5698
g2
I0
sg3
I11
sg4
VPheenix 47, LLC
p5699
sa(dp5700
g2
I0
sg3
I14
sg4
VPheenix 48, LLC
p5701
sa(dp5702
g2
I0
sg3
I3
sg4
VPheenix 49, LLC
p5703
sa(dp5704
g2
I0
sg3
I11
sg4
VPheenix 5, LLC
p5705
sa(dp5706
g2
I0
sg3
I12
sg4
VPheenix 50, LLC
p5707
sa(dp5708
g2
I0
sg3
I12
sg4
VPheenix 51, LLC
p5709
sa(dp5710
g2
I0
sg3
I13
sg4
VPheenix 52, LLC
p5711
sa(dp5712
g2
I0
sg3
I11
sg4
VPheenix 53, LLC
p5713
sa(dp5714
g2
I0
sg3
I8
sg4
VPheenix 54, LLC
p5715
sa(dp5716
g2
I0
sg3
I16
sg4
VPheenix 55, LLC
p5717
sa(dp5718
g2
I0
sg3
I16
sg4
VPheenix 56, LLC
p5719
sa(dp5720
g2
I0
sg3
I13
sg4
VPheenix 57, LLC
p5721
sa(dp5722
g2
I0
sg3
I10
sg4
VPheenix 58, LLC
p5723
sa(dp5724
g2
I0
sg3
I18
sg4
VPheenix 59, LLC
p5725
sa(dp5726
g2
I0
sg3
I10
sg4
VPheenix 6, LLC
p5727
sa(dp5728
g2
I0
sg3
I7
sg4
VPheenix 60, LLC
p5729
sa(dp5730
g2
I0
sg3
I9
sg4
VPheenix 61, LLC
p5731
sa(dp5732
g2
I0
sg3
I15
sg4
VPheenix 62, LLC
p5733
sa(dp5734
g2
I0
sg3
I4
sg4
VPheenix 63, LLC
p5735
sa(dp5736
g2
I0
sg3
I12
sg4
VPheenix 64, LLC
p5737
sa(dp5738
g2
I0
sg3
I10
sg4
VPheenix 65, LLC
p5739
sa(dp5740
g2
I0
sg3
I9
sg4
VPheenix 66, LLC
p5741
sa(dp5742
g2
I0
sg3
I10
sg4
VPheenix 67, LLC
p5743
sa(dp5744
g2
I0
sg3
I10
sg4
VPheenix 68, LLC
p5745
sa(dp5746
g2
I0
sg3
I10
sg4
VPheenix 69, LLC
p5747
sa(dp5748
g2
I0
sg3
I9
sg4
VPheenix 7, LLC
p5749
sa(dp5750
g2
I0
sg3
I6
sg4
VPheenix 70, LLC
p5751
sa(dp5752
g2
I0
sg3
I8
sg4
VPheenix 71, LLC
p5753
sa(dp5754
g2
I0
sg3
I14
sg4
VPheenix 72, LLC
p5755
sa(dp5756
g2
I0
sg3
I8
sg4
VPheenix 73, LLC
p5757
sa(dp5758
g2
I0
sg3
I14
sg4
VPheenix 74, LLC
p5759
sa(dp5760
g2
I0
sg3
I10
sg4
VPheenix 75, LLC
p5761
sa(dp5762
g2
I0
sg3
I6
sg4
VPheenix 76, LLC
p5763
sa(dp5764
g2
I0
sg3
I7
sg4
VPheenix 77, LLC
p5765
sa(dp5766
g2
I0
sg3
I6
sg4
VPheenix 78, LLC
p5767
sa(dp5768
g2
I0
sg3
I8
sg4
VPheenix 79, LLC
p5769
sa(dp5770
g2
I0
sg3
I5
sg4
VPheenix 8, LLC
p5771
sa(dp5772
g2
I0
sg3
I12
sg4
VPheenix 80, LLC
p5773
sa(dp5774
g2
I0
sg3
I12
sg4
VPheenix 81, LLC
p5775
sa(dp5776
g2
I0
sg3
I9
sg4
VPheenix 82, LLC
p5777
sa(dp5778
g2
I0
sg3
I14
sg4
VPheenix 83, LLC
p5779
sa(dp5780
g2
I0
sg3
I10
sg4
VPheenix 84, LLC
p5781
sa(dp5782
g2
I0
sg3
I4
sg4
VPheenix 85, LLC
p5783
sa(dp5784
g2
I0
sg3
I6
sg4
VPheenix 86, LLC
p5785
sa(dp5786
g2
I0
sg3
I10
sg4
VPheenix 87, LLC
p5787
sa(dp5788
g2
I0
sg3
I12
sg4
VPheenix 88, LLC
p5789
sa(dp5790
g2
I0
sg3
I14
sg4
VPheenix 89, LLC
p5791
sa(dp5792
g2
I0
sg3
I13
sg4
VPheenix 9, LLC
p5793
sa(dp5794
g2
I0
sg3
I9
sg4
VPheenix 90, LLC
p5795
sa(dp5796
g2
I0
sg3
I8
sg4
VPheenix 91, LLC
p5797
sa(dp5798
g2
I0
sg3
I11
sg4
VPheenix 92, LLC
p5799
sa(dp5800
g2
I0
sg3
I14
sg4
VPheenix 93, LLC
p5801
sa(dp5802
g2
I0
sg3
I5
sg4
VPheenix 94, LLC
p5803
sa(dp5804
g2
I0
sg3
I12
sg4
VPheenix 95, LLC
p5805
sa(dp5806
g2
I0
sg3
I12
sg4
VPheenix 96, LLC
p5807
sa(dp5808
g2
I0
sg3
I5
sg4
VPheenix 97, LLC
p5809
sa(dp5810
g2
I0
sg3
I13
sg4
VPheenix 98, LLC
p5811
sa(dp5812
g2
I0
sg3
I10
sg4
VPheenix 99, LLC
p5813
sa(dp5814
g2
I41
sg3
I5567
sg4
VNICS TELEKOMUNIKASYON TICARET LTD.STI.
p5815
sa(dp5816
g2
I1
sg3
I2
sg4
VNICTRADE INTERNET IDENTIDY PROVIDER AB
p5817
sa(dp5818
g2
I0
sg3
I9
sg4
VNIUEDOMAINS, LLC
p5819
sa(dp5820
g2
I0
sg3
I7
sg4
VNOM INFINITUM, INCORPORATED
p5821
sa(dp5822
g2
I2
sg3
I123
sg4
VNOM-IQ Ltd dba Com Laude
p5823
sa(dp5824
g2
I5
sg3
I412
sg4
VPheenix. Inc.
p5825
sa(dp5826
g2
I0
sg3
I2
sg4
VPink Elephant Domains, LLC
p5827
sa(dp5828
g2
I0
sg3
I2
sg4
VPipeline Domains, LLC
p5829
sa(dp5830
g2
I13
sg3
I184
sg4
VPlanetDomain Pty Ltd
p5831
sa(dp5832
g2
I1
sg3
I78
sg4
VPlanetHoster
p5833
sa(dp5834
g2
I0
sg3
I3
sg4
VPlatinum Registrar, Inc.
p5835
sa(dp5836
g2
I0
sg3
I9
sg4
VPlato 888, LLC
p5837
sa(dp5838
g2
I0
sg3
I7
sg4
VPocketDomain.com, Inc.
p5839
sa(dp5840
g2
I1
sg3
I23
sg4
VPorkbun LLC
p5841
sa(dp5842
g2
I0
sg3
I8
sg4
VPoseidon 888, LLC
p5843
sa(dp5844
g2
I0
sg3
I1
sg4
VPostalDomains, Incorporated
p5845
sa(dp5846
g2
I0
sg3
I1
sg4
VPower Carrier, Inc
p5847
sa(dp5848
g2
I0
sg3
I8
sg4
VPower Namers , Inc
p5849
sa(dp5850
g2
I0
sg3
I41
sg4
VPremierename.Ca Inc.
p5851
sa(dp5852
g2
I19
sg3
I759
sg4
VNOMINALIA INTERNET S.L.
p5853
sa(dp5854
g2
I4
sg3
I87
sg4
VNORDNET
p5855
sa(dp5856
g2
I0
sg3
I66
sg4
VNORDREG AB
p5857
sa(dp5858
g2
I0
sg3
I96
sg4
VNORTHNAMES INC.
p5859
sa(dp5860
g2
I0
sg3
I92
sg4
VNOTEWORTHYDOMAINS, LLC
p5861
sa(dp5862
g2
I1
sg3
I106
sg4
VNOTICEDDOMAINS LLC
p5863
sa(dp5864
g2
I5
sg3
I825
sg4
VPresidentialDomains LLC
p5865
sa(dp5866
g2
I1
sg3
I128
sg4
VNOTSOFAMOUSNAMES.COM LLC
p5867
sa(dp5868
g2
I1
sg3
I33
sg4
VNUXIT
p5869
sa(dp5870
g2
I0
sg3
I7
sg4
VName Connection Area LLC
p5871
sa(dp5872
g2
I0
sg3
I4
sg4
VName Connection Spot LLC
p5873
sa(dp5874
g2
I0
sg3
I4
sg4
VName Icon LLC
p5875
sa(dp5876
g2
I0
sg3
I2
sg4
VName Nelly Corporation
p5877
sa(dp5878
g2
I0
sg3
I2
sg4
VName Perfections, Inc
p5879
sa(dp5880
g2
I0
sg3
I6
sg4
VName Share Inc
p5881
sa(dp5882
g2
I0
sg3
I5
sg4
VName To Fame, Inc
p5883
sa(dp5884
g2
I0
sg3
I11
sg4
VName Trance LLC
p5885
sa(dp5886
g2
I7
sg3
I6734
sg4
VWEST263 INTERNATIONAL LIMITED
p5887
sa(dp5888
g2
I2
sg3
I101
sg4
VWHATISYOURDOMAIN LLC
p5889
sa(dp5890
g2
I0
sg3
I85
sg4
VWHITE ALLIGATOR DOMAINS, LLC
p5891
sa(dp5892
g2
I0
sg3
I93
sg4
VWHITE RHINO DOMAINS, LLC
p5893
sa(dp5894
g2
I0
sg3
I13
sg4
VWHITEGLOVE DOMAINS, INC.
p5895
sa(dp5896
g2
I0
sg3
I5
sg4
VWHOISNETWORKS CO., LTD.
p5897
sa(dp5898
g2
I0
sg3
I1
sg4
VWHT CO., LTD
p5899
sa(dp5900
g2
I0
sg3
I11
sg4
VWHT Co., Ltd
p5901
sa(dp5902
g2
I0
sg3
I74
sg4
VWIDE LEFT DOMAINS LLC
p5903
sa(dp5904
g2
I0
sg3
I85
sg4
VWIDE RIGHT DOMAINS LLC
p5905
sa(dp5906
g2
I8
sg3
I1100
sg4
VProNamed LLC
p5907
sa(dp5908
g2
I0
sg3
I81
sg4
VWILD BUNCH DOMAINS, LLC
p5909
sa(dp5910
g2
I2
sg3
I1513
sg4
VProfileBuilder.com LLC
p5911
sa(dp5912
g2
I1
sg3
I231
sg4
VPromo People Inc.
p5913
sa(dp5914
g2
I0
sg3
I37
sg4
VProtocol Internet Technology Limited t/a Hosting Ireland
p5915
sa(dp5916
g2
I1
sg3
I6
sg4
VProtondomains.com LLC
p5917
sa(dp5918
g2
I0
sg3
I4
sg4
VPurenic Japan Inc.
p5919
sa(dp5920
g2
I0
sg3
I6
sg4
VPurityNames.com
p5921
sa(dp5922
g2
I0
sg3
I148
sg4
VRAINYDAYDOMAINS.COM LLC
p5923
sa(dp5924
g2
I0
sg3
I89
sg4
VRALLY CRY DOMAINS, LLC
p5925
sa(dp5926
g2
I0
sg3
I1
sg4
VRANK USA, INC.
p5927
sa(dp5928
g2
I0
sg3
I88
sg4
VRARE GEM DOMAINS LLC
p5929
sa(dp5930
g2
I67
sg3
I1378
sg4
VREALTIME REGISTER B.V.
p5931
sa(dp5932
g2
I19
sg3
I9768
sg4
VCHENGDU WEST DIMENSION DIGITAL TECHNOLOGY CO., LTD.
p5933
sa(dp5934
g2
I0
sg3
I48
sg4
VCHINA SPRINGBOARD INC
p5935
sa(dp5936
g2
I0
sg3
I25
sg4
VCHINANET TECHNOLOGY (SUZHOU) CO., LTD
p5937
sa(dp5938
g2
I0
sg3
I6
sg4
VCHINESEDOMAINS, LLC
p5939
sa(dp5940
g2
I0
sg3
I64
sg4
VCHIPSHOT DOMAINS LLC
p5941
sa(dp5942
g2
I1
sg3
I115
sg4
VCHOCOLATECHIPDOMAINS, LLC
p5943
sa(dp5944
g2
I0
sg3
I10
sg4
VCHOCOLATECOVEREDDOMAINS, LLC
p5945
sa(dp5946
g2
I0
sg3
I88
sg4
VCIRCLE OF DOMAINS LLC
p5947
sa(dp5948
g2
I3
sg3
I221
sg4
VCJSC REGISTRAR R01
p5949
sa(dp5950
g2
I0
sg3
I4
sg4
VCLAIMEDDOMAINS, LLC
p5951
sa(dp5952
g2
I0
sg3
I3
sg4
VCLOUD BAMBOO, LLC
p5953
sa(dp5954
g2
I0
sg3
I3
sg4
VCLOUD BEAUTY, LLC
p5955
sa(dp5956
g2
I0
sg3
I2
sg4
VCLOUD CITY, LLC
p5957
sa(dp5958
g2
I2
sg3
I110
sg4
VCLOUDBREAKDOMAINS, LLC
p5959
sa(dp5960
g2
I0
sg3
I127
sg4
VCLOUDNINEDOMAIN, LLC
p5961
sa(dp5962
g2
I0
sg3
I6
sg4
VCOCOSISLANDSDOMAINS, LLC
p5963
sa(dp5964
g2
I0
sg3
I4
sg4
VCOLUMBIADOMAINS, LLC
p5965
sa(dp5966
g2
I2
sg3
I162
sg4
VCOLUMBIANAMES.COM LLC
p5967
sa(dp5968
g2
I1
sg3
I116
sg4
VCOMFYDOMAINS LLC
p5969
sa(dp5970
g2
I0
sg3
I4
sg4
VCOMMERCE ISLAND, INC.
p5971
sa(dp5972
g2
I0
sg3
I103
sg4
VCOMPUGLOBALHYPERMEGA.COM LLC
p5973
sa(dp5974
g2
I0
sg3
I1
sg4
VCONFUCIUS, LLC
p5975
sa(dp5976
g2
I1
sg3
I112
sg4
VCOOL BREEZE DOMAINS, LLC
p5977
sa(dp5978
g2
I0
sg3
I129
sg4
VCOOL RIVER NAMES, LLC
p5979
sa(dp5980
g2
I0
sg3
I95
sg4
VCOPPER DOMAIN NAMES LLC
p5981
sa(dp5982
g2
I0
sg3
I89
sg4
VCORAL REEF DOMAINS LLC
p5983
sa(dp5984
g2
I0
sg3
I1
sg4
VCORE-101 (Kamp Netzwerkdienste GmbH)
p5985
sa(dp5986
g2
I0
sg3
I9
sg4
VCORE-104 (Domaine.fr (French-Connexion))
p5987
sa(dp5988
g2
I0
sg3
I17
sg4
VCORE-109 (Webland AG)
p5989
sa(dp5990
g2
I3
sg3
I86
sg4
VCORE-111 (Nameshield)
p5991
sa(dp5992
g2
I1
sg3
I8
sg4
VCORE-113 (Media4web, s.r.o.)
p5993
sa(dp5994
g2
I0
sg3
I4
sg4
VCORE-115 (Server Service GmbH)
p5995
sa(dp5996
g2
I1
sg3
I39
sg4
VCORE-118 (REGica.NET)
p5997
sa(dp5998
g2
I0
sg3
I1
sg4
VCORE-119 (Hostnet Medien GmbH)
p5999
sa(dp6000
g2
I0
sg3
I4
sg4
VCORE-122 (Speedbone Internet Connectivity GmbH)
p6001
sa(dp6002
g2
I0
sg3
I6
sg4
VCORE-123 (ingenit GmbH & Co. KG)
p6003
sa(dp6004
g2
I0
sg3
I1
sg4
VCORE-126 (DISTMA)
p6005
sa(dp6006
g2
I0
sg3
I3
sg4
VCORE-132 (DFN Verein)
p6007
sa(dp6008
g2
I0
sg3
I2
sg4
VCORE-133 (Black Point Arts Internet Solutions GmbH)
p6009
sa(dp6010
g2
I0
sg3
I3
sg4
VCORE-136 (Easygiga.com)
p6011
sa(dp6012
g2
I0
sg3
I1
sg4
VCORE-137 (Bradler & Krantz GmbH & Co. KG)
p6013
sa(dp6014
g2
I0
sg3
I5
sg4
VCORE-138 (Privianet)
p6015
sa(dp6016
g2
I0
sg3
I1
sg4
VCORE-139 (teuto.net Netzdienste GmbH)
p6017
sa(dp6018
g2
I1
sg3
I7
sg4
VCORE-142 (Norplex Communications)
p6019
sa(dp6020
g2
I0
sg3
I6
sg4
VCORE-155 (LEMARIT GmbH)
p6021
sa(dp6022
g2
I0
sg3
I1
sg4
VCORE-157 (Keyweb AG)
p6023
sa(dp6024
g2
I0
sg3
I10
sg4
VCORE-164 (global IP action AG)
p6025
sa(dp6026
g2
I0
sg3
I7
sg4
VCORE-165 (ISPpro Internet)
p6027
sa(dp6028
g2
I1
sg3
I0
sg4
VCORE-28 (Net Wizards, Inc.)
p6029
sa(dp6030
g2
I0
sg3
I5
sg4
VCORE-35 (VTX Services SA)
p6031
sa(dp6032
g2
I0
sg3
I16
sg4
VCORE-39 (Knipp Medien und Kommunikation GmbH)
p6033
sa(dp6034
g2
I0
sg3
I2
sg4
VCORE-41 (Telia AB Network Services)
p6035
sa(dp6036
g2
I0
sg3
I1
sg4
VCORE-50 (Mediafusion Inc.)
p6037
sa(dp6038
g2
I1
sg3
I1
sg4
VCORE-51 (Oznic GmbH)
p6039
sa(dp6040
g2
I0
sg3
I12
sg4
VCORE-95 (OLM LLC)
p6041
sa(dp6042
g2
I0
sg3
I10
sg4
VCORE-99 (3W-Media GmbH)
p6043
sa(dp6044
g2
I0
sg3
I2
sg4
VCOREHUB, S.R.L.
p6045
sa(dp6046
g2
I0
sg3
I35
sg4
VCOSMOTOWN, INC.
p6047
sa(dp6048
g2
I0
sg3
I68
sg4
VCPS-DATENSYSTEME GMBH
p6049
sa(dp6050
g2
I2
sg3
I8
sg4
VCPS-Datensysteme GmbH
p6051
sa(dp6052
g2
I12
sg3
I6126
sg4
VREALTIME REGISTER BV
p6053
sa(dp6054
g2
I10
sg3
I636
sg4
VREBEL.CA CORP.
p6055
sa(dp6056
g2
I70
sg3
I4500
sg4
VCRAZY DOMAINS FZ-LLC
p6057
sa(dp6058
g2
I0
sg3
I6
sg4
VCRONON AG
p6059
sa(dp6060
g2
I0
sg3
I44
sg4
VCROSSCERT, INC. DBA COSMOTOWN, INC.
p6061
sa(dp6062
g2
I49
sg3
I2219
sg4
VREBEL.COM CORP.
p6063
sa(dp6064
g2
I0
sg3
I107
sg4
VRECLAIMDOMAINS LLC
p6065
sa(dp6066
g2
I0
sg3
I26
sg4
VREG2C.COM, INC.
p6067
sa(dp6068
g2
I0
sg3
I12
sg4
VREGIONAL NETWORK INFORMATION CENTER, JSC DBA RU-CENTER
p6069
sa(dp6070
g2
I0
sg3
I11
sg4
VREGISTER NAMES, LLC
p6071
sa(dp6072
g2
I272
sg3
I13585
sg4
VName.com, Inc.
p6073
sa(dp6074
g2
I0
sg3
I117
sg4
VREGISTER.CA INC.
p6075
sa(dp6076
g2
I0
sg3
I54
sg4
VName.net, Inc.
p6077
sa(dp6078
g2
I0
sg3
I1
sg4
VName104, Inc.
p6079
sa(dp6080
g2
I0
sg3
I3
sg4
VName105, Inc.
p6081
sa(dp6082
g2
I0
sg3
I3
sg4
VName107, Inc.
p6083
sa(dp6084
g2
I0
sg3
I11
sg4
VName108, Inc.
p6085
sa(dp6086
g2
I0
sg3
I1
sg4
VName109, Inc.
p6087
sa(dp6088
g2
I0
sg3
I5
sg4
VName110, Inc.
p6089
sa(dp6090
g2
I0
sg3
I1
sg4
VName111, Inc.
p6091
sa(dp6092
g2
I0
sg3
I1
sg4
VName112, Inc.
p6093
sa(dp6094
g2
I0
sg3
I6
sg4
VName113, Inc.
p6095
sa(dp6096
g2
I0
sg3
I3
sg4
VName114, Inc.
p6097
sa(dp6098
g2
I0
sg3
I6
sg4
VName115, Inc.
p6099
sa(dp6100
g2
I0
sg3
I8
sg4
VName116, Inc.
p6101
sa(dp6102
g2
I0
sg3
I5
sg4
VName117, Inc.
p6103
sa(dp6104
g2
I0
sg3
I1
sg4
VName118, Inc.
p6105
sa(dp6106
g2
I0
sg3
I1
sg4
VName119, Inc.
p6107
sa(dp6108
g2
I0
sg3
I3
sg4
VName120, Inc.
p6109
sa(dp6110
g2
I29
sg3
I2196
sg4
VCSC CORPORATE DOMAINS, INC.
p6111
sa(dp6112
g2
I0
sg3
I9
sg4
VCSL COMPUTER SERVICE LANGENBACH GMBH D/B/A JOKER.COM
p6113
sa(dp6114
g2
I2
sg3
I488
sg4
VNameBake LLC
p6115
sa(dp6116
g2
I3
sg3
I1081
sg4
VNameBrew LLC
p6117
sa(dp6118
g2
I31
sg3
I1455
sg4
VCSL Computer Service Langenbach GmbH d/b/a joker.com
p6119
sa(dp6120
g2
I3
sg3
I68
sg4
VCSMJBS Enterprises
p6121
sa(dp6122
g2
I0
sg3
I77
sg4
VCURVEBALL DOMAINS LLC
p6123
sa(dp6124
g2
I3
sg3
I427
sg4
VNameChild LLC
p6125
sa(dp6126
g2
I4
sg3
I922
sg4
VNameForward LLC
p6127
sa(dp6128
g2
I7
sg3
I938
sg4
VNameJolt.com LLC
p6129
sa(dp6130
g2
I49
sg3
I3095
sg4
VCV. JOGJACAMP
p6131
sa(dp6132
g2
I7
sg3
I87
sg4
VCV. Jogjacamp
p6133
sa(dp6134
g2
I0
sg3
I38
sg4
VCV. RUMAHWEB INDONESIA
p6135
sa(dp6136
g2
I5
sg3
I1772
sg4
VNameKing.com, Inc.
p6137
sa(dp6138
g2
I0
sg3
I2
sg4
VNamePal.com #8001
p6139
sa(dp6140
g2
I0
sg3
I2
sg4
VNamePal.com #8002
p6141
sa(dp6142
g2
I0
sg3
I17
sg4
VNamePal.com #8003
p6143
sa(dp6144
g2
I0
sg3
I3
sg4
VNamePal.com #8004 Inc.
p6145
sa(dp6146
g2
I1
sg3
I8
sg4
VNamePal.com #8005
p6147
sa(dp6148
g2
I0
sg3
I4
sg4
VNamePal.com #8006
p6149
sa(dp6150
g2
I0
sg3
I2
sg4
VNamePal.com #8006 Inc.
p6151
sa(dp6152
g2
I0
sg3
I2
sg4
VNamePal.com #8007 Inc.
p6153
sa(dp6154
g2
I0
sg3
I1
sg4
VNamePal.com #8008
p6155
sa(dp6156
g2
I0
sg3
I5
sg4
VNamePal.com #8009
p6157
sa(dp6158
g2
I0
sg3
I3
sg4
VNamePal.com #8009 Inc.
p6159
sa(dp6160
g2
I0
sg3
I3
sg4
VNamePal.com #8010
p6161
sa(dp6162
g2
I0
sg3
I2
sg4
VNamePal.com #8010 Inc.
p6163
sa(dp6164
g2
I0
sg3
I1
sg4
VNamePal.com #8011
p6165
sa(dp6166
g2
I0
sg3
I5
sg4
VNamePal.com #8011 Inc.
p6167
sa(dp6168
g2
I0
sg3
I2
sg4
VNamePal.com #8012
p6169
sa(dp6170
g2
I0
sg3
I3
sg4
VNamePal.com #8013
p6171
sa(dp6172
g2
I0
sg3
I1
sg4
VNamePal.com #8014
p6173
sa(dp6174
g2
I0
sg3
I2
sg4
VNamePal.com #8014 Inc.
p6175
sa(dp6176
g2
I0
sg3
I3
sg4
VNamePal.com #8015
p6177
sa(dp6178
g2
I0
sg3
I3
sg4
VNamePal.com #8015 Inc.
p6179
sa(dp6180
g2
I0
sg3
I1
sg4
VNamePal.com #8016
p6181
sa(dp6182
g2
I0
sg3
I1
sg4
VNamePal.com #8016 Inc.
p6183
sa(dp6184
g2
I0
sg3
I1
sg4
VNamePal.com #8017
p6185
sa(dp6186
g2
I0
sg3
I1
sg4
VNamePal.com #8017 Inc.
p6187
sa(dp6188
g2
I0
sg3
I2
sg4
VNamePal.com #8018
p6189
sa(dp6190
g2
I0
sg3
I3
sg4
VNamePal.com #8018 Inc.
p6191
sa(dp6192
g2
I0
sg3
I2
sg4
VNamePal.com #8019
p6193
sa(dp6194
g2
I0
sg3
I1
sg4
VNamePal.com #8019 Inc.
p6195
sa(dp6196
g2
I0
sg3
I30
sg4
VNamePal.com #8020
p6197
sa(dp6198
g2
I0
sg3
I1
sg4
VNamePal.com #8021
p6199
sa(dp6200
g2
I0
sg3
I5
sg4
VNamePal.com #8021 Inc.
p6201
sa(dp6202
g2
I0
sg3
I27
sg4
VNamePal.com #8022
p6203
sa(dp6204
g2
I0
sg3
I4
sg4
VNamePal.com #8023
p6205
sa(dp6206
g2
I0
sg3
I2
sg4
VNamePal.com #8023 Inc.
p6207
sa(dp6208
g2
I1
sg3
I4
sg4
VNamePal.com #8024
p6209
sa(dp6210
g2
I0
sg3
I1
sg4
VNamePal.com #8024 Inc.
p6211
sa(dp6212
g2
I0
sg3
I1
sg4
VNamePal.com #8025
p6213
sa(dp6214
g2
I0
sg3
I2
sg4
VNamePal.com #8026
p6215
sa(dp6216
g2
I0
sg3
I1
sg4
VNamePal.com #8026 Inc.
p6217
sa(dp6218
g2
I0
sg3
I1
sg4
VNamePal.com #8027
p6219
sa(dp6220
g2
I12
sg3
I1678
sg4
VCV. Rumahweb Indonesia
p6221
sa(dp6222
g2
I0
sg3
I400
sg4
VCYANDOMAINS, INC.
p6223
sa(dp6224
g2
I1
sg3
I16
sg4
VCatalog.com, Inc.
p6225
sa(dp6226
g2
I0
sg3
I3
sg4
VCatch Deleting Names LLC
p6227
sa(dp6228
g2
I0
sg3
I1
sg4
VCatch Domains LLC
p6229
sa(dp6230
g2
I5
sg3
I183
sg4
VCenter of Ukrainian Internet Names (UKRNAMES)
p6231
sa(dp6232
g2
I0
sg3
I19
sg4
VCharlemagne 888, LLC
p6233
sa(dp6234
g2
I0
sg3
I8
sg4
VCharles Darwin, LLC
p6235
sa(dp6236
g2
I19
sg3
I984
sg4
VChengdu west dimension digital technology Co., LTD
p6237
sa(dp6238
g2
I0
sg3
I7
sg4
VChipshot Domains LLC
p6239
sa(dp6240
g2
I0
sg3
I3
sg4
VChocolateChipDomains, LLC
p6241
sa(dp6242
g2
I0
sg3
I6
sg4
VCircle of Domains LLC
p6243
sa(dp6244
g2
I1
sg3
I12
sg4
VClick Registrar, Inc. d/b/a publicdomainregistry.com
p6245
sa(dp6246
g2
I0
sg3
I84
sg4
VCloud Bamboo,LLC
p6247
sa(dp6248
g2
I1
sg3
I87
sg4
VCloud Beauty,LLC
p6249
sa(dp6250
g2
I1
sg3
I44
sg4
VCloud Boom,LLC
p6251
sa(dp6252
g2
I0
sg3
I135
sg4
VCloud City,LLC
p6253
sa(dp6254
g2
I1888
sg3
I127224
sg4
VENOM, INC.
p6255
sa(dp6256
g2
I0
sg3
I7
sg4
VENOM1 INC.
p6257
sa(dp6258
g2
I1
sg3
I52
sg4
VCloud Diamond,LLC
p6259
sa(dp6260
g2
I1
sg3
I113
sg4
VCloud Orchid,LLC
p6261
sa(dp6262
g2
I0
sg3
I41
sg4
VCloud Plum,LLC
p6263
sa(dp6264
g2
I0
sg3
I44
sg4
VCloud Seed,LLC
p6265
sa(dp6266
g2
I0
sg3
I8
sg4
VCloud Shark,LLC
p6267
sa(dp6268
g2
I0
sg3
I10
sg4
VCloud Sun,LLC
p6269
sa(dp6270
g2
I0
sg3
I18
sg4
VCloud Super,LLC
p6271
sa(dp6272
g2
I1
sg3
I66
sg4
VCloud System,LLC
p6273
sa(dp6274
g2
I0
sg3
I1
sg4
VCloudBreakDomains, LLC
p6275
sa(dp6276
g2
I0
sg3
I1
sg4
VCloudFlare, Inc.
p6277
sa(dp6278
g2
I0
sg3
I5
sg4
VCloudNineDomain, LLC
p6279
sa(dp6280
g2
I0
sg3
I15
sg4
VColumbianames.com LLC
p6281
sa(dp6282
g2
I2
sg3
I385
sg4
VComfyDomains LLC
p6283
sa(dp6284
g2
I0
sg3
I128
sg4
VCommerce Island, Inc
p6285
sa(dp6286
g2
I1
sg3
I876
sg4
VCommunigal Communication Ltd
p6287
sa(dp6288
g2
I0
sg3
I16
sg4
VCompuglobalhypermega.com LLC
p6289
sa(dp6290
g2
I1
sg3
I14
sg4
VConfucius, LLC
p6291
sa(dp6292
g2
I0
sg3
I10
sg4
VConstantine the Great, LLC
p6293
sa(dp6294
g2
I0
sg3
I4
sg4
VCool Breeze Domains, LLC
p6295
sa(dp6296
g2
I0
sg3
I5
sg4
VCool Ocean, Inc
p6297
sa(dp6298
g2
I0
sg3
I3
sg4
VCool River Names, LLC
p6299
sa(dp6300
g2
I0
sg3
I5
sg4
VCopper Domain Names LLC
p6301
sa(dp6302
g2
I0
sg3
I6
sg4
VCoral Reef Domains LLC
p6303
sa(dp6304
g2
I0
sg3
I8
sg4
VCrisp Names, Inc.
p6305
sa(dp6306
g2
I11
sg3
I2320
sg4
VCronon AG
p6307
sa(dp6308
g2
I0
sg3
I2
sg4
VCrystal Coal, Inc
p6309
sa(dp6310
g2
I0
sg3
I1
sg4
VCurious Net, Inc
p6311
sa(dp6312
g2
I0
sg3
I5
sg4
VCurveball Domains LLC
p6313
sa(dp6314
g2
I0
sg3
I6
sg4
VCyanDomains, Inc.
p6315
sa(dp6316
g2
I0
sg3
I20
sg4
VCyrus the Great, LLC
p6317
sa(dp6318
g2
I0
sg3
I9
sg4
VDAGNABIT, INCORPORATED
p6319
sa(dp6320
g2
I0
sg3
I70
sg4
VDANCUE INC.
p6321
sa(dp6322
g2
I21
sg3
I61
sg4
VDATTATEC.COM SRL
p6323
sa(dp6324
g2
I0
sg3
I4
sg4
VDECENTDOMAINS, LLC
p6325
sa(dp6326
g2
I0
sg3
I126
sg4
VDEEP DIVE DOMAINS, LLC
p6327
sa(dp6328
g2
I0
sg3
I84
sg4
VDEEP SEA DOMAINS LLC
p6329
sa(dp6330
g2
I0
sg3
I99
sg4
VDEEP WATER DOMAINS LLC
p6331
sa(dp6332
g2
I0
sg3
I99
sg4
VDELETING NAME ZONE LLC
p6333
sa(dp6334
g2
I0
sg3
I3
sg4
VDEPARTMENT-OF-DOMAINS, LLC
p6335
sa(dp6336
g2
I0
sg3
I4
sg4
VDESCHUTESDOMAINS.COM LLC
p6337
sa(dp6338
g2
I0
sg3
I125
sg4
VDESERT SAND DOMAINS, LLC
p6339
sa(dp6340
g2
I519
sg3
I28432
sg4
VWILD WEST DOMAINS, LLC
p6341
sa(dp6342
g2
I0
sg3
I84
sg4
VWILDZEBRADOMAINS, LLC
p6343
sa(dp6344
g2
I0
sg3
I107
sg4
VWILLAMETTENAMES.COM LLC
p6345
sa(dp6346
g2
I1
sg3
I95
sg4
VWIN NAMES LLC
p6347
sa(dp6348
g2
I0
sg3
I171
sg4
VWINGU NETWORKS, S.A DE C.V.
p6349
sa(dp6350
g2
I0
sg3
I1
sg4
VWIXI INCORPORATED
p6351
sa(dp6352
g2
I0
sg3
I290
sg4
VWORTHYDOMAINS LLC
p6353
sa(dp6354
g2
I0
sg3
I1
sg4
VWeb Business, LLC
p6355
sa(dp6356
g2
I1
sg3
I109
sg4
VWeb Drive Ltd
p6357
sa(dp6358
g2
I0
sg3
I32
sg4
VWeb Site Source, Inc.
p6359
sa(dp6360
g2
I4
sg3
I140
sg4
VWeb Werks India Pvt. Ltd. D/B/A ZenRegistry.com
p6361
sa(dp6362
g2
I13
sg3
I272
sg4
VWeb4Africa Inc.
p6363
sa(dp6364
g2
I3
sg3
I52
sg4
VWebair Internet Development
p6365
sa(dp6366
g2
I29
sg3
I744
sg4
VWest263 International Limited
p6367
sa(dp6368
g2
I4
sg3
I382
sg4
VWhatIsYourDomain LLC
p6369
sa(dp6370
g2
I0
sg3
I3
sg4
VWhite Alligator Domains, LLC
p6371
sa(dp6372
g2
I0
sg3
I1
sg4
VWhite Rhino Domains, LLC
p6373
sa(dp6374
g2
I0
sg3
I1
sg4
VWhiteglove Domains, Incorporated
p6375
sa(dp6376
g2
I3
sg3
I785
sg4
VWhois Networks Co., Ltd.
p6377
sa(dp6378
g2
I0
sg3
I6
sg4
VWide Left Domains LLC
p6379
sa(dp6380
g2
I1
sg3
I6
sg4
VWide Right Domains LLC
p6381
sa(dp6382
g2
I0
sg3
I11
sg4
VWild Bill Hickok, LLC
p6383
sa(dp6384
g2
I0
sg3
I1
sg4
VWild Bunch Domains, LLC
p6385
sa(dp6386
g2
I0
sg3
I5
sg4
VWild West Domains, LLC
p6387
sa(dp6388
g2
I0
sg3
I4
sg4
VWildzebradomains, LLC
p6389
sa(dp6390
g2
I0
sg3
I7
sg4
VWillametteNames.com LLC
p6391
sa(dp6392
g2
I0
sg3
I6
sg4
VWilliam Wallace, LLC
p6393
sa(dp6394
g2
I0
sg3
I16
sg4
VWilliam the Conqueror, LLC
p6395
sa(dp6396
g2
I0
sg3
I6
sg4
VWin Names LLC
p6397
sa(dp6398
g2
I194
sg3
I18920
sg4
VREGISTER.COM, INC.
p6399
sa(dp6400
g2
I13
sg3
I201
sg4
VWingu Networks, S.A. de C.V.
p6401
sa(dp6402
g2
I0
sg3
I14
sg4
VWinston Churchill, LLC
p6403
sa(dp6404
g2
I0
sg3
I4
sg4
VWixi Incorporated
p6405
sa(dp6406
g2
I0
sg3
I3
sg4
VWorld Biz Domains, LLC
p6407
sa(dp6408
g2
I3
sg3
I173
sg4
VWorld4You Internet Services GmbH
p6409
sa(dp6410
g2
I11
sg3
I1054
sg4
VWorthyDomains LLC
p6411
sa(dp6412
g2
I3
sg3
I894
sg4
VXIAMEN CHINASOURCE INTERNET SERVICE CO., LTD.
p6413
sa(dp6414
g2
I0
sg3
I295
sg4
VXIAMEN DIANMEI NETWORK TECHNOLOGY CO., LTD.
p6415
sa(dp6416
g2
I2
sg3
I613
sg4
VXIAMEN DOMAINS, INC.
p6417
sa(dp6418
g2
I1
sg3
I197
sg4
VXIAMEN NAWANG TECHNOLOGY CO., LTD
p6419
sa(dp6420
g2
I0
sg3
I209
sg4
VXIN NET TECHNOLOGY CORPORATION
p6421
sa(dp6422
g2
I76
sg3
I5241
sg4
VREGISTER.IT S.P.A.
p6423
sa(dp6424
g2
I0
sg3
I9
sg4
VREGISTER.IT SPA
p6425
sa(dp6426
g2
I0
sg3
I6
sg4
VREGISTER4LESS, INC.
p6427
sa(dp6428
g2
I0
sg3
I5
sg4
VREGISTRAR MANAGER INC.
p6429
sa(dp6430
g2
I0
sg3
I14
sg4
VREGISTRAR OF DOMAIN NAMES REG.RU LLC
p6431
sa(dp6432
g2
I0
sg3
I113
sg4
VREGISTRARDIRECT LLC
p6433
sa(dp6434
g2
I0
sg3
I14
sg4
VREGISTRYGATE GMBH
p6435
sa(dp6436
g2
I9
sg3
I278
sg4
VREGTIME LTD.
p6437
sa(dp6438
g2
I0
sg3
I9
sg4
VRESELLER SERVICES INC, DBA RESELLSERV.COM
p6439
sa(dp6440
g2
I0
sg3
I3
sg4
VRETAIL DOMAINS INC.
p6441
sa(dp6442
g2
I1
sg3
I94
sg4
VRIPCORD DOMAINS, LLC
p6443
sa(dp6444
g2
I0
sg3
I105
sg4
VRIPCURL DOMAINS, LLC
p6445
sa(dp6446
g2
I0
sg3
I82
sg4
VRIPTIDE DOMAINS, LLC
p6447
sa(dp6448
g2
I0
sg3
I5
sg4
VRadu Damian, LLC
p6449
sa(dp6450
g2
I0
sg3
I12
sg4
VRainydaydomains.com LLC
p6451
sa(dp6452
g2
I0
sg3
I4
sg4
VRally Cry Domains, LLC
p6453
sa(dp6454
g2
I0
sg3
I2
sg4
VRamses II, LLC
p6455
sa(dp6456
g2
I0
sg3
I132
sg4
VRank USA, Inc.
p6457
sa(dp6458
g2
I0
sg3
I7
sg4
VRare Gem Domains LLC
p6459
sa(dp6460
g2
I0
sg3
I44
sg4
VRebel.ca
p6461
sa(dp6462
g2
I4
sg3
I191
sg4
VRebel.com
p6463
sa(dp6464
g2
I5
sg3
I385
sg4
VReclaimDomains
p6465
sa(dp6466
g2
I12
sg3
I1277
sg4
VReg2C.com Inc.
p6467
sa(dp6468
g2
I30
sg3
I1665
sg4
VRegional Network Information Center, JSC dba RU-CENTER
p6469
sa(dp6470
g2
I2
sg3
I87
sg4
VRegister NV dba Register.eu
p6471
sa(dp6472
g2
I2
sg3
I211
sg4
VRegister.ca Inc
p6473
sa(dp6474
g2
I0
sg3
I2
sg4
VRegister.com
p6475
sa(dp6476
g2
I31
sg3
I1561
sg4
VRegister.com, Inc.
p6477
sa(dp6478
g2
I0
sg3
I266
sg4
VRegister4Less, Inc.
p6479
sa(dp6480
g2
I33
sg3
I2008
sg4
VRegistrar of domain names REG.RU LLC
p6481
sa(dp6482
g2
I2
sg3
I401
sg4
VRegistrarDirect LLC
p6483
sa(dp6484
g2
I1
sg3
I25
sg4
VRegistration Technologies, Inc.
p6485
sa(dp6486
g2
I7
sg3
I821
sg4
VRegistryGate GmbH
p6487
sa(dp6488
g2
I0
sg3
I1
sg4
VRetail Domains, Inc.
p6489
sa(dp6490
g2
I6
sg3
I14
sg4
VRethem Hosting, LLC  Specializing in DDoS mitigation and attack resilience
p6491
sa(dp6492
g2
I0
sg3
I10
sg4
VRichard the Lionheart 888, LLC
p6493
sa(dp6494
g2
I1
sg3
I2
sg4
VRipcord Domains, LLC
p6495
sa(dp6496
g2
I1
sg3
I4
sg4
VRipcurl Domains, LLC
p6497
sa(dp6498
g2
I2
sg3
I1
sg4
VRiptide Domains, LLC
p6499
sa(dp6500
g2
I0
sg3
I15
sg4
VRobert E. Lee 888, LLC
p6501
sa(dp6502
g2
I8
sg3
I39
sg4
VSAFEBRANDS SAS
p6503
sa(dp6504
g2
I0
sg3
I13
sg4
VSAMJUNG DATA SERVICE CO., LTD.
p6505
sa(dp6506
g2
I0
sg3
I118
sg4
VSAMMAMISHDOMAINS.COM LLC
p6507
sa(dp6508
g2
I0
sg3
I7
sg4
VSAMOANDOMAINS, LLC
p6509
sa(dp6510
g2
I2
sg3
I121
sg4
VSANTIAMDOMAINS.COM LLC
p6511
sa(dp6512
g2
I0
sg3
I104
sg4
VSAVETHENAME.COM LLC
p6513
sa(dp6514
g2
I0
sg3
I4
sg4
VSBSNAMES, INCORPORATED
p6515
sa(dp6516
g2
I0
sg3
I1
sg4
VSBSNames, Incorporated
p6517
sa(dp6518
g2
I0
sg3
I4
sg4
VSEARCHNRESQ INC.
p6519
sa(dp6520
g2
I0
sg3
I84
sg4
VSECONDROUND NAMES LLC
p6521
sa(dp6522
g2
I0
sg3
I1
sg4
VSECURA GMBH
p6523
sa(dp6524
g2
I1
sg3
I201
sg4
VSERVER PLAN SRL
p6525
sa(dp6526
g2
I0
sg3
I13
sg4
VSHANGHAI BEST ORAY INFORMATION S&T CO. LTD.
p6527
sa(dp6528
g2
I3
sg3
I1214
sg4
VSHANGHAI BEST ORAY INFORMATION S&T CO., LTD.
p6529
sa(dp6530
g2
I85
sg3
I20426
sg4
VXINNET TECHNOLOGY CORPORATION
p6531
sa(dp6532
g2
I0
sg3
I3
sg4
VXiamen Dianmei Network Technology Co., Ltd.
p6533
sa(dp6534
g2
I0
sg3
I8
sg4
VXiamen Domains, Inc.
p6535
sa(dp6536
g2
I2
sg3
I334
sg4
VXiamen Nawang Technology Co.,Ltd
p6537
sa(dp6538
g2
I0
sg3
I1
sg4
VYENKOS, LLC
p6539
sa(dp6540
g2
I0
sg3
I89
sg4
VYOUDAMAIN.COM LLC
p6541
sa(dp6542
g2
I0
sg3
I74
sg4
VYOUR DOMAIN CASA, LLC
p6543
sa(dp6544
g2
I0
sg3
I83
sg4
VYOUR DOMAIN LLC
p6545
sa(dp6546
g2
I0
sg3
I5
sg4
VYellow Start, Inc
p6547
sa(dp6548
g2
I0
sg3
I21
sg4
VYenkos, LLC
p6549
sa(dp6550
g2
I0
sg3
I6
sg4
VYouDamain.com LLC
p6551
sa(dp6552
g2
I0
sg3
I2
sg4
VYour Domain Casa, LLC
p6553
sa(dp6554
g2
I0
sg3
I5
sg4
VYour Domain King, Inc
p6555
sa(dp6556
g2
I0
sg3
I6
sg4
VYour Domain LLC
p6557
sa(dp6558
g2
I0
sg3
I4
sg4
VZHENGZHOU ZITIAN NETWORK TECHNOLOGY CO., LTD.
p6559
sa(dp6560
g2
I0
sg3
I151
sg4
VZIGZAGNAMES.COM LLC
p6561
sa(dp6562
g2
I0
sg3
I76
sg4
VZINC DOMAIN NAMES LLC
p6563
sa(dp6564
g2
I1
sg3
I16
sg4
VZNET TECHNOLOGIES PVT LTD.
p6565
sa(dp6566
g2
I8
sg3
I562
sg4
VZNet Technologies Pvt Ltd.
p6567
sa(dp6568
g2
I0
sg3
I70
sg4
VZONE OF DOMAINS LLC
p6569
sa(dp6570
g2
I1
sg3
I288
sg4
VZOOMREGISTRAR LLC
p6571
sa(dp6572
g2
I0
sg3
I12
sg4
VZeus 888, LLC
p6573
sa(dp6574
g2
I0
sg3
I163
sg4
VZhengZhou Zitian Network Technology Co. Ltd.
p6575
sa(dp6576
g2
I0
sg3
I4
sg4
VZhengzhou Century Connect Electronic Technology Development Co., Ltd
p6577
sa(dp6578
g2
I7
sg3
I676
sg4
VZhuHai NaiSiNiKe Information Technology Co., Ltd.
p6579
sa(dp6580
g2
I0
sg3
I13
sg4
VZigZagNames.com LLC
p6581
sa(dp6582
g2
I0
sg3
I5
sg4
VZinc Domain Names LLC
p6583
sa(dp6584
g2
I0
sg3
I3
sg4
VZone Casting, Inc
p6585
sa(dp6586
g2
I0
sg3
I2
sg4
VZone of Domains LLC
p6587
sa(dp6588
g2
I63
sg3
I10428
sg4
VSHANGHAI MEICHENG TECHNOLOGY INFORMATION DEVELOPMENT CO., LTD.
p6589
sa(dp6590
g2
I1
sg3
I95
sg4
VSHANGHAI YOVOLE NETWORKS INC.
p6591
sa(dp6592
g2
I0
sg3
I86
sg4
VSHARKWEEK DOMAINS LLC
p6593
sa(dp6594
g2
I0
sg3
I3
sg4
VSHENZHEN HULIANXIANFENG TECHNOLOGY CO.,LTD
p6595
sa(dp6596
g2
I0
sg3
I91
sg4
VSHINING STAR DOMAINS, LLC
p6597
sa(dp6598
g2
I1
sg3
I5
sg4
VSHINJIRU MSC SDN BHD
p6599
sa(dp6600
g2
I8
sg3
I1000
sg4
VZoomRegistrar LLC
p6601
sa(dp6602
g2
I0
sg3
I7
sg4
VZulfigar, LLC
p6603
sa(dp6604
g2
I11
sg3
I1816
sg4
Vacens Technologies, S.L.U.
p6605
sa(dp6606
g2
I0
sg3
I120
sg4
Valfena, llc
p6607
sa(dp6608
g2
I0
sg3
I1
sg4
Vbizlandcom
p6609
sa(dp6610
g2
I101
sg3
I1556
sg4
Vdattatec.com SRL
p6611
sa(dp6612
g2
I134
sg3
I49310
sg4
VeName Technology Co.,Ltd.
p6613
sa(dp6614
g2
I0
sg3
I1
sg4
VeNom371, Incorporated
p6615
sa(dp6616
g2
I0
sg3
I1
sg4
VeNom373, Incorporated
p6617
sa(dp6618
g2
I0
sg3
I1
sg4
VeNom389, Incorporated
p6619
sa(dp6620
g2
I0
sg3
I1
sg4
VeNom397, Incorporated
p6621
sa(dp6622
g2
I0
sg3
I1
sg4
VeNom399, Incorporated
p6623
sa(dp6624
g2
I0
sg3
I1
sg4
VeNom407, Incorporated
p6625
sa(dp6626
g2
I0
sg3
I1
sg4
VeNom417, Incorporated
p6627
sa(dp6628
g2
I0
sg3
I1
sg4
VeNom419, Incorporated
p6629
sa(dp6630
g2
I0
sg3
I2
sg4
VeNom421, Incorporated
p6631
sa(dp6632
g2
I0
sg3
I1
sg4
VeNom429, Incorporated
p6633
sa(dp6634
g2
I0
sg3
I1
sg4
VeNom431, Incorporated
p6635
sa(dp6636
g2
I0
sg3
I1
sg4
VeNom433, Incorporated
p6637
sa(dp6638
g2
I0
sg3
I1
sg4
VeNom437, Incorporated
p6639
sa(dp6640
g2
I0
sg3
I1
sg4
VeNom443, Incorporated
p6641
sa(dp6642
g2
I0
sg3
I1
sg4
VeNom453, Incorporated
p6643
sa(dp6644
g2
I0
sg3
I1
sg4
VeNom461, Incorporated
p6645
sa(dp6646
g2
I0
sg3
I1
sg4
VeNom469, Incorporated
p6647
sa(dp6648
g2
I0
sg3
I1
sg4
VeNomEU, Inc.
p6649
sa(dp6650
g2
I0
sg3
I1
sg4
VeNomV, Inc.
p6651
sa(dp6652
g2
I0
sg3
I1
sg4
VeNomX, Inc.
p6653
sa(dp6654
g2
I2
sg3
I267
sg4
VeasyDNS Technologies, Inc.
p6655
sa(dp6656
g2
I0
sg3
I1
sg4
Venom1009, Inc.
p6657
sa(dp6658
g2
I0
sg3
I1
sg4
Venom1012, Inc.
p6659
sa(dp6660
g2
I0
sg3
I2
sg4
Venom1013, Inc.
p6661
sa(dp6662
g2
I0
sg3
I1
sg4
Venom1014, Inc.
p6663
sa(dp6664
g2
I0
sg3
I1
sg4
Venom1037, Inc.
p6665
sa(dp6666
g2
I0
sg3
I1
sg4
Venom635, Inc.
p6667
sa(dp6668
g2
I0
sg3
I1
sg4
Venom646, Inc.
p6669
sa(dp6670
g2
I0
sg3
I2
sg4
Venom650, Inc.
p6671
sa(dp6672
g2
I0
sg3
I1
sg4
Venom659, Inc.
p6673
sa(dp6674
g2
I15
sg3
I425
sg4
Vgooddomainregistry.com
p6675
sa(dp6676
g2
I1
sg3
I3
sg4
ViNIC GmbH
p6677
sa(dp6678
g2
I0
sg3
I2
sg4
Vn4vrsgn
p6679
sa(dp6680
g2
I4
sg3
I309
sg4
VpairNIC INC
p6681
sa(dp6682
g2
I0
sg3
I1
sg4
Vrockenstein AG
p6683
sa(dp6684
g2
I7
sg3
I916
sg4
Vunited domains AG
p6685
sa(dp6686
g2
I6387
sg3
I477055
sg4
VGODADDY.COM, LLC
p6687
sa(dp6688
g2
I0
sg3
I7
sg4
VGODOMAINGO.COM LLC
p6689
sa(dp6690
g2
I0
sg3
I71
sg4
VGOLD DOMAIN NAMES LLC
p6691
sa(dp6692
g2
I0
sg3
I96
sg4
VGOLDENFIND DOMAINS LLC
p6693
sa(dp6694
g2
I1
sg3
I82
sg4
VGOLDMINE DOMAINS LLC
p6695
sa(dp6696
g2
I0
sg3
I4
sg4
VGONAME.COM, INC
p6697
sa(dp6698
g2
I0
sg3
I9
sg4
VGOOD DOMAIN REGISTRY PVT LTD.
p6699
sa(dp6700
g2
I0
sg3
I1
sg4
VGOOD LUCK INTERNET SERVICES PVT LTD.
p6701
sa(dp6702
g2
I14
sg3
I13461
sg4
VGOOGLE INC.
p6703
sa(dp6704
g2
I0
sg3
I119
sg4
VGOSERVEYOURDOMAIN.COM LLC
p6705
sa(dp6706
g2
I0
sg3
I75
sg4
VGOTO DOMAINS LLC
p6707
sa(dp6708
g2
I0
sg3
I138
sg4
VGOZERDOMAINS.COM LLC
p6709
sa(dp6710
g2
I0
sg3
I130
sg4
VGRADEADOMAINNAMES.COM LLC
p6711
sa(dp6712
g2
I26
sg3
I1020
sg4
VGRANSY S.R.O D/B/A SUBREG.CZ
p6713
sa(dp6714
g2
I0
sg3
I96
sg4
VGREENZONEDOMAINS INC.
p6715
sa(dp6716
g2
I0
sg3
I25
sg4
VGUANGDONG JINWANBANG TECHNOLOGY INVESTMENT CO. LTD.
p6717
sa(dp6718
g2
I0
sg3
I10
sg4
VGUANGDONG NAISINIKE INFORMATION TECHNOLOGY CO LTD
p6719
sa(dp6720
g2
I1
sg3
I409
sg4
VGUANGZHOU DOMAINS, INC.
p6721
sa(dp6722
g2
I0
sg3
I192
sg4
VGUANGZHOU EHOST TECH.CO.LTD.
p6723
sa(dp6724
g2
I0
sg3
I33
sg4
VGUANGZHOU MING YANG INFORMATION TECHNOLOGY CO., LTD
p6725
sa(dp6726
g2
I0
sg3
I3
sg4
VGUNGA GALUNGA CORPORATION
p6727
sa(dp6728
g2
I1
sg3
I30
sg4
VGabia C&S
p6729
sa(dp6730
g2
I39
sg3
I3512
sg4
VGabia, Inc.
p6731
sa(dp6732
g2
I0
sg3
I12
sg4
VGalileo Galilei, LLC
p6733
sa(dp6734
g2
I0
sg3
I5
sg4
VGame For Names, Inc
p6735
sa(dp6736
g2
I0
sg3
I14
sg4
VGateKeeperDomains.net LLC
p6737
sa(dp6738
g2
I0
sg3
I15
sg4
VGenghis Khan, LLC
p6739
sa(dp6740
g2
I3
sg3
I110
sg4
VGenious Communications SARL/AU
p6741
sa(dp6742
g2
I0
sg3
I13
sg4
VGeorge S. Patton, LLC
p6743
sa(dp6744
g2
I0
sg3
I11
sg4
VGeorge Washington 888, LLC
p6745
sa(dp6746
g2
I0
sg3
I4
sg4
VGesloten Domain, N.V.
p6747
sa(dp6748
g2
I0
sg3
I2
sg4
VGhana Dot Com Ltd.
p6749
sa(dp6750
g2
I4
sg3
I938
sg4
VGlamDomains LLC
p6751
sa(dp6752
g2
I0
sg3
I4
sg4
VGlide Slope Domains, LLC
p6753
sa(dp6754
g2
I3
sg3
I45
sg4
VGlobal Internet
p6755
sa(dp6756
g2
I0
sg3
I7
sg4
VGlobal Village GmbH
p6757
sa(dp6758
g2
I0
sg3
I10
sg4
VGo Full House, Inc
p6759
sa(dp6760
g2
I0
sg3
I25
sg4
VGoDaddy.com, LLC
p6761
sa(dp6762
g2
I0
sg3
I15
sg4
VGoServeYourDomain.com LLC
p6763
sa(dp6764
g2
I0
sg3
I1
sg4
VGodomaingo.com LLC
p6765
sa(dp6766
g2
I0
sg3
I3
sg4
VGold Domain Names LLC
p6767
sa(dp6768
g2
I0
sg3
I7
sg4
VGoldenfind Domains LLC
p6769
sa(dp6770
g2
I0
sg3
I6
sg4
VGoldmine Domains LLC
p6771
sa(dp6772
g2
I0
sg3
I11
sg4
VGoname-Fl.Com, Inc.
p6773
sa(dp6774
g2
I0
sg3
I13
sg4
VGoname-Hi.Com, Inc.
p6775
sa(dp6776
g2
I0
sg3
I11
sg4
VGoname-Tn.Com, Inc.
p6777
sa(dp6778
g2
I0
sg3
I4
sg4
VGoname-Tx.Com, Inc.
p6779
sa(dp6780
g2
I0
sg3
I12
sg4
VGoname-Wa.Com, Inc.
p6781
sa(dp6782
g2
I42
sg3
I1754
sg4
VGoogle Inc.
p6783
sa(dp6784
g2
I0
sg3
I5
sg4
VGoto Domains LLC
p6785
sa(dp6786
g2
I0
sg3
I9
sg4
VGozerdomains.com LLC
p6787
sa(dp6788
g2
I0
sg3
I3
sg4
VGradeadomainnames.com LLC
p6789
sa(dp6790
g2
I0
sg3
I13
sg4
VGreen Destiny, LLC
p6791
sa(dp6792
g2
I0
sg3
I3
sg4
VGreenZoneDomains Inc.
p6793
sa(dp6794
g2
I0
sg3
I3
sg4
VGreenzone Domains Inc
p6795
sa(dp6796
g2
I6
sg3
I2249
sg4
VGuangdong JinWanBang Technology Investment Co., Ltd.
p6797
sa(dp6798
g2
I0
sg3
I8
sg4
VGuangzhou Domains, Inc.
p6799
sa(dp6800
g2
I0
sg3
I132
sg4
VHANG TEN DOMAINS, LLC
p6801
sa(dp6802
g2
I4
sg3
I726
sg4
VHANG ZHOU E-BUSINESS SERVICES CO.LTD.
p6803
sa(dp6804
g2
I2
sg3
I69
sg4
VHANGANG SYSTEMS,INC. D/B/A DOREGI.COM
p6805
sa(dp6806
g2
I0
sg3
I78
sg4
VHANGING CURVE DOMAINS LLC
p6807
sa(dp6808
g2
I0
sg3
I5
sg4
VHANGZHOU AIMING NETWORK CO.,LTD
p6809
sa(dp6810
g2
I0
sg3
I169
sg4
VHANGZHOU DIANSHANG INTERNET TECHNOLOGY CO., LTD.
p6811
sa(dp6812
g2
I0
sg3
I21
sg4
VHANGZHOU DUOMAI E-COMMERCE CO., LTD
p6813
sa(dp6814
g2
I1
sg3
I95
sg4
VHAVEANAME LLC
p6815
sa(dp6816
g2
I0
sg3
I115
sg4
VHAWTHORNEDOMAINS.COM LLC
p6817
sa(dp6818
g2
I0
sg3
I384
sg4
VHAZELDOMAINS, INC.
p6819
sa(dp6820
g2
I2
sg3
I113
sg4
VHEAVYDOMAINS.NET LLC
p6821
sa(dp6822
g2
I3
sg3
I943
sg4
VHEBEI GUOJI MAOYI (SHANGHAI) LTD DBA HEBEIDOMAINS.COM
p6823
sa(dp6824
g2
I0
sg3
I5
sg4
VHELLO INTERNET CORP.
p6825
sa(dp6826
g2
I0
sg3
I3
sg4
VHENAN WEICHUANG NETWORK TECHNOLOGY CO. LTD.
p6827
sa(dp6828
g2
I0
sg3
I3
sg4
VHETZNER ONLINE GMBH
p6829
sa(dp6830
g2
I368
sg3
I90289
sg4
VHICHINA ZHICHENG TECHNOLOGY LTD.
p6831
sa(dp6832
g2
I0
sg3
I36
sg4
VHOOYOO INFORMATION TECHNOLOGY CO.LTD.
p6833
sa(dp6834
g2
I4
sg3
I55
sg4
VHOSTEUR SARL
p6835
sa(dp6836
g2
I0
sg3
I18
sg4
VHOSTING CONCEPTS B.V. D/B/A OPENPROVIDER
p6837
sa(dp6838
g2
I6
sg3
I290
sg4
VHOSTING UKRAINE LLC.
p6839
sa(dp6840
g2
I0
sg3
I25
sg4
VHOSTING UKRAINE LTD
p6841
sa(dp6842
g2
I0
sg3
I46
sg4
VHOSTINGER UAB
p6843
sa(dp6844
g2
I0
sg3
I4
sg4
VHOSTLANE INC.
p6845
sa(dp6846
g2
I0
sg3
I106
sg4
VHOUSE OF DOMAINS, LLC
p6847
sa(dp6848
g2
I2
sg3
I74
sg4
VHTTP.NET INTERNET GMBH
p6849
sa(dp6850
g2
I0
sg3
I4
sg4
VHU YI GLOBAL INFORMATION RESOURCES (HOLDING) COMPANY HONGKONG LIMITED
p6851
sa(dp6852
g2
I0
sg3
I3
sg4
VHang Ten Domains, LLC
p6853
sa(dp6854
g2
I0
sg3
I6
sg4
VHanging Curve Domains LLC
p6855
sa(dp6856
g2
I0
sg3
I17
sg4
VHannibal Barca, LLC
p6857
sa(dp6858
g2
I0
sg3
I9
sg4
VHawthornedomains.com LLC
p6859
sa(dp6860
g2
I0
sg3
I5
sg4
VHazelDomains, Inc.
p6861
sa(dp6862
g2
I0
sg3
I18
sg4
VHeavens Will, LLC
p6863
sa(dp6864
g2
I0
sg3
I5
sg4
VHeavydomains.net LLC
p6865
sa(dp6866
g2
I0
sg3
I5
sg4
VHenan Weichuang Network Technology Co. Ltd.
p6867
sa(dp6868
g2
I0
sg3
I19
sg4
VHercules 888, LLC
p6869
sa(dp6870
g2
I6
sg3
I242
sg4
VHetzner Online GmbH
p6871
sa(dp6872
g2
I0
sg3
I1
sg4
VHogan Lovells International LLP
p6873
sa(dp6874
g2
I0
sg3
I12
sg4
VHonjo Masamune, LLC
p6875
sa(dp6876
g2
I32
sg3
I1595
sg4
VHosting Concepts B.V. d/b/a Openprovider
p6877
sa(dp6878
g2
I15
sg3
I2315
sg4
VHostinger, UAB
p6879
sa(dp6880
g2
I0
sg3
I7
sg4
VHotdomaintrade.com, Inc
p6881
sa(dp6882
g2
I1
sg3
I5
sg4
VHouse of Domains, LLC
p6883
sa(dp6884
g2
I0
sg3
I12
sg4
VHrunting, LLC
p6885
sa(dp6886
g2
I0
sg3
I2
sg4
VHumeia Corporation
p6887
sa(dp6888
g2
I0
sg3
I91
sg4
VICONICNAMES LLC
p6889
sa(dp6890
g2
I0
sg3
I95
sg4
VIHS TELEKOM, INC.
p6891
sa(dp6892
g2
I45
sg3
I4237
sg4
VIHS Telekom, Inc
p6893
sa(dp6894
g2
I0
sg3
I122
sg4
VIMMINENTDOMAINS.NET LLC
p6895
sa(dp6896
g2
I0
sg3
I168
sg4
VIN2NET NETWORK, INC.
p6897
sa(dp6898
g2
I21
sg3
I805
sg4
VINAMES CO., LTD.
p6899
sa(dp6900
g2
I0
sg3
I8
sg4
VINDIRECTION IDENTITY CORPORATION
p6901
sa(dp6902
g2
I0
sg3
I13
sg4
VINFOCOM NETWORK LTD.
p6903
sa(dp6904
g2
I0
sg3
I136
sg4
VINLANDDOMAINS, LLC
p6905
sa(dp6906
g2
I0
sg3
I130
sg4
VINSANENAMES LLC
p6907
sa(dp6908
g2
I1
sg3
I59
sg4
VINSTANTNAMES LLC
p6909
sa(dp6910
g2
I0
sg3
I226
sg4
VINSTRA CORPORATION PTY, LTD.
p6911
sa(dp6912
g2
I0
sg3
I2
sg4
VINTERDOMINIOS, INC.
p6913
sa(dp6914
g2
I0
sg3
I126
sg4
VINTERLAKENAMES.COM LLC
p6915
sa(dp6916
g2
I0
sg3
I3
sg4
VINTERLINK CO. LTD.
p6917
sa(dp6918
g2
I272
sg3
I6077
sg4
VINTERNET DOMAIN SERVICE BS CORP
p6919
sa(dp6920
g2
I0
sg3
I3
sg4
VINTERNET INTERNAL AFFAIRS CORPORATION
p6921
sa(dp6922
g2
I0
sg3
I7
sg4
VINTERNET INVEST, LTD. DBA IMENA.UA
p6923
sa(dp6924
g2
I0
sg3
I49
sg4
VINTERNET NAYANA INC.
p6925
sa(dp6926
g2
I0
sg3
I1
sg4
VINTERNETWORX LTD. & CO. KG
p6927
sa(dp6928
g2
I0
sg3
I1
sg4
VINTERSOLVED-TN.COM, INC.
p6929
sa(dp6930
g2
I0
sg3
I35
sg4
VINTERWEB ADVERTISING D.B.A. PROFILE BUILDER
p6931
sa(dp6932
g2
I0
sg3
I231
sg4
VINWX GmbH & Co. KG
p6933
sa(dp6934
g2
I0
sg3
I13
sg4
VIP MIRROR PTE LTD. DBA IP MIRROR
p6935
sa(dp6936
g2
I8
sg3
I191
sg4
VIP Mirror Pte Ltd
p6937
sa(dp6938
g2
I0
sg3
I17
sg4
VIP Twins SAS
p6939
sa(dp6940
g2
I2
sg3
I118
sg4
VISERVEYOURDOMAIN.COM LLC
p6941
sa(dp6942
g2
I0
sg3
I9
sg4
VIServeYourDomain.com LLC
p6943
sa(dp6944
g2
I0
sg3
I5
sg4
VIconicnames LLC
p6945
sa.